(lp1
(dp2
((S'20.0m'
S'3.0n'
S'5.8p'
tS'3.0p'
S'Vin'
p3
S'ac'
p4
I10
S'5.0'
S'______'
S'=3n'
tp5
S'../data/transmission_line_10_dropoffs/MultidropBode\\ac_Cdrp=3.0p_Rterm=sqrt(Lline_Cline)_Lenline=5.0_Rline=20.0m_Lline=3.0n_Cline=5.8p_Vin=0_1_1_0_0_1_0_BitTime=3n_Vout.csv'
p6
s((S'420.0m'
S'79.0p'
S'220.0f'
tS'3.0p'
g3
S'tran'
p7
I10
S'5.0'
S'____'
S''
tp8
S'../data/transmission_line_10_dropoffs/MultidropTransient\\tran_Cdrp=3.0p_Rterm=sqrt(Lline_Cline)_Lenline=5.0_Rline=420.0m_Lline=79.0p_Cline=220.0f_Vin=1_0_1_0_1_Vout.csv'
p9
s((S'1.4'
S'4.0n'
S'9.0p'
tS'3.0p'
g3
g7
I10
S'5.0'
S'____'
S''
tp10
S'../data/transmission_line_10_dropoffs/MultidropTransient\\tran_Cdrp=3.0p_Rterm=sqrt(Lline_Cline)_Lenline=5.0_Rline=1.4_Lline=4.0n_Cline=9.0p_Vin=1_0_1_0_1_Vout.csv'
p11
s((S'17.0'
S'3.5n'
S'5.1p'
tS'2.0p'
g3
g7
I10
S'6.0'
S'____'
S'=10n'
tp12
S'../data/transmission_line_10_dropoffs/MultidropTransient\\tran_Cdrp=2.0p_Rterm=sqrt(Lline_Cline)_Lenline=6.0_Rline=17.0_Lline=3.5n_Cline=5.1p_Vin=1_0_1_0_1_BitTime=10n_Vout.csv'
p13
s((S'16.0'
S'2.4n'
S'4.6p'
tS'1.0p'
g3
g7
I10
S'5.0'
S'____'
S''
tp14
S'../data/transmission_line_10_dropoffs/MultidropTransient\\tran_Cdrp=1.0p_Rterm=sqrt(Lline_Cline)_Lenline=5.0_Rline=16.0_Lline=2.4n_Cline=4.6p_Vin=1_0_1_0_0_Vout.csv'
p15
s((S'2.0'
S'3.5n'
S'5.1p'
tS'2.0p'
g3
g4
I10
S'6.0'
S'____'
S'=5n'
tp16
S'../data/transmission_line_10_dropoffs/MultidropBode\\ac_Cdrp=2.0p_Rterm=sqrt(Lline_Cline)_Lenline=6.0_Rline=2.0_Lline=3.5n_Cline=5.1p_Vin=1_0_1_0_1_BitTime=5n_Vout.csv'
p17
s((S'820.0m'
S'2.4n'
S'220.0f'
tS'3.0p'
g3
g7
I10
S'5.0'
S'____'
S''
tp18
S'../data/transmission_line_10_dropoffs/MultidropTransient\\tran_Cdrp=3.0p_Rterm=sqrt(Lline_Cline)_Lenline=5.0_Rline=820.0m_Lline=2.4n_Cline=220.0f_Vin=1_0_1_0_0_Vout.csv'
p19
s((S'220.0m'
S'2.4n'
S'220.0f'
tS'3.0p'
g3
g7
I10
S'5.0'
S'____'
S''
tp20
S'../data/transmission_line_10_dropoffs/MultidropTransient\\tran_Cdrp=3.0p_Rterm=sqrt(Lline_Cline)_Lenline=5.0_Rline=220.0m_Lline=2.4n_Cline=220.0f_Vin=1_0_1_0_0_Vout.csv'
p21
s((S'17.0'
S'4.0n'
S'9.0p'
tS'3.0p'
g3
g4
I10
S'5.0'
S'____'
S''
tp22
S'../data/transmission_line_10_dropoffs/MultidropBode\\ac_Cdrp=3.0p_Rterm=sqrt(Lline_Cline)_Lenline=5.0_Rline=17.0_Lline=4.0n_Cline=9.0p_Vin=1_0_1_0_1_Vout.csv'
p23
s((S'420.0m'
S'4.0n'
S'11.2p'
tS'3.0p'
g3
g7
I10
S'5.0'
S'____'
S''
tp24
S'../data/transmission_line_10_dropoffs/MultidropTransient\\tran_Cdrp=3.0p_Rterm=sqrt(Lline_Cline)_Lenline=5.0_Rline=420.0m_Lline=4.0n_Cline=11.2p_Vin=1_0_1_0_1_Vout.csv'
p25
s((S'15.0'
S'79.0p'
S'220.0f'
tS'3.0p'
g3
g4
I10
S'5.0'
S'____'
S''
tp26
S'../data/transmission_line_10_dropoffs/MultidropBode\\ac_Cdrp=3.0p_Rterm=sqrt(Lline_Cline)_Lenline=5.0_Rline=15.0_Lline=79.0p_Cline=220.0f_Vin=1_0_1_0_1_Vout.csv'
p27
s((S'6.0'
S'2.4n'
S'4.6p'
tS'1.0p'
g3
g7
I10
S'5.0'
S'____'
S''
tp28
S'../data/transmission_line_10_dropoffs/MultidropTransient\\tran_Cdrp=1.0p_Rterm=sqrt(Lline_Cline)_Lenline=5.0_Rline=6.0_Lline=2.4n_Cline=4.6p_Vin=1_0_1_0_0_Vout.csv'
p29
s((S'1.0'
S'2.4n'
S'220.0f'
tS'3.0p'
g3
g4
I10
S'5.0'
S'____'
S''
tp30
S'../data/transmission_line_10_dropoffs/MultidropBode\\ac_Cdrp=3.0p_Rterm=sqrt(Lline_Cline)_Lenline=5.0_Rline=1.0_Lline=2.4n_Cline=220.0f_Vin=1_0_1_0_0_Vout.csv'
p31
s((S'1.2'
S'2.4n'
S'4.6p'
tS'1.0p'
g3
g7
I10
S'5.0'
S'____'
S''
tp32
S'../data/transmission_line_10_dropoffs/MultidropTransient\\tran_Cdrp=1.0p_Rterm=sqrt(Lline_Cline)_Lenline=5.0_Rline=1.2_Lline=2.4n_Cline=4.6p_Vin=1_0_1_0_0_Vout.csv'
p33
s((S'10.0'
S'2.4n'
S'4.6p'
tS'1.0p'
g3
g7
I10
S'5.0'
S'____'
S''
tp34
S'../data/transmission_line_10_dropoffs/MultidropTransient\\tran_Cdrp=1.0p_Rterm=sqrt(Lline_Cline)_Lenline=5.0_Rline=10.0_Lline=2.4n_Cline=4.6p_Vin=1_0_1_0_0_Vout.csv'
p35
s((S'12.0'
S'79.0p'
S'220.0f'
tS'1.0p'
g3
g7
I10
S'1.0'
S'____'
S''
tp36
S'../data/transmission_line_10_dropoffs/MultidropTransient\\tran_Cdrp=1.0p_Rterm=sqrt(Lline_Cline)_Lenline=1.0_Rline=12.0_Lline=79.0p_Cline=220.0f_Vin=1_0_0_0_0_Vout.csv'
p37
s((S'16.0'
S'3.5n'
S'5.8p'
tS'3.0p'
g3
g4
I10
S'5.0'
S'____'
S''
tp38
S'../data/transmission_line_10_dropoffs/MultidropBode\\ac_Cdrp=3.0p_Rterm=sqrt(Lline_Cline)_Lenline=5.0_Rline=16.0_Lline=3.5n_Cline=5.8p_Vin=1_0_1_0_0_Vout.csv'
p39
s((S'420.0m'
S'1.0n'
S'2.3p'
tS'2.0p'
g3
g4
I28
S'4.0'
S'____'
S''
tp40
S'../data/transmission_line_28_dropoffs/MultidropBode\\ac_Cdrp=2.0p_Rterm=sqrt(Lline_Cline)_Lenline=4.0_Rline=420.0m_Lline=1.0n_Cline=2.3p_Vin=1_0_0_0_0_Vout.csv'
p41
s((S'17.0'
S'3.5n'
S'5.1p'
tS'2.0p'
g3
g4
I10
S'6.0'
S'____'
S'=5n'
tp42
S'../data/transmission_line_10_dropoffs/MultidropBode\\ac_Cdrp=2.0p_Rterm=sqrt(Lline_Cline)_Lenline=6.0_Rline=17.0_Lline=3.5n_Cline=5.1p_Vin=1_0_1_0_1_BitTime=5n_Vout.csv'
p43
s((S'620.0m'
S'3.5n'
S'5.1p'
tS'2.0p'
g3
g7
I10
S'6.0'
S'____'
S'=10n'
tp44
S'../data/transmission_line_10_dropoffs/MultidropTransient\\tran_Cdrp=2.0p_Rterm=sqrt(Lline_Cline)_Lenline=6.0_Rline=620.0m_Lline=3.5n_Cline=5.1p_Vin=1_0_1_0_1_BitTime=10n_Vout.csv'
p45
s((S'220.0m'
S'3.5n'
S'5.1p'
tS'2.0p'
g3
g7
I10
S'6.0'
S'____'
S'=5n'
tp46
S'../data/transmission_line_10_dropoffs/MultidropTransient\\tran_Cdrp=2.0p_Rterm=sqrt(Lline_Cline)_Lenline=6.0_Rline=220.0m_Lline=3.5n_Cline=5.1p_Vin=1_0_1_0_1_BitTime=5n_Vout.csv'
p47
s((S'19.0'
S'3.5n'
S'5.8p'
tS'3.0p'
g3
g7
I10
S'5.0'
S'____'
S''
tp48
S'../data/transmission_line_10_dropoffs/MultidropTransient\\tran_Cdrp=3.0p_Rterm=sqrt(Lline_Cline)_Lenline=5.0_Rline=19.0_Lline=3.5n_Cline=5.8p_Vin=1_0_1_0_0_Vout.csv'
p49
s((S'420.0m'
S'3.0n'
S'5.8p'
tS'3.0p'
g3
g7
I10
S'5.0'
S'______'
S'=3n'
tp50
S'../data/transmission_line_10_dropoffs/MultidropTransient\\tran_Cdrp=3.0p_Rterm=sqrt(Lline_Cline)_Lenline=5.0_Rline=420.0m_Lline=3.0n_Cline=5.8p_Vin=0_1_1_0_0_1_0_BitTime=3n_Vout.csv'
p51
s((S'6.0'
S'4.0n'
S'9.0p'
tS'3.0p'
g3
g4
I10
S'5.0'
S'____'
S''
tp52
S'../data/transmission_line_10_dropoffs/MultidropBode\\ac_Cdrp=3.0p_Rterm=sqrt(Lline_Cline)_Lenline=5.0_Rline=6.0_Lline=4.0n_Cline=9.0p_Vin=1_0_1_0_1_Vout.csv'
p53
s((S'18.0'
S'79.0p'
S'220.0f'
tS'1.0p'
g3
g4
I10
S'1.0'
S'____'
S''
tp54
S'../data/transmission_line_10_dropoffs/MultidropBode\\ac_Cdrp=1.0p_Rterm=sqrt(Lline_Cline)_Lenline=1.0_Rline=18.0_Lline=79.0p_Cline=220.0f_Vin=1_0_0_0_0_Vout.csv'
p55
s((S'10.0'
S'79.0p'
S'220.0f'
tS'3.0p'
g3
g7
I10
S'5.0'
S'____'
S''
tp56
S'../data/transmission_line_10_dropoffs/MultidropTransient\\tran_Cdrp=3.0p_Rterm=sqrt(Lline_Cline)_Lenline=5.0_Rline=10.0_Lline=79.0p_Cline=220.0f_Vin=1_0_1_0_1_Vout.csv'
p57
s((S'19.0'
S'4.0n'
S'9.0p'
tS'3.0p'
g3
g7
I10
S'5.0'
S'____'
S''
tp58
S'../data/transmission_line_10_dropoffs/MultidropTransient\\tran_Cdrp=3.0p_Rterm=sqrt(Lline_Cline)_Lenline=5.0_Rline=19.0_Lline=4.0n_Cline=9.0p_Vin=1_0_1_0_1_Vout.csv'
p59
s((S'17.0'
S'2.4n'
S'4.6p'
tS'1.0p'
g3
g7
I10
S'5.0'
S'____'
S''
tp60
S'../data/transmission_line_10_dropoffs/MultidropTransient\\tran_Cdrp=1.0p_Rterm=sqrt(Lline_Cline)_Lenline=5.0_Rline=17.0_Lline=2.4n_Cline=4.6p_Vin=1_0_1_0_0_Vout.csv'
p61
s((S'7.0'
S'3.0n'
S'5.8p'
tS'3.0p'
g3
g4
I10
S'5.0'
S'______'
S'=3n'
tp62
S'../data/transmission_line_10_dropoffs/MultidropBode\\ac_Cdrp=3.0p_Rterm=sqrt(Lline_Cline)_Lenline=5.0_Rline=7.0_Lline=3.0n_Cline=5.8p_Vin=0_1_1_0_0_1_0_BitTime=3n_Vout.csv'
p63
s((S'4.0'
S'2.0n'
S'3.0p'
tS'1.0p'
S'Vout'
p64
g4
I10
S'1.0'
S'10101'
S'10n'
tp65
S'..\\data\\transmission_line_10_dropoffs\\MultidropBode\\ac_Cdrp=1.0p_Rterm=sqrt(Lline_Cline)_Lenline=1.0_Rline=4.0_Lline=2.0n_Cline=3.0p_Vin=1_0_1_0_1_BitTime=10n_Vout.csv'
p66
s((S'7.0'
S'3.5n'
S'5.1p'
tS'2.0p'
g3
g4
I10
S'6.0'
S'____'
S'=10n'
tp67
S'../data/transmission_line_10_dropoffs/MultidropBode\\ac_Cdrp=2.0p_Rterm=sqrt(Lline_Cline)_Lenline=6.0_Rline=7.0_Lline=3.5n_Cline=5.1p_Vin=1_0_1_0_1_BitTime=10n_Vout.csv'
p68
s((S'1.8'
S'4.0n'
S'9.0p'
tS'3.0p'
g3
g4
I10
S'5.0'
S'____'
S''
tp69
S'../data/transmission_line_10_dropoffs/MultidropBode\\ac_Cdrp=3.0p_Rterm=sqrt(Lline_Cline)_Lenline=5.0_Rline=1.8_Lline=4.0n_Cline=9.0p_Vin=1_0_1_0_1_Vout.csv'
p70
s((S'15.0'
S'79.0p'
S'220.0f'
tS'1.0p'
g3
g7
I10
S'1.0'
S'____'
S''
tp71
S'../data/transmission_line_10_dropoffs/MultidropTransient\\tran_Cdrp=1.0p_Rterm=sqrt(Lline_Cline)_Lenline=1.0_Rline=15.0_Lline=79.0p_Cline=220.0f_Vin=1_0_0_0_0_Vout.csv'
p72
s((S'3.0'
S'2.4n'
S'4.6p'
tS'1.0p'
g3
g4
I10
S'5.0'
S'____'
S''
tp73
S'../data/transmission_line_10_dropoffs/MultidropBode\\ac_Cdrp=1.0p_Rterm=sqrt(Lline_Cline)_Lenline=5.0_Rline=3.0_Lline=2.4n_Cline=4.6p_Vin=1_0_1_0_0_Vout.csv'
p74
s((S'220.0m'
S'2.4n'
S'4.6p'
tS'3.0p'
g3
g4
I10
S'5.0'
S'____'
S''
tp75
S'../data/transmission_line_10_dropoffs/MultidropBode\\ac_Cdrp=3.0p_Rterm=sqrt(Lline_Cline)_Lenline=5.0_Rline=220.0m_Lline=2.4n_Cline=4.6p_Vin=1_0_1_0_1_Vout.csv'
p76
s((S'1.0'
S'2.4n'
S'4.6p'
tS'3.0p'
g3
g4
I10
S'5.0'
S'____'
S''
tp77
S'../data/transmission_line_10_dropoffs/MultidropBode\\ac_Cdrp=3.0p_Rterm=sqrt(Lline_Cline)_Lenline=5.0_Rline=1.0_Lline=2.4n_Cline=4.6p_Vin=1_0_1_0_1_Vout.csv'
p78
s((S'1.0'
S'4.0n'
S'9.0p'
tS'3.0p'
g3
g4
I10
S'5.0'
S'____'
S''
tp79
S'../data/transmission_line_10_dropoffs/MultidropBode\\ac_Cdrp=3.0p_Rterm=sqrt(Lline_Cline)_Lenline=5.0_Rline=1.0_Lline=4.0n_Cline=9.0p_Vin=1_0_1_0_1_Vout.csv'
p80
s((S'2.0'
S'3.5n'
S'5.8p'
tS'3.0p'
g3
g4
I10
S'5.0'
S'____'
S''
tp81
S'../data/transmission_line_10_dropoffs/MultidropBode\\ac_Cdrp=3.0p_Rterm=sqrt(Lline_Cline)_Lenline=5.0_Rline=2.0_Lline=3.5n_Cline=5.8p_Vin=1_0_1_0_0_Vout.csv'
p82
s((S'20.0m'
S'500.0p'
S'200.0f'
tS'3.0p'
g3
g7
I10
S'5.0'
S'______'
S''
tp83
S'../data/transmission_line_10_dropoffs/MultidropTransient\\tran_Cdrp=3.0p_Rterm=sqrt(Lline_Cline)_Lenline=5.0_Rline=20.0m_Lline=500.0p_Cline=200.0f_Vin=1_0_1_0_1_0_1_Vout.csv'
p84
s((S'7.0'
S'2.4n'
S'4.6p'
tS'1.0p'
g3
g4
I10
S'5.0'
S'____'
S''
tp85
S'../data/transmission_line_10_dropoffs/MultidropBode\\ac_Cdrp=1.0p_Rterm=sqrt(Lline_Cline)_Lenline=5.0_Rline=7.0_Lline=2.4n_Cline=4.6p_Vin=1_0_1_0_0_Vout.csv'
p86
s((S'220.0m'
S'3.0n'
S'5.8p'
tS'3.0p'
g3
g7
I10
S'5.0'
S'______'
S'=3n'
tp87
S'../data/transmission_line_10_dropoffs/MultidropTransient\\tran_Cdrp=3.0p_Rterm=sqrt(Lline_Cline)_Lenline=5.0_Rline=220.0m_Lline=3.0n_Cline=5.8p_Vin=0_1_1_0_0_1_0_BitTime=3n_Vout.csv'
p88
s((S'620.0m'
S'4.0n'
S'9.0p'
tS'3.0p'
g3
g4
I10
S'5.0'
S'____'
S''
tp89
S'../data/transmission_line_10_dropoffs/MultidropBode\\ac_Cdrp=3.0p_Rterm=sqrt(Lline_Cline)_Lenline=5.0_Rline=620.0m_Lline=4.0n_Cline=9.0p_Vin=1_0_1_0_1_Vout.csv'
p90
s((S'1.4'
S'2.4n'
S'4.6p'
tS'3.0p'
g3
g4
I10
S'5.0'
S'____'
S''
tp91
S'../data/transmission_line_10_dropoffs/MultidropBode\\ac_Cdrp=3.0p_Rterm=sqrt(Lline_Cline)_Lenline=5.0_Rline=1.4_Lline=2.4n_Cline=4.6p_Vin=1_0_1_0_1_Vout.csv'
p92
s((S'3.0'
S'3.5n'
S'5.8p'
tS'3.0p'
g3
g7
I10
S'5.0'
S'____'
S''
tp93
S'../data/transmission_line_10_dropoffs/MultidropTransient\\tran_Cdrp=3.0p_Rterm=sqrt(Lline_Cline)_Lenline=5.0_Rline=3.0_Lline=3.5n_Cline=5.8p_Vin=1_0_1_0_0_Vout.csv'
p94
s((S'13.0'
S'3.5n'
S'5.1p'
tS'2.0p'
g3
g7
I10
S'6.0'
S'____'
S'=10n'
tp95
S'../data/transmission_line_10_dropoffs/MultidropTransient\\tran_Cdrp=2.0p_Rterm=sqrt(Lline_Cline)_Lenline=6.0_Rline=13.0_Lline=3.5n_Cline=5.1p_Vin=1_0_1_0_1_BitTime=10n_Vout.csv'
p96
s((S'3.0'
S'3.0n'
S'5.8p'
tS'3.0p'
g3
g4
I10
S'5.0'
S'______'
S'=3n'
tp97
S'../data/transmission_line_10_dropoffs/MultidropBode\\ac_Cdrp=3.0p_Rterm=sqrt(Lline_Cline)_Lenline=5.0_Rline=3.0_Lline=3.0n_Cline=5.8p_Vin=0_1_1_0_0_1_0_BitTime=3n_Vout.csv'
p98
s((S'12.0'
S'3.5n'
S'5.1p'
tS'2.0p'
g3
g4
I10
S'6.0'
S'____'
S'=5n'
tp99
S'../data/transmission_line_10_dropoffs/MultidropBode\\ac_Cdrp=2.0p_Rterm=sqrt(Lline_Cline)_Lenline=6.0_Rline=12.0_Lline=3.5n_Cline=5.1p_Vin=1_0_1_0_1_BitTime=5n_Vout.csv'
p100
s((S'3.0'
S'2.0n'
S'3.0p'
tS'1.0p'
g64
g4
I10
S'1.0'
S'10101'
S'10n'
tp101
S'..\\data\\transmission_line_10_dropoffs\\MultidropBode\\ac_Cdrp=1.0p_Rterm=sqrt(Lline_Cline)_Lenline=1.0_Rline=3.0_Lline=2.0n_Cline=3.0p_Vin=1_0_1_0_1_BitTime=10n_Vout.csv'
p102
s((S'10.0'
S'2.4n'
S'220.0f'
tS'3.0p'
g3
g7
I10
S'5.0'
S'____'
S''
tp103
S'../data/transmission_line_10_dropoffs/MultidropTransient\\tran_Cdrp=3.0p_Rterm=sqrt(Lline_Cline)_Lenline=5.0_Rline=10.0_Lline=2.4n_Cline=220.0f_Vin=1_0_1_0_0_Vout.csv'
p104
s((S'4.0'
S'2.4n'
S'220.0f'
tS'3.0p'
g3
g4
I10
S'5.0'
S'____'
S''
tp105
S'../data/transmission_line_10_dropoffs/MultidropBode\\ac_Cdrp=3.0p_Rterm=sqrt(Lline_Cline)_Lenline=5.0_Rline=4.0_Lline=2.4n_Cline=220.0f_Vin=1_0_1_0_0_Vout.csv'
p106
s((S'15.0'
S'4.0n'
S'9.0p'
tS'3.0p'
g3
g7
I10
S'5.0'
S'____'
S''
tp107
S'../data/transmission_line_10_dropoffs/MultidropTransient\\tran_Cdrp=3.0p_Rterm=sqrt(Lline_Cline)_Lenline=5.0_Rline=15.0_Lline=4.0n_Cline=9.0p_Vin=1_0_1_0_1_Vout.csv'
p108
s((S'420.0m'
S'1.7n'
S'11.2p'
tS'3.0p'
g3
g7
I10
S'5.0'
S'____'
S''
tp109
S'../data/transmission_line_10_dropoffs/MultidropTransient\\tran_Cdrp=3.0p_Rterm=sqrt(Lline_Cline)_Lenline=5.0_Rline=420.0m_Lline=1.7n_Cline=11.2p_Vin=1_0_1_0_1_Vout.csv'
p110
s((S'11.0'
S'3.5n'
S'5.8p'
tS'3.0p'
g3
g4
I10
S'5.0'
S'____'
S''
tp111
S'../data/transmission_line_10_dropoffs/MultidropBode\\ac_Cdrp=3.0p_Rterm=sqrt(Lline_Cline)_Lenline=5.0_Rline=11.0_Lline=3.5n_Cline=5.8p_Vin=1_0_1_0_0_Vout.csv'
p112
s((S'15.0'
S'2.4n'
S'4.6p'
tS'3.0p'
g3
g4
I10
S'5.0'
S'____'
S''
tp113
S'../data/transmission_line_10_dropoffs/MultidropBode\\ac_Cdrp=3.0p_Rterm=sqrt(Lline_Cline)_Lenline=5.0_Rline=15.0_Lline=2.4n_Cline=4.6p_Vin=1_0_1_0_1_Vout.csv'
p114
s((S'6.0'
S'2.4n'
S'4.6p'
tS'3.0p'
g3
g4
I10
S'5.0'
S'____'
S''
tp115
S'../data/transmission_line_10_dropoffs/MultidropBode\\ac_Cdrp=3.0p_Rterm=sqrt(Lline_Cline)_Lenline=5.0_Rline=6.0_Lline=2.4n_Cline=4.6p_Vin=1_0_1_0_1_Vout.csv'
p116
s((S'1.6'
S'79.0p'
S'220.0f'
tS'3.0p'
g3
g7
I10
S'5.0'
S'____'
S''
tp117
S'../data/transmission_line_10_dropoffs/MultidropTransient\\tran_Cdrp=3.0p_Rterm=sqrt(Lline_Cline)_Lenline=5.0_Rline=1.6_Lline=79.0p_Cline=220.0f_Vin=1_0_1_0_1_Vout.csv'
p118
s((S'12.0'
S'79.0p'
S'220.0f'
tS'1.0p'
g3
g4
I10
S'1.0'
S'____'
S''
tp119
S'../data/transmission_line_10_dropoffs/MultidropBode\\ac_Cdrp=1.0p_Rterm=sqrt(Lline_Cline)_Lenline=1.0_Rline=12.0_Lline=79.0p_Cline=220.0f_Vin=1_0_0_0_0_Vout.csv'
p120
s((S'1.8'
S'79.0p'
S'220.0f'
tS'3.0p'
g3
g7
I10
S'5.0'
S'____'
S''
tp121
S'../data/transmission_line_10_dropoffs/MultidropTransient\\tran_Cdrp=3.0p_Rterm=sqrt(Lline_Cline)_Lenline=5.0_Rline=1.8_Lline=79.0p_Cline=220.0f_Vin=1_0_1_0_1_Vout.csv'
p122
s((S'18.0'
S'3.5n'
S'5.8p'
tS'3.0p'
g3
g4
I10
S'5.0'
S'____'
S''
tp123
S'../data/transmission_line_10_dropoffs/MultidropBode\\ac_Cdrp=3.0p_Rterm=sqrt(Lline_Cline)_Lenline=5.0_Rline=18.0_Lline=3.5n_Cline=5.8p_Vin=1_0_1_0_0_Vout.csv'
p124
s((S'7.0'
S'3.5n'
S'5.1p'
tS'2.0p'
g3
g7
I10
S'6.0'
S'____'
S'=10n'
tp125
S'../data/transmission_line_10_dropoffs/MultidropTransient\\tran_Cdrp=2.0p_Rterm=sqrt(Lline_Cline)_Lenline=6.0_Rline=7.0_Lline=3.5n_Cline=5.1p_Vin=1_0_1_0_1_BitTime=10n_Vout.csv'
p126
s((S'1.6'
S'2.4n'
S'4.6p'
tS'1.0p'
g3
g4
I10
S'5.0'
S'____'
S''
tp127
S'../data/transmission_line_10_dropoffs/MultidropBode\\ac_Cdrp=1.0p_Rterm=sqrt(Lline_Cline)_Lenline=5.0_Rline=1.6_Lline=2.4n_Cline=4.6p_Vin=1_0_1_0_0_Vout.csv'
p128
s((S'7.0'
S'3.5n'
S'5.8p'
tS'3.0p'
g3
g7
I10
S'5.0'
S'____'
S''
tp129
S'../data/transmission_line_10_dropoffs/MultidropTransient\\tran_Cdrp=3.0p_Rterm=sqrt(Lline_Cline)_Lenline=5.0_Rline=7.0_Lline=3.5n_Cline=5.8p_Vin=1_0_1_0_0_Vout.csv'
p130
s((S'10.0'
S'3.0n'
S'5.8p'
tS'3.0p'
g3
g4
I10
S'5.0'
S'______'
S'=3n'
tp131
S'../data/transmission_line_10_dropoffs/MultidropBode\\ac_Cdrp=3.0p_Rterm=sqrt(Lline_Cline)_Lenline=5.0_Rline=10.0_Lline=3.0n_Cline=5.8p_Vin=0_1_1_0_0_1_0_BitTime=3n_Vout.csv'
p132
s((S'20.0m'
S'3.5n'
S'5.1p'
tS'2.0p'
g3
g4
I10
S'6.0'
S'____'
S'=10n'
tp133
S'../data/transmission_line_10_dropoffs/MultidropBode\\ac_Cdrp=2.0p_Rterm=sqrt(Lline_Cline)_Lenline=6.0_Rline=20.0m_Lline=3.5n_Cline=5.1p_Vin=1_0_1_0_1_BitTime=10n_Vout.csv'
p134
s((S'420.0m'
S'2.4n'
S'4.6p'
tS'1.0p'
g3
g7
I10
S'5.0'
S'____'
S''
tp135
S'../data/transmission_line_10_dropoffs/MultidropTransient\\tran_Cdrp=1.0p_Rterm=sqrt(Lline_Cline)_Lenline=5.0_Rline=420.0m_Lline=2.4n_Cline=4.6p_Vin=1_0_1_0_0_Vout.csv'
p136
s((S'13.0'
S'2.4n'
S'4.6p'
tS'3.0p'
g3
g4
I10
S'5.0'
S'____'
S''
tp137
S'../data/transmission_line_10_dropoffs/MultidropBode\\ac_Cdrp=3.0p_Rterm=sqrt(Lline_Cline)_Lenline=5.0_Rline=13.0_Lline=2.4n_Cline=4.6p_Vin=1_0_1_0_1_Vout.csv'
p138
s((S'2.0'
S'3.5n'
S'5.1p'
tS'2.0p'
g3
g4
I10
S'6.0'
S'____'
S'=10n'
tp139
S'../data/transmission_line_10_dropoffs/MultidropBode\\ac_Cdrp=2.0p_Rterm=sqrt(Lline_Cline)_Lenline=6.0_Rline=2.0_Lline=3.5n_Cline=5.1p_Vin=1_0_1_0_1_BitTime=10n_Vout.csv'
p140
s((S'16.0'
S'2.4n'
S'220.0f'
tS'3.0p'
g3
g7
I10
S'5.0'
S'____'
S''
tp141
S'../data/transmission_line_10_dropoffs/MultidropTransient\\tran_Cdrp=3.0p_Rterm=sqrt(Lline_Cline)_Lenline=5.0_Rline=16.0_Lline=2.4n_Cline=220.0f_Vin=1_0_1_0_0_Vout.csv'
p142
s((S'20.0'
S'2.0n'
S'3.0p'
tS'1.0p'
g64
g4
I10
S'1.0'
S'10101'
S'10n'
tp143
S'..\\data\\transmission_line_10_dropoffs\\MultidropBode\\ac_Cdrp=1.0p_Rterm=sqrt(Lline_Cline)_Lenline=1.0_Rline=20.0_Lline=2.0n_Cline=3.0p_Vin=1_0_1_0_1_BitTime=10n_Vout.csv'
p144
s((S'6.0'
S'3.5n'
S'5.1p'
tS'2.0p'
g3
g7
I10
S'6.0'
S'____'
S'=10n'
tp145
S'../data/transmission_line_10_dropoffs/MultidropTransient\\tran_Cdrp=2.0p_Rterm=sqrt(Lline_Cline)_Lenline=6.0_Rline=6.0_Lline=3.5n_Cline=5.1p_Vin=1_0_1_0_1_BitTime=10n_Vout.csv'
p146
s((S'15.0'
S'3.5n'
S'5.1p'
tS'2.0p'
g3
g4
I10
S'6.0'
S'____'
S'=5n'
tp147
S'../data/transmission_line_10_dropoffs/MultidropBode\\ac_Cdrp=2.0p_Rterm=sqrt(Lline_Cline)_Lenline=6.0_Rline=15.0_Lline=3.5n_Cline=5.1p_Vin=1_0_1_0_1_BitTime=5n_Vout.csv'
p148
s((S'4.0'
S'2.4n'
S'4.6p'
tS'1.0p'
g3
g4
I10
S'5.0'
S'____'
S''
tp149
S'../data/transmission_line_10_dropoffs/MultidropBode\\ac_Cdrp=1.0p_Rterm=sqrt(Lline_Cline)_Lenline=5.0_Rline=4.0_Lline=2.4n_Cline=4.6p_Vin=1_0_1_0_0_Vout.csv'
p150
s((S'220.0m'
S'79.0p'
S'220.0f'
tS'3.0p'
g3
g4
I10
S'5.0'
S'____'
S''
tp151
S'../data/transmission_line_10_dropoffs/MultidropBode\\ac_Cdrp=3.0p_Rterm=sqrt(Lline_Cline)_Lenline=5.0_Rline=220.0m_Lline=79.0p_Cline=220.0f_Vin=1_0_1_0_1_Vout.csv'
p152
s((S'12.0'
S'3.0n'
S'5.8p'
tS'3.0p'
g3
g4
I10
S'5.0'
S'______'
S'=3n'
tp153
S'../data/transmission_line_10_dropoffs/MultidropBode\\ac_Cdrp=3.0p_Rterm=sqrt(Lline_Cline)_Lenline=5.0_Rline=12.0_Lline=3.0n_Cline=5.8p_Vin=0_1_1_0_0_1_0_BitTime=3n_Vout.csv'
p154
s((S'620.0m'
S'2.4n'
S'220.0f'
tS'3.0p'
g3
g7
I10
S'5.0'
S'____'
S''
tp155
S'../data/transmission_line_10_dropoffs/MultidropTransient\\tran_Cdrp=3.0p_Rterm=sqrt(Lline_Cline)_Lenline=5.0_Rline=620.0m_Lline=2.4n_Cline=220.0f_Vin=1_0_1_0_0_Vout.csv'
p156
s((S'9.0'
S'4.0n'
S'9.0p'
tS'3.0p'
g3
g7
I10
S'5.0'
S'____'
S''
tp157
S'../data/transmission_line_10_dropoffs/MultidropTransient\\tran_Cdrp=3.0p_Rterm=sqrt(Lline_Cline)_Lenline=5.0_Rline=9.0_Lline=4.0n_Cline=9.0p_Vin=1_0_1_0_1_Vout.csv'
p158
s((S'7.0'
S'3.0n'
S'5.8p'
tS'3.0p'
g3
g7
I10
S'5.0'
S'______'
S'=3n'
tp159
S'../data/transmission_line_10_dropoffs/MultidropTransient\\tran_Cdrp=3.0p_Rterm=sqrt(Lline_Cline)_Lenline=5.0_Rline=7.0_Lline=3.0n_Cline=5.8p_Vin=0_1_1_0_0_1_0_BitTime=3n_Vout.csv'
p160
s((S'5.0'
S'3.5n'
S'5.1p'
tS'2.0p'
g3
g7
I10
S'6.0'
S'____'
S'=10n'
tp161
S'../data/transmission_line_10_dropoffs/MultidropTransient\\tran_Cdrp=2.0p_Rterm=sqrt(Lline_Cline)_Lenline=6.0_Rline=5.0_Lline=3.5n_Cline=5.1p_Vin=1_0_1_0_1_BitTime=10n_Vout.csv'
p162
s((S'9.0'
S'2.4n'
S'4.6p'
tS'1.0p'
g3
g7
I10
S'5.0'
S'____'
S''
tp163
S'../data/transmission_line_10_dropoffs/MultidropTransient\\tran_Cdrp=1.0p_Rterm=sqrt(Lline_Cline)_Lenline=5.0_Rline=9.0_Lline=2.4n_Cline=4.6p_Vin=1_0_1_0_0_Vout.csv'
p164
s((S'1.2'
S'2.4n'
S'4.6p'
tS'3.0p'
g3
g4
I10
S'5.0'
S'____'
S''
tp165
S'../data/transmission_line_10_dropoffs/MultidropBode\\ac_Cdrp=3.0p_Rterm=sqrt(Lline_Cline)_Lenline=5.0_Rline=1.2_Lline=2.4n_Cline=4.6p_Vin=1_0_1_0_1_Vout.csv'
p166
s((S'14.0'
S'4.0n'
S'9.0p'
tS'3.0p'
g3
g7
I10
S'5.0'
S'____'
S''
tp167
S'../data/transmission_line_10_dropoffs/MultidropTransient\\tran_Cdrp=3.0p_Rterm=sqrt(Lline_Cline)_Lenline=5.0_Rline=14.0_Lline=4.0n_Cline=9.0p_Vin=1_0_1_0_1_Vout.csv'
p168
s((S'11.0'
S'4.0n'
S'9.0p'
tS'3.0p'
g3
g4
I10
S'5.0'
S'____'
S''
tp169
S'../data/transmission_line_10_dropoffs/MultidropBode\\ac_Cdrp=3.0p_Rterm=sqrt(Lline_Cline)_Lenline=5.0_Rline=11.0_Lline=4.0n_Cline=9.0p_Vin=1_0_1_0_1_Vout.csv'
p170
s((S'11.0'
S'79.0p'
S'220.0f'
tS'1.0p'
g3
g7
I10
S'1.0'
S'____'
S''
tp171
S'../data/transmission_line_10_dropoffs/MultidropTransient\\tran_Cdrp=1.0p_Rterm=sqrt(Lline_Cline)_Lenline=1.0_Rline=11.0_Lline=79.0p_Cline=220.0f_Vin=1_0_0_0_0_Vout.csv'
p172
s((S'20.0m'
S'500.0p'
S'200.0f'
tS'3.0p'
g3
g7
I10
S'7.0'
S'____'
S'=10n'
tp173
S'../data/transmission_line_10_dropoffs/MultidropTransient\\tran_Cdrp=3.0p_Rterm=sqrt(Lline_Cline)_Lenline=7.0_Rline=20.0m_Lline=500.0p_Cline=200.0f_Vin=1_0_1_0_1_BitTime=10n_Vout.csv'
p174
s((S'16.0'
S'2.4n'
S'4.6p'
tS'3.0p'
g3
g4
I10
S'5.0'
S'____'
S''
tp175
S'../data/transmission_line_10_dropoffs/MultidropBode\\ac_Cdrp=3.0p_Rterm=sqrt(Lline_Cline)_Lenline=5.0_Rline=16.0_Lline=2.4n_Cline=4.6p_Vin=1_0_1_0_1_Vout.csv'
p176
s((S'20.0m'
S'500.0p'
S'200.0f'
tS'1.0p'
g3
g7
I10
S'1.0'
S'_____'
S'=1n'
tp177
S'../data/transmission_line_10_dropoffs/MultidropTransient\\tran_Cdrp=1.0p_Rterm=sqrt(Lline_Cline)_Lenline=1.0_Rline=20.0m_Lline=500.0p_Cline=200.0f_Vin=1_1_1_0_1_1_BitTime=1n_Vout.csv'
p178
s((S'620.0m'
S'3.5n'
S'5.1p'
tS'2.0p'
g3
g4
I10
S'6.0'
S'____'
S'=10n'
tp179
S'../data/transmission_line_10_dropoffs/MultidropBode\\ac_Cdrp=2.0p_Rterm=sqrt(Lline_Cline)_Lenline=6.0_Rline=620.0m_Lline=3.5n_Cline=5.1p_Vin=1_0_1_0_1_BitTime=10n_Vout.csv'
p180
s((S'6.0'
S'2.4n'
S'4.6p'
tS'3.0p'
g3
g7
I10
S'5.0'
S'____'
S''
tp181
S'../data/transmission_line_10_dropoffs/MultidropTransient\\tran_Cdrp=3.0p_Rterm=sqrt(Lline_Cline)_Lenline=5.0_Rline=6.0_Lline=2.4n_Cline=4.6p_Vin=1_0_1_0_1_Vout.csv'
p182
s((S'18.0'
S'2.4n'
S'4.6p'
tS'1.0p'
g3
g4
I10
S'5.0'
S'____'
S''
tp183
S'../data/transmission_line_10_dropoffs/MultidropBode\\ac_Cdrp=1.0p_Rterm=sqrt(Lline_Cline)_Lenline=5.0_Rline=18.0_Lline=2.4n_Cline=4.6p_Vin=1_0_1_0_0_Vout.csv'
p184
s((S'620.0m'
S'2.4n'
S'4.6p'
tS'1.0p'
g3
g7
I10
S'5.0'
S'____'
S''
tp185
S'../data/transmission_line_10_dropoffs/MultidropTransient\\tran_Cdrp=1.0p_Rterm=sqrt(Lline_Cline)_Lenline=5.0_Rline=620.0m_Lline=2.4n_Cline=4.6p_Vin=1_0_1_0_0_Vout.csv'
p186
s((S'11.0'
S'3.0n'
S'5.8p'
tS'3.0p'
g3
g7
I10
S'5.0'
S'______'
S'=3n'
tp187
S'../data/transmission_line_10_dropoffs/MultidropTransient\\tran_Cdrp=3.0p_Rterm=sqrt(Lline_Cline)_Lenline=5.0_Rline=11.0_Lline=3.0n_Cline=5.8p_Vin=0_1_1_0_0_1_0_BitTime=3n_Vout.csv'
p188
s((S'14.0'
S'2.4n'
S'4.6p'
tS'1.0p'
g3
g4
I10
S'5.0'
S'____'
S''
tp189
S'../data/transmission_line_10_dropoffs/MultidropBode\\ac_Cdrp=1.0p_Rterm=sqrt(Lline_Cline)_Lenline=5.0_Rline=14.0_Lline=2.4n_Cline=4.6p_Vin=1_0_1_0_0_Vout.csv'
p190
s((S'4.0'
S'3.0n'
S'5.8p'
tS'3.0p'
g3
g7
I10
S'5.0'
S'______'
S'=3n'
tp191
S'../data/transmission_line_10_dropoffs/MultidropTransient\\tran_Cdrp=3.0p_Rterm=sqrt(Lline_Cline)_Lenline=5.0_Rline=4.0_Lline=3.0n_Cline=5.8p_Vin=0_1_1_0_0_1_0_BitTime=3n_Vout.csv'
p192
s((S'9.0'
S'2.4n'
S'4.6p'
tS'1.0p'
g3
g4
I10
S'5.0'
S'____'
S''
tp193
S'../data/transmission_line_10_dropoffs/MultidropBode\\ac_Cdrp=1.0p_Rterm=sqrt(Lline_Cline)_Lenline=5.0_Rline=9.0_Lline=2.4n_Cline=4.6p_Vin=1_0_1_0_0_Vout.csv'
p194
s((S'18.0'
S'79.0p'
S'220.0f'
tS'3.0p'
g3
g7
I10
S'5.0'
S'____'
S''
tp195
S'../data/transmission_line_10_dropoffs/MultidropTransient\\tran_Cdrp=3.0p_Rterm=sqrt(Lline_Cline)_Lenline=5.0_Rline=18.0_Lline=79.0p_Cline=220.0f_Vin=1_0_1_0_1_Vout.csv'
p196
s((S'420.0m'
S'4.8n'
S'11.2p'
tS'3.0p'
g3
g7
I10
S'5.0'
S'____'
S''
tp197
S'../data/transmission_line_10_dropoffs/MultidropTransient\\tran_Cdrp=3.0p_Rterm=sqrt(Lline_Cline)_Lenline=5.0_Rline=420.0m_Lline=4.8n_Cline=11.2p_Vin=1_0_1_0_1_Vout.csv'
p198
s((S'17.0'
S'79.0p'
S'220.0f'
tS'1.0p'
g3
g7
I10
S'1.0'
S'____'
S''
tp199
S'../data/transmission_line_10_dropoffs/MultidropTransient\\tran_Cdrp=1.0p_Rterm=sqrt(Lline_Cline)_Lenline=1.0_Rline=17.0_Lline=79.0p_Cline=220.0f_Vin=1_0_0_0_0_Vout.csv'
p200
s((S'15.0'
S'4.0n'
S'9.0p'
tS'3.0p'
g3
g4
I10
S'5.0'
S'____'
S''
tp201
S'../data/transmission_line_10_dropoffs/MultidropBode\\ac_Cdrp=3.0p_Rterm=sqrt(Lline_Cline)_Lenline=5.0_Rline=15.0_Lline=4.0n_Cline=9.0p_Vin=1_0_1_0_1_Vout.csv'
p202
s((S'420.0m'
S'2.4n'
S'220.0f'
tS'3.0p'
g3
g4
I10
S'5.0'
S'____'
S''
tp203
S'../data/transmission_line_10_dropoffs/MultidropBode\\ac_Cdrp=3.0p_Rterm=sqrt(Lline_Cline)_Lenline=5.0_Rline=420.0m_Lline=2.4n_Cline=220.0f_Vin=1_0_1_0_0_Vout.csv'
p204
s((S'820.0m'
S'2.4n'
S'220.0f'
tS'3.0p'
g3
g4
I10
S'5.0'
S'____'
S''
tp205
S'../data/transmission_line_10_dropoffs/MultidropBode\\ac_Cdrp=3.0p_Rterm=sqrt(Lline_Cline)_Lenline=5.0_Rline=820.0m_Lline=2.4n_Cline=220.0f_Vin=1_0_1_0_0_Vout.csv'
p206
s((S'620.0m'
S'2.4n'
S'220.0f'
tS'3.0p'
g3
g4
I10
S'5.0'
S'____'
S''
tp207
S'../data/transmission_line_10_dropoffs/MultidropBode\\ac_Cdrp=3.0p_Rterm=sqrt(Lline_Cline)_Lenline=5.0_Rline=620.0m_Lline=2.4n_Cline=220.0f_Vin=1_0_1_0_0_Vout.csv'
p208
s((S'19.0'
S'2.4n'
S'4.6p'
tS'3.0p'
g3
g4
I10
S'5.0'
S'____'
S''
tp209
S'../data/transmission_line_10_dropoffs/MultidropBode\\ac_Cdrp=3.0p_Rterm=sqrt(Lline_Cline)_Lenline=5.0_Rline=19.0_Lline=2.4n_Cline=4.6p_Vin=1_0_1_0_1_Vout.csv'
p210
s((S'2.0'
S'3.5n'
S'5.8p'
tS'3.0p'
g3
g7
I10
S'5.0'
S'____'
S''
tp211
S'../data/transmission_line_10_dropoffs/MultidropTransient\\tran_Cdrp=3.0p_Rterm=sqrt(Lline_Cline)_Lenline=5.0_Rline=2.0_Lline=3.5n_Cline=5.8p_Vin=1_0_1_0_0_Vout.csv'
p212
s((S'4.0'
S'2.0n'
S'3.0p'
tS'1.0p'
g64
g7
I10
S'1.0'
S'10101'
S'10n'
tp213
S'..\\data\\transmission_line_10_dropoffs\\MultidropTransient\\tran_Cdrp=1.0p_Rterm=sqrt(Lline_Cline)_Lenline=1.0_Rline=4.0_Lline=2.0n_Cline=3.0p_Vin=1_0_1_0_1_BitTime=10n_Vout.csv'
p214
s((S'11.0'
S'2.0n'
S'3.0p'
tS'1.0p'
g64
g4
I10
S'1.0'
S'10101'
S'10n'
tp215
S'..\\data\\transmission_line_10_dropoffs\\MultidropBode\\ac_Cdrp=1.0p_Rterm=sqrt(Lline_Cline)_Lenline=1.0_Rline=11.0_Lline=2.0n_Cline=3.0p_Vin=1_0_1_0_1_BitTime=10n_Vout.csv'
p216
s((S'14.0'
S'3.0n'
S'5.8p'
tS'3.0p'
g3
g4
I10
S'5.0'
S'______'
S'=3n'
tp217
S'../data/transmission_line_10_dropoffs/MultidropBode\\ac_Cdrp=3.0p_Rterm=sqrt(Lline_Cline)_Lenline=5.0_Rline=14.0_Lline=3.0n_Cline=5.8p_Vin=0_1_1_0_0_1_0_BitTime=3n_Vout.csv'
p218
s((S'7.0'
S'79.0p'
S'220.0f'
tS'1.0p'
g3
g7
I10
S'1.0'
S'____'
S''
tp219
S'../data/transmission_line_10_dropoffs/MultidropTransient\\tran_Cdrp=1.0p_Rterm=sqrt(Lline_Cline)_Lenline=1.0_Rline=7.0_Lline=79.0p_Cline=220.0f_Vin=1_0_0_0_0_Vout.csv'
p220
s((S'820.0m'
S'3.5n'
S'5.8p'
tS'3.0p'
g3
g4
I10
S'5.0'
S'____'
S''
tp221
S'../data/transmission_line_10_dropoffs/MultidropBode\\ac_Cdrp=3.0p_Rterm=sqrt(Lline_Cline)_Lenline=5.0_Rline=820.0m_Lline=3.5n_Cline=5.8p_Vin=1_0_1_0_0_Vout.csv'
p222
s((S'8.0'
S'79.0p'
S'220.0f'
tS'3.0p'
g3
g7
I10
S'5.0'
S'____'
S''
tp223
S'../data/transmission_line_10_dropoffs/MultidropTransient\\tran_Cdrp=3.0p_Rterm=sqrt(Lline_Cline)_Lenline=5.0_Rline=8.0_Lline=79.0p_Cline=220.0f_Vin=1_0_1_0_1_Vout.csv'
p224
s((S'17.0'
S'2.4n'
S'4.6p'
tS'3.0p'
g3
g7
I10
S'5.0'
S'____'
S''
tp225
S'../data/transmission_line_10_dropoffs/MultidropTransient\\tran_Cdrp=3.0p_Rterm=sqrt(Lline_Cline)_Lenline=5.0_Rline=17.0_Lline=2.4n_Cline=4.6p_Vin=1_0_1_0_1_Vout.csv'
p226
s((S'14.0'
S'2.0n'
S'3.0p'
tS'1.0p'
g64
g7
I10
S'1.0'
S'10101'
S'10n'
tp227
S'..\\data\\transmission_line_10_dropoffs\\MultidropTransient\\tran_Cdrp=1.0p_Rterm=sqrt(Lline_Cline)_Lenline=1.0_Rline=14.0_Lline=2.0n_Cline=3.0p_Vin=1_0_1_0_1_BitTime=10n_Vout.csv'
p228
s((S'6.0'
S'3.5n'
S'5.8p'
tS'3.0p'
g3
g4
I10
S'5.0'
S'____'
S''
tp229
S'../data/transmission_line_10_dropoffs/MultidropBode\\ac_Cdrp=3.0p_Rterm=sqrt(Lline_Cline)_Lenline=5.0_Rline=6.0_Lline=3.5n_Cline=5.8p_Vin=1_0_1_0_0_Vout.csv'
p230
s((S'5.0'
S'2.4n'
S'4.6p'
tS'3.0p'
g3
g7
I10
S'5.0'
S'____'
S''
tp231
S'../data/transmission_line_10_dropoffs/MultidropTransient\\tran_Cdrp=3.0p_Rterm=sqrt(Lline_Cline)_Lenline=5.0_Rline=5.0_Lline=2.4n_Cline=4.6p_Vin=1_0_1_0_1_Vout.csv'
p232
s((S'20.0m'
S'79.0p'
S'220.0f'
tS'1.0p'
g3
g4
I10
S'1.0'
S'____'
S''
tp233
S'../data/transmission_line_10_dropoffs/MultidropBode\\ac_Cdrp=1.0p_Rterm=sqrt(Lline_Cline)_Lenline=1.0_Rline=20.0m_Lline=79.0p_Cline=220.0f_Vin=1_0_1_0_0_Vout.csv'
p234
s((S'5.0'
S'4.0n'
S'9.0p'
tS'3.0p'
g3
g7
I10
S'5.0'
S'____'
S''
tp235
S'../data/transmission_line_10_dropoffs/MultidropTransient\\tran_Cdrp=3.0p_Rterm=sqrt(Lline_Cline)_Lenline=5.0_Rline=5.0_Lline=4.0n_Cline=9.0p_Vin=1_0_1_0_1_Vout.csv'
p236
s((S'820.0m'
S'4.0n'
S'9.0p'
tS'3.0p'
g3
g7
I10
S'5.0'
S'____'
S''
tp237
S'../data/transmission_line_10_dropoffs/MultidropTransient\\tran_Cdrp=3.0p_Rterm=sqrt(Lline_Cline)_Lenline=5.0_Rline=820.0m_Lline=4.0n_Cline=9.0p_Vin=1_0_1_0_1_Vout.csv'
p238
s((S'9.0'
S'2.0n'
S'3.0p'
tS'1.0p'
g64
g7
I10
S'1.0'
S'10101'
S'10n'
tp239
S'..\\data\\transmission_line_10_dropoffs\\MultidropTransient\\tran_Cdrp=1.0p_Rterm=sqrt(Lline_Cline)_Lenline=1.0_Rline=9.0_Lline=2.0n_Cline=3.0p_Vin=1_0_1_0_1_BitTime=10n_Vout.csv'
p240
s((S'9.0'
S'79.0p'
S'220.0f'
tS'3.0p'
g3
g4
I10
S'5.0'
S'____'
S''
tp241
S'../data/transmission_line_10_dropoffs/MultidropBode\\ac_Cdrp=3.0p_Rterm=sqrt(Lline_Cline)_Lenline=5.0_Rline=9.0_Lline=79.0p_Cline=220.0f_Vin=1_0_1_0_1_Vout.csv'
p242
s((S'7.0'
S'79.0p'
S'220.0f'
tS'3.0p'
g3
g4
I10
S'5.0'
S'____'
S''
tp243
S'../data/transmission_line_10_dropoffs/MultidropBode\\ac_Cdrp=3.0p_Rterm=sqrt(Lline_Cline)_Lenline=5.0_Rline=7.0_Lline=79.0p_Cline=220.0f_Vin=1_0_1_0_1_Vout.csv'
p244
s((S'420.0m'
S'3.2n'
S'11.2p'
tS'3.0p'
g3
g7
I10
S'5.0'
S'____'
S''
tp245
S'../data/transmission_line_10_dropoffs/MultidropTransient\\tran_Cdrp=3.0p_Rterm=sqrt(Lline_Cline)_Lenline=5.0_Rline=420.0m_Lline=3.2n_Cline=11.2p_Vin=1_0_1_0_1_Vout.csv'
p246
s((S'5.0'
S'79.0p'
S'220.0f'
tS'3.0p'
g3
g4
I10
S'5.0'
S'____'
S''
tp247
S'../data/transmission_line_10_dropoffs/MultidropBode\\ac_Cdrp=3.0p_Rterm=sqrt(Lline_Cline)_Lenline=5.0_Rline=5.0_Lline=79.0p_Cline=220.0f_Vin=1_0_1_0_1_Vout.csv'
p248
s((S'16.0'
S'3.0n'
S'5.8p'
tS'3.0p'
g3
g4
I10
S'5.0'
S'______'
S'=3n'
tp249
S'../data/transmission_line_10_dropoffs/MultidropBode\\ac_Cdrp=3.0p_Rterm=sqrt(Lline_Cline)_Lenline=5.0_Rline=16.0_Lline=3.0n_Cline=5.8p_Vin=0_1_1_0_0_1_0_BitTime=3n_Vout.csv'
p250
s((S'620.0m'
S'2.4n'
S'4.6p'
tS'3.0p'
g3
g7
I10
S'5.0'
S'____'
S''
tp251
S'../data/transmission_line_10_dropoffs/MultidropTransient\\tran_Cdrp=3.0p_Rterm=sqrt(Lline_Cline)_Lenline=5.0_Rline=620.0m_Lline=2.4n_Cline=4.6p_Vin=1_0_1_0_1_Vout.csv'
p252
s((S'19.0'
S'3.5n'
S'5.1p'
tS'2.0p'
g3
g7
I10
S'6.0'
S'____'
S'=10n'
tp253
S'../data/transmission_line_10_dropoffs/MultidropTransient\\tran_Cdrp=2.0p_Rterm=sqrt(Lline_Cline)_Lenline=6.0_Rline=19.0_Lline=3.5n_Cline=5.1p_Vin=1_0_1_0_1_BitTime=10n_Vout.csv'
p254
s((S'5.0'
S'4.0n'
S'9.0p'
tS'3.0p'
g3
g4
I10
S'5.0'
S'____'
S''
tp255
S'../data/transmission_line_10_dropoffs/MultidropBode\\ac_Cdrp=3.0p_Rterm=sqrt(Lline_Cline)_Lenline=5.0_Rline=5.0_Lline=4.0n_Cline=9.0p_Vin=1_0_1_0_1_Vout.csv'
p256
s((S'6.0'
S'3.0n'
S'5.8p'
tS'3.0p'
g3
g7
I10
S'5.0'
S'______'
S'=3n'
tp257
S'../data/transmission_line_10_dropoffs/MultidropTransient\\tran_Cdrp=3.0p_Rterm=sqrt(Lline_Cline)_Lenline=5.0_Rline=6.0_Lline=3.0n_Cline=5.8p_Vin=0_1_1_0_0_1_0_BitTime=3n_Vout.csv'
p258
s((S'220.0m'
S'4.0n'
S'9.0p'
tS'3.0p'
g3
g7
I10
S'5.0'
S'____'
S''
tp259
S'../data/transmission_line_10_dropoffs/MultidropTransient\\tran_Cdrp=3.0p_Rterm=sqrt(Lline_Cline)_Lenline=5.0_Rline=220.0m_Lline=4.0n_Cline=9.0p_Vin=1_0_1_0_1_Vout.csv'
p260
s((S'6.0'
S'3.5n'
S'5.1p'
tS'2.0p'
g3
g7
I10
S'6.0'
S'____'
S'=5n'
tp261
S'../data/transmission_line_10_dropoffs/MultidropTransient\\tran_Cdrp=2.0p_Rterm=sqrt(Lline_Cline)_Lenline=6.0_Rline=6.0_Lline=3.5n_Cline=5.1p_Vin=1_0_1_0_1_BitTime=5n_Vout.csv'
p262
s((S'1.2'
S'2.4n'
S'220.0f'
tS'3.0p'
g3
g4
I10
S'5.0'
S'____'
S''
tp263
S'../data/transmission_line_10_dropoffs/MultidropBode\\ac_Cdrp=3.0p_Rterm=sqrt(Lline_Cline)_Lenline=5.0_Rline=1.2_Lline=2.4n_Cline=220.0f_Vin=1_0_1_0_0_Vout.csv'
p264
s((S'200.0m'
S'7.9n'
S'10.0p'
tS'3.0p'
g3
g7
I10
S'5.0'
S'______'
S'=5n'
tp265
S'../data/transmission_line_10_dropoffs/MultidropTransient\\tran_Cdrp=3.0p_Rterm=sqrt(Lline_Cline)_Lenline=5.0_Rline=200.0m_Lline=7.9n_Cline=10.0p_Vin=1_1_1_0_1_1_0_BitTime=5n_Vout.csv'
p266
s((S'15.0'
S'3.5n'
S'5.1p'
tS'2.0p'
g3
g7
I10
S'6.0'
S'____'
S'=5n'
tp267
S'../data/transmission_line_10_dropoffs/MultidropTransient\\tran_Cdrp=2.0p_Rterm=sqrt(Lline_Cline)_Lenline=6.0_Rline=15.0_Lline=3.5n_Cline=5.1p_Vin=1_0_1_0_1_BitTime=5n_Vout.csv'
p268
s((S'18.0'
S'79.0p'
S'220.0f'
tS'1.0p'
g3
g7
I10
S'1.0'
S'____'
S''
tp269
S'../data/transmission_line_10_dropoffs/MultidropTransient\\tran_Cdrp=1.0p_Rterm=sqrt(Lline_Cline)_Lenline=1.0_Rline=18.0_Lline=79.0p_Cline=220.0f_Vin=1_0_0_0_0_Vout.csv'
p270
s((S'18.0'
S'3.5n'
S'5.8p'
tS'3.0p'
g3
g7
I10
S'5.0'
S'____'
S''
tp271
S'../data/transmission_line_10_dropoffs/MultidropTransient\\tran_Cdrp=3.0p_Rterm=sqrt(Lline_Cline)_Lenline=5.0_Rline=18.0_Lline=3.5n_Cline=5.8p_Vin=1_0_1_0_0_Vout.csv'
p272
s((S'20.0m'
S'3.5n'
S'5.8p'
tS'3.0p'
g3
g4
I10
S'5.0'
S'____'
S''
tp273
S'../data/transmission_line_10_dropoffs/MultidropBode\\ac_Cdrp=3.0p_Rterm=sqrt(Lline_Cline)_Lenline=5.0_Rline=20.0m_Lline=3.5n_Cline=5.8p_Vin=1_0_1_0_0_Vout.csv'
p274
s((S'8.0'
S'3.5n'
S'5.8p'
tS'3.0p'
g3
g4
I10
S'5.0'
S'____'
S''
tp275
S'../data/transmission_line_10_dropoffs/MultidropBode\\ac_Cdrp=3.0p_Rterm=sqrt(Lline_Cline)_Lenline=5.0_Rline=8.0_Lline=3.5n_Cline=5.8p_Vin=1_0_1_0_0_Vout.csv'
p276
s((S'16.0'
S'3.5n'
S'5.8p'
tS'3.0p'
g3
g7
I10
S'5.0'
S'____'
S''
tp277
S'../data/transmission_line_10_dropoffs/MultidropTransient\\tran_Cdrp=3.0p_Rterm=sqrt(Lline_Cline)_Lenline=5.0_Rline=16.0_Lline=3.5n_Cline=5.8p_Vin=1_0_1_0_0_Vout.csv'
p278
s((S'20.0'
S'3.5n'
S'5.1p'
tS'2.0p'
g3
g4
I10
S'6.0'
S'____'
S'=5n'
tp279
S'../data/transmission_line_10_dropoffs/MultidropBode\\ac_Cdrp=2.0p_Rterm=sqrt(Lline_Cline)_Lenline=6.0_Rline=20.0_Lline=3.5n_Cline=5.1p_Vin=1_0_1_0_1_BitTime=5n_Vout.csv'
p280
s((S'8.0'
S'3.5n'
S'5.1p'
tS'2.0p'
g3
g4
I10
S'6.0'
S'____'
S'=10n'
tp281
S'../data/transmission_line_10_dropoffs/MultidropBode\\ac_Cdrp=2.0p_Rterm=sqrt(Lline_Cline)_Lenline=6.0_Rline=8.0_Lline=3.5n_Cline=5.1p_Vin=1_0_1_0_1_BitTime=10n_Vout.csv'
p282
s((S'18.0'
S'2.4n'
S'4.6p'
tS'1.0p'
g3
g7
I10
S'5.0'
S'____'
S''
tp283
S'../data/transmission_line_10_dropoffs/MultidropTransient\\tran_Cdrp=1.0p_Rterm=sqrt(Lline_Cline)_Lenline=5.0_Rline=18.0_Lline=2.4n_Cline=4.6p_Vin=1_0_1_0_0_Vout.csv'
p284
s((S'11.0'
S'79.0p'
S'220.0f'
tS'3.0p'
g3
g4
I10
S'5.0'
S'____'
S''
tp285
S'../data/transmission_line_10_dropoffs/MultidropBode\\ac_Cdrp=3.0p_Rterm=sqrt(Lline_Cline)_Lenline=5.0_Rline=11.0_Lline=79.0p_Cline=220.0f_Vin=1_0_1_0_1_Vout.csv'
p286
s((S'19.0'
S'2.0n'
S'3.0p'
tS'1.0p'
g64
g4
I10
S'1.0'
S'10101'
S'10n'
tp287
S'..\\data\\transmission_line_10_dropoffs\\MultidropBode\\ac_Cdrp=1.0p_Rterm=sqrt(Lline_Cline)_Lenline=1.0_Rline=19.0_Lline=2.0n_Cline=3.0p_Vin=1_0_1_0_1_BitTime=10n_Vout.csv'
p288
s((S'620.0m'
S'79.0p'
S'220.0f'
tS'3.0p'
g3
g7
I10
S'5.0'
S'____'
S''
tp289
S'../data/transmission_line_10_dropoffs/MultidropTransient\\tran_Cdrp=3.0p_Rterm=sqrt(Lline_Cline)_Lenline=5.0_Rline=620.0m_Lline=79.0p_Cline=220.0f_Vin=1_0_1_0_1_Vout.csv'
p290
s((S'420.0m'
S'5.6n'
S'11.2p'
tS'3.0p'
g3
g7
I10
S'5.0'
S'____'
S''
tp291
S'../data/transmission_line_10_dropoffs/MultidropTransient\\tran_Cdrp=3.0p_Rterm=sqrt(Lline_Cline)_Lenline=5.0_Rline=420.0m_Lline=5.6n_Cline=11.2p_Vin=1_0_1_0_1_Vout.csv'
p292
s((S'13.0'
S'4.0n'
S'9.0p'
tS'3.0p'
g3
g4
I10
S'5.0'
S'____'
S''
tp293
S'../data/transmission_line_10_dropoffs/MultidropBode\\ac_Cdrp=3.0p_Rterm=sqrt(Lline_Cline)_Lenline=5.0_Rline=13.0_Lline=4.0n_Cline=9.0p_Vin=1_0_1_0_1_Vout.csv'
p294
s((S'20.0m'
S'3.0n'
S'5.8p'
tS'3.0p'
g3
g7
I10
S'5.0'
S'______'
S'=3n'
tp295
S'../data/transmission_line_10_dropoffs/MultidropTransient\\tran_Cdrp=3.0p_Rterm=sqrt(Lline_Cline)_Lenline=5.0_Rline=20.0m_Lline=3.0n_Cline=5.8p_Vin=0_1_1_0_0_1_0_BitTime=3n_Vout.csv'
p296
s((S'2.0'
S'3.5n'
S'5.1p'
tS'2.0p'
g3
g7
I10
S'6.0'
S'____'
S'=5n'
tp297
S'../data/transmission_line_10_dropoffs/MultidropTransient\\tran_Cdrp=2.0p_Rterm=sqrt(Lline_Cline)_Lenline=6.0_Rline=2.0_Lline=3.5n_Cline=5.1p_Vin=1_0_1_0_1_BitTime=5n_Vout.csv'
p298
s((S'6.0'
S'2.4n'
S'4.6p'
tS'1.0p'
g3
g4
I10
S'5.0'
S'____'
S''
tp299
S'../data/transmission_line_10_dropoffs/MultidropBode\\ac_Cdrp=1.0p_Rterm=sqrt(Lline_Cline)_Lenline=5.0_Rline=6.0_Lline=2.4n_Cline=4.6p_Vin=1_0_1_0_0_Vout.csv'
p300
s((S'17.0'
S'2.4n'
S'220.0f'
tS'3.0p'
g3
g4
I10
S'5.0'
S'____'
S''
tp301
S'../data/transmission_line_10_dropoffs/MultidropBode\\ac_Cdrp=3.0p_Rterm=sqrt(Lline_Cline)_Lenline=5.0_Rline=17.0_Lline=2.4n_Cline=220.0f_Vin=1_0_1_0_0_Vout.csv'
p302
s((S'420.0m'
S'3.0n'
S'5.8p'
tS'3.0p'
g3
g4
I10
S'5.0'
S'______'
S'=3n'
tp303
S'../data/transmission_line_10_dropoffs/MultidropBode\\ac_Cdrp=3.0p_Rterm=sqrt(Lline_Cline)_Lenline=5.0_Rline=420.0m_Lline=3.0n_Cline=5.8p_Vin=0_1_1_0_0_1_0_BitTime=3n_Vout.csv'
p304
s((S'9.0'
S'3.5n'
S'5.8p'
tS'3.0p'
g3
g7
I10
S'5.0'
S'____'
S''
tp305
S'../data/transmission_line_10_dropoffs/MultidropTransient\\tran_Cdrp=3.0p_Rterm=sqrt(Lline_Cline)_Lenline=5.0_Rline=9.0_Lline=3.5n_Cline=5.8p_Vin=1_0_1_0_0_Vout.csv'
p306
s((S'820.0m'
S'3.0n'
S'5.8p'
tS'3.0p'
g3
g4
I10
S'5.0'
S'______'
S'=3n'
tp307
S'../data/transmission_line_10_dropoffs/MultidropBode\\ac_Cdrp=3.0p_Rterm=sqrt(Lline_Cline)_Lenline=5.0_Rline=820.0m_Lline=3.0n_Cline=5.8p_Vin=0_1_1_0_0_1_0_BitTime=3n_Vout.csv'
p308
s((S'14.0'
S'3.5n'
S'5.1p'
tS'2.0p'
g3
g4
I10
S'6.0'
S'____'
S'=10n'
tp309
S'../data/transmission_line_10_dropoffs/MultidropBode\\ac_Cdrp=2.0p_Rterm=sqrt(Lline_Cline)_Lenline=6.0_Rline=14.0_Lline=3.5n_Cline=5.1p_Vin=1_0_1_0_1_BitTime=10n_Vout.csv'
p310
s((S'20.0'
S'3.5n'
S'5.1p'
tS'2.0p'
g3
g4
I10
S'6.0'
S'____'
S'=10n'
tp311
S'../data/transmission_line_10_dropoffs/MultidropBode\\ac_Cdrp=2.0p_Rterm=sqrt(Lline_Cline)_Lenline=6.0_Rline=20.0_Lline=3.5n_Cline=5.1p_Vin=1_0_1_0_1_BitTime=10n_Vout.csv'
p312
s((S'1.8'
S'2.4n'
S'4.6p'
tS'3.0p'
g3
g7
I10
S'5.0'
S'____'
S''
tp313
S'../data/transmission_line_10_dropoffs/MultidropTransient\\tran_Cdrp=3.0p_Rterm=sqrt(Lline_Cline)_Lenline=5.0_Rline=1.8_Lline=2.4n_Cline=4.6p_Vin=1_0_1_0_1_Vout.csv'
p314
s((S'11.0'
S'3.5n'
S'5.1p'
tS'2.0p'
g3
g7
I10
S'6.0'
S'____'
S'=5n'
tp315
S'../data/transmission_line_10_dropoffs/MultidropTransient\\tran_Cdrp=2.0p_Rterm=sqrt(Lline_Cline)_Lenline=6.0_Rline=11.0_Lline=3.5n_Cline=5.1p_Vin=1_0_1_0_1_BitTime=5n_Vout.csv'
p316
s((S'12.0'
S'2.4n'
S'4.6p'
tS'3.0p'
g3
g7
I10
S'5.0'
S'____'
S''
tp317
S'../data/transmission_line_10_dropoffs/MultidropTransient\\tran_Cdrp=3.0p_Rterm=sqrt(Lline_Cline)_Lenline=5.0_Rline=12.0_Lline=2.4n_Cline=4.6p_Vin=1_0_1_0_1_Vout.csv'
p318
s((S'1.8'
S'4.0n'
S'9.0p'
tS'3.0p'
g3
g7
I10
S'5.0'
S'____'
S''
tp319
S'../data/transmission_line_10_dropoffs/MultidropTransient\\tran_Cdrp=3.0p_Rterm=sqrt(Lline_Cline)_Lenline=5.0_Rline=1.8_Lline=4.0n_Cline=9.0p_Vin=1_0_1_0_1_Vout.csv'
p320
s((S'14.0'
S'2.4n'
S'220.0f'
tS'3.0p'
g3
g7
I10
S'5.0'
S'____'
S''
tp321
S'../data/transmission_line_10_dropoffs/MultidropTransient\\tran_Cdrp=3.0p_Rterm=sqrt(Lline_Cline)_Lenline=5.0_Rline=14.0_Lline=2.4n_Cline=220.0f_Vin=1_0_1_0_0_Vout.csv'
p322
s((S'6.0'
S'79.0p'
S'220.0f'
tS'1.0p'
g3
g4
I10
S'1.0'
S'____'
S''
tp323
S'../data/transmission_line_10_dropoffs/MultidropBode\\ac_Cdrp=1.0p_Rterm=sqrt(Lline_Cline)_Lenline=1.0_Rline=6.0_Lline=79.0p_Cline=220.0f_Vin=1_0_0_0_0_Vout.csv'
p324
s((S'1.2'
S'2.4n'
S'4.6p'
tS'3.0p'
g3
g7
I10
S'5.0'
S'____'
S''
tp325
S'../data/transmission_line_10_dropoffs/MultidropTransient\\tran_Cdrp=3.0p_Rterm=sqrt(Lline_Cline)_Lenline=5.0_Rline=1.2_Lline=2.4n_Cline=4.6p_Vin=1_0_1_0_1_Vout.csv'
p326
s((S'19.0'
S'3.5n'
S'5.1p'
tS'2.0p'
g3
g7
I10
S'6.0'
S'____'
S'=5n'
tp327
S'../data/transmission_line_10_dropoffs/MultidropTransient\\tran_Cdrp=2.0p_Rterm=sqrt(Lline_Cline)_Lenline=6.0_Rline=19.0_Lline=3.5n_Cline=5.1p_Vin=1_0_1_0_1_BitTime=5n_Vout.csv'
p328
s((S'10.0'
S'3.0n'
S'5.8p'
tS'3.0p'
g3
g7
I10
S'5.0'
S'______'
S'=3n'
tp329
S'../data/transmission_line_10_dropoffs/MultidropTransient\\tran_Cdrp=3.0p_Rterm=sqrt(Lline_Cline)_Lenline=5.0_Rline=10.0_Lline=3.0n_Cline=5.8p_Vin=0_1_1_0_0_1_0_BitTime=3n_Vout.csv'
p330
s((S'17.0'
S'4.0n'
S'9.0p'
tS'3.0p'
g3
g7
I10
S'5.0'
S'____'
S''
tp331
S'../data/transmission_line_10_dropoffs/MultidropTransient\\tran_Cdrp=3.0p_Rterm=sqrt(Lline_Cline)_Lenline=5.0_Rline=17.0_Lline=4.0n_Cline=9.0p_Vin=1_0_1_0_1_Vout.csv'
p332
s((S'11.0'
S'2.4n'
S'4.6p'
tS'3.0p'
g3
g7
I10
S'5.0'
S'____'
S''
tp333
S'../data/transmission_line_10_dropoffs/MultidropTransient\\tran_Cdrp=3.0p_Rterm=sqrt(Lline_Cline)_Lenline=5.0_Rline=11.0_Lline=2.4n_Cline=4.6p_Vin=1_0_1_0_1_Vout.csv'
p334
s((S'12.0'
S'4.0n'
S'9.0p'
tS'3.0p'
g3
g4
I10
S'5.0'
S'____'
S''
tp335
S'../data/transmission_line_10_dropoffs/MultidropBode\\ac_Cdrp=3.0p_Rterm=sqrt(Lline_Cline)_Lenline=5.0_Rline=12.0_Lline=4.0n_Cline=9.0p_Vin=1_0_1_0_1_Vout.csv'
p336
s((S'7.0'
S'3.5n'
S'5.8p'
tS'3.0p'
g3
g4
I10
S'5.0'
S'____'
S''
tp337
S'../data/transmission_line_10_dropoffs/MultidropBode\\ac_Cdrp=3.0p_Rterm=sqrt(Lline_Cline)_Lenline=5.0_Rline=7.0_Lline=3.5n_Cline=5.8p_Vin=1_0_1_0_0_Vout.csv'
p338
s((S'220.0m'
S'2.0n'
S'3.0p'
tS'1.0p'
g64
g4
I10
S'1.0'
S'10101'
S'10n'
tp339
S'..\\data\\transmission_line_10_dropoffs\\MultidropBode\\ac_Cdrp=1.0p_Rterm=sqrt(Lline_Cline)_Lenline=1.0_Rline=220.0m_Lline=2.0n_Cline=3.0p_Vin=1_0_1_0_1_BitTime=10n_Vout.csv'
p340
s((S'3.0'
S'3.5n'
S'5.1p'
tS'2.0p'
g3
g7
I10
S'6.0'
S'____'
S'=10n'
tp341
S'../data/transmission_line_10_dropoffs/MultidropTransient\\tran_Cdrp=2.0p_Rterm=sqrt(Lline_Cline)_Lenline=6.0_Rline=3.0_Lline=3.5n_Cline=5.1p_Vin=1_0_1_0_1_BitTime=10n_Vout.csv'
p342
s((S'3.0'
S'2.4n'
S'4.6p'
tS'3.0p'
g3
g4
I10
S'5.0'
S'____'
S''
tp343
S'../data/transmission_line_10_dropoffs/MultidropBode\\ac_Cdrp=3.0p_Rterm=sqrt(Lline_Cline)_Lenline=5.0_Rline=3.0_Lline=2.4n_Cline=4.6p_Vin=1_0_1_0_1_Vout.csv'
p344
s((S'5.0'
S'2.4n'
S'4.6p'
tS'3.0p'
g3
g4
I10
S'5.0'
S'____'
S''
tp345
S'../data/transmission_line_10_dropoffs/MultidropBode\\ac_Cdrp=3.0p_Rterm=sqrt(Lline_Cline)_Lenline=5.0_Rline=5.0_Lline=2.4n_Cline=4.6p_Vin=1_0_1_0_1_Vout.csv'
p346
s((S'1.8'
S'79.0p'
S'220.0f'
tS'3.0p'
g3
g4
I10
S'5.0'
S'____'
S''
tp347
S'../data/transmission_line_10_dropoffs/MultidropBode\\ac_Cdrp=3.0p_Rterm=sqrt(Lline_Cline)_Lenline=5.0_Rline=1.8_Lline=79.0p_Cline=220.0f_Vin=1_0_1_0_1_Vout.csv'
p348
s((S'420.0m'
S'869.0p'
S'11.2p'
tS'3.0p'
g3
g7
I10
S'5.0'
S'____'
S''
tp349
S'../data/transmission_line_10_dropoffs/MultidropTransient\\tran_Cdrp=3.0p_Rterm=sqrt(Lline_Cline)_Lenline=5.0_Rline=420.0m_Lline=869.0p_Cline=11.2p_Vin=1_0_1_0_1_Vout.csv'
p350
s((S'7.0'
S'4.0n'
S'9.0p'
tS'3.0p'
g3
g4
I10
S'5.0'
S'____'
S''
tp351
S'../data/transmission_line_10_dropoffs/MultidropBode\\ac_Cdrp=3.0p_Rterm=sqrt(Lline_Cline)_Lenline=5.0_Rline=7.0_Lline=4.0n_Cline=9.0p_Vin=1_0_1_0_1_Vout.csv'
p352
s((S'20.0'
S'3.5n'
S'5.1p'
tS'2.0p'
g3
g7
I10
S'6.0'
S'____'
S'=10n'
tp353
S'../data/transmission_line_10_dropoffs/MultidropTransient\\tran_Cdrp=2.0p_Rterm=sqrt(Lline_Cline)_Lenline=6.0_Rline=20.0_Lline=3.5n_Cline=5.1p_Vin=1_0_1_0_1_BitTime=10n_Vout.csv'
p354
s((S'11.0'
S'2.4n'
S'4.6p'
tS'1.0p'
g3
g4
I10
S'5.0'
S'____'
S''
tp355
S'../data/transmission_line_10_dropoffs/MultidropBode\\ac_Cdrp=1.0p_Rterm=sqrt(Lline_Cline)_Lenline=5.0_Rline=11.0_Lline=2.4n_Cline=4.6p_Vin=1_0_1_0_0_Vout.csv'
p356
s((S'18.0'
S'2.4n'
S'4.6p'
tS'3.0p'
g3
g4
I10
S'5.0'
S'____'
S''
tp357
S'../data/transmission_line_10_dropoffs/MultidropBode\\ac_Cdrp=3.0p_Rterm=sqrt(Lline_Cline)_Lenline=5.0_Rline=18.0_Lline=2.4n_Cline=4.6p_Vin=1_0_1_0_1_Vout.csv'
p358
s((S'1.6'
S'79.0p'
S'220.0f'
tS'3.0p'
g3
g4
I10
S'5.0'
S'____'
S''
tp359
S'../data/transmission_line_10_dropoffs/MultidropBode\\ac_Cdrp=3.0p_Rterm=sqrt(Lline_Cline)_Lenline=5.0_Rline=1.6_Lline=79.0p_Cline=220.0f_Vin=1_0_1_0_1_Vout.csv'
p360
s((S'820.0m'
S'2.4n'
S'4.6p'
tS'3.0p'
g3
g7
I10
S'5.0'
S'____'
S''
tp361
S'../data/transmission_line_10_dropoffs/MultidropTransient\\tran_Cdrp=3.0p_Rterm=sqrt(Lline_Cline)_Lenline=5.0_Rline=820.0m_Lline=2.4n_Cline=4.6p_Vin=1_0_1_0_1_Vout.csv'
p362
s((S'13.0'
S'79.0p'
S'220.0f'
tS'3.0p'
g3
g7
I10
S'5.0'
S'____'
S''
tp363
S'../data/transmission_line_10_dropoffs/MultidropTransient\\tran_Cdrp=3.0p_Rterm=sqrt(Lline_Cline)_Lenline=5.0_Rline=13.0_Lline=79.0p_Cline=220.0f_Vin=1_0_1_0_1_Vout.csv'
p364
s((S'12.0'
S'3.5n'
S'5.1p'
tS'2.0p'
g3
g4
I10
S'6.0'
S'____'
S'=10n'
tp365
S'../data/transmission_line_10_dropoffs/MultidropBode\\ac_Cdrp=2.0p_Rterm=sqrt(Lline_Cline)_Lenline=6.0_Rline=12.0_Lline=3.5n_Cline=5.1p_Vin=1_0_1_0_1_BitTime=10n_Vout.csv'
p366
s((S'13.0'
S'3.5n'
S'5.1p'
tS'2.0p'
g3
g7
I10
S'6.0'
S'____'
S'=5n'
tp367
S'../data/transmission_line_10_dropoffs/MultidropTransient\\tran_Cdrp=2.0p_Rterm=sqrt(Lline_Cline)_Lenline=6.0_Rline=13.0_Lline=3.5n_Cline=5.1p_Vin=1_0_1_0_1_BitTime=5n_Vout.csv'
p368
s((S'19.0'
S'2.0n'
S'3.0p'
tS'1.0p'
g64
g7
I10
S'1.0'
S'10101'
S'10n'
tp369
S'..\\data\\transmission_line_10_dropoffs\\MultidropTransient\\tran_Cdrp=1.0p_Rterm=sqrt(Lline_Cline)_Lenline=1.0_Rline=19.0_Lline=2.0n_Cline=3.0p_Vin=1_0_1_0_1_BitTime=10n_Vout.csv'
p370
s((S'18.0'
S'2.0n'
S'3.0p'
tS'1.0p'
g64
g7
I10
S'1.0'
S'10101'
S'10n'
tp371
S'..\\data\\transmission_line_10_dropoffs\\MultidropTransient\\tran_Cdrp=1.0p_Rterm=sqrt(Lline_Cline)_Lenline=1.0_Rline=18.0_Lline=2.0n_Cline=3.0p_Vin=1_0_1_0_1_BitTime=10n_Vout.csv'
p372
s((S'420.0m'
S'2.4n'
S'4.6p'
tS'3.0p'
g3
g7
I10
S'5.0'
S'____'
S''
tp373
S'../data/transmission_line_10_dropoffs/MultidropTransient\\tran_Cdrp=3.0p_Rterm=sqrt(Lline_Cline)_Lenline=5.0_Rline=420.0m_Lline=2.4n_Cline=4.6p_Vin=1_0_1_0_1_Vout.csv'
p374
s((S'220.0m'
S'3.0n'
S'5.8p'
tS'3.0p'
g3
g4
I10
S'5.0'
S'______'
S'=3n'
tp375
S'../data/transmission_line_10_dropoffs/MultidropBode\\ac_Cdrp=3.0p_Rterm=sqrt(Lline_Cline)_Lenline=5.0_Rline=220.0m_Lline=3.0n_Cline=5.8p_Vin=0_1_1_0_0_1_0_BitTime=3n_Vout.csv'
p376
s((S'17.0'
S'3.5n'
S'5.8p'
tS'3.0p'
g3
g4
I10
S'5.0'
S'____'
S''
tp377
S'../data/transmission_line_10_dropoffs/MultidropBode\\ac_Cdrp=3.0p_Rterm=sqrt(Lline_Cline)_Lenline=5.0_Rline=17.0_Lline=3.5n_Cline=5.8p_Vin=1_0_1_0_0_Vout.csv'
p378
s((S'8.0'
S'4.0n'
S'9.0p'
tS'3.0p'
g3
g4
I10
S'5.0'
S'____'
S''
tp379
S'../data/transmission_line_10_dropoffs/MultidropBode\\ac_Cdrp=3.0p_Rterm=sqrt(Lline_Cline)_Lenline=5.0_Rline=8.0_Lline=4.0n_Cline=9.0p_Vin=1_0_1_0_1_Vout.csv'
p380
s((S'20.0m'
S'79.0p'
S'220.0f'
tS'3.0p'
g3
g7
I10
S'5.0'
S'____'
S''
tp381
S'../data/transmission_line_10_dropoffs/MultidropTransient\\tran_Cdrp=3.0p_Rterm=sqrt(Lline_Cline)_Lenline=5.0_Rline=20.0m_Lline=79.0p_Cline=220.0f_Vin=1_0_1_0_1_Vout.csv'
p382
s((S'18.0'
S'3.5n'
S'5.1p'
tS'2.0p'
g3
g7
I10
S'6.0'
S'____'
S'=10n'
tp383
S'../data/transmission_line_10_dropoffs/MultidropTransient\\tran_Cdrp=2.0p_Rterm=sqrt(Lline_Cline)_Lenline=6.0_Rline=18.0_Lline=3.5n_Cline=5.1p_Vin=1_0_1_0_1_BitTime=10n_Vout.csv'
p384
s((S'820.0m'
S'3.5n'
S'5.1p'
tS'2.0p'
g3
g4
I10
S'6.0'
S'____'
S'=10n'
tp385
S'../data/transmission_line_10_dropoffs/MultidropBode\\ac_Cdrp=2.0p_Rterm=sqrt(Lline_Cline)_Lenline=6.0_Rline=820.0m_Lline=3.5n_Cline=5.1p_Vin=1_0_1_0_1_BitTime=10n_Vout.csv'
p386
s((S'820.0m'
S'10.0n'
S'10.0p'
tS'5.0p'
g3
g7
I10
S'9.0'
S'_____'
S'=3n'
tp387
S'../data/transmission_line_10_dropoffs/MultidropTransient\\tran_Cdrp=5.0p_Rterm=sqrt(Lline_Cline)_Lenline=9.0_Rline=820.0m_Lline=10.0n_Cline=10.0p_Vin=1_1_1_0_1_1_BitTime=3n_Vout.csv'
p388
s((S'7.0'
S'2.4n'
S'220.0f'
tS'3.0p'
g3
g7
I10
S'5.0'
S'____'
S''
tp389
S'../data/transmission_line_10_dropoffs/MultidropTransient\\tran_Cdrp=3.0p_Rterm=sqrt(Lline_Cline)_Lenline=5.0_Rline=7.0_Lline=2.4n_Cline=220.0f_Vin=1_0_1_0_0_Vout.csv'
p390
s((S'13.0'
S'2.0n'
S'3.0p'
tS'1.0p'
g64
g4
I10
S'1.0'
S'10101'
S'10n'
tp391
S'..\\data\\transmission_line_10_dropoffs\\MultidropBode\\ac_Cdrp=1.0p_Rterm=sqrt(Lline_Cline)_Lenline=1.0_Rline=13.0_Lline=2.0n_Cline=3.0p_Vin=1_0_1_0_1_BitTime=10n_Vout.csv'
p392
s((S'20.0'
S'3.5n'
S'5.8p'
tS'3.0p'
g3
g7
I10
S'5.0'
S'____'
S''
tp393
S'../data/transmission_line_10_dropoffs/MultidropTransient\\tran_Cdrp=3.0p_Rterm=sqrt(Lline_Cline)_Lenline=5.0_Rline=20.0_Lline=3.5n_Cline=5.8p_Vin=1_0_1_0_0_Vout.csv'
p394
s((S'1.8'
S'2.4n'
S'4.6p'
tS'1.0p'
g3
g4
I10
S'5.0'
S'____'
S''
tp395
S'../data/transmission_line_10_dropoffs/MultidropBode\\ac_Cdrp=1.0p_Rterm=sqrt(Lline_Cline)_Lenline=5.0_Rline=1.8_Lline=2.4n_Cline=4.6p_Vin=1_0_1_0_0_Vout.csv'
p396
s((S'620.0m'
S'79.0p'
S'220.0f'
tS'3.0p'
g3
g4
I10
S'5.0'
S'____'
S''
tp397
S'../data/transmission_line_10_dropoffs/MultidropBode\\ac_Cdrp=3.0p_Rterm=sqrt(Lline_Cline)_Lenline=5.0_Rline=620.0m_Lline=79.0p_Cline=220.0f_Vin=1_0_1_0_1_Vout.csv'
p398
s((S'19.0'
S'79.0p'
S'220.0f'
tS'1.0p'
g3
g4
I10
S'1.0'
S'____'
S''
tp399
S'../data/transmission_line_10_dropoffs/MultidropBode\\ac_Cdrp=1.0p_Rterm=sqrt(Lline_Cline)_Lenline=1.0_Rline=19.0_Lline=79.0p_Cline=220.0f_Vin=1_0_0_0_0_Vout.csv'
p400
s((S'20.0m'
S'500.0p'
S'200.0f'
tS'3.0p'
g3
g7
I10
S'5.0'
S'____'
S''
tp401
S'../data/transmission_line_10_dropoffs/MultidropTransient\\tran_Cdrp=3.0p_Rterm=sqrt(Lline_Cline)_Lenline=5.0_Rline=20.0m_Lline=500.0p_Cline=200.0f_Vin=1_0_1_1_1_Vout.csv'
p402
s((S'6.0'
S'3.5n'
S'5.1p'
tS'2.0p'
g3
g4
I10
S'6.0'
S'____'
S'=5n'
tp403
S'../data/transmission_line_10_dropoffs/MultidropBode\\ac_Cdrp=2.0p_Rterm=sqrt(Lline_Cline)_Lenline=6.0_Rline=6.0_Lline=3.5n_Cline=5.1p_Vin=1_0_1_0_1_BitTime=5n_Vout.csv'
p404
s((S'8.0'
S'4.0n'
S'9.0p'
tS'3.0p'
g3
g7
I10
S'5.0'
S'____'
S''
tp405
S'../data/transmission_line_10_dropoffs/MultidropTransient\\tran_Cdrp=3.0p_Rterm=sqrt(Lline_Cline)_Lenline=5.0_Rline=8.0_Lline=4.0n_Cline=9.0p_Vin=1_0_1_0_1_Vout.csv'
p406
s((S'620.0m'
S'2.0n'
S'3.0p'
tS'1.0p'
g64
g7
I10
S'1.0'
S'10101'
S'10n'
tp407
S'..\\data\\transmission_line_10_dropoffs\\MultidropTransient\\tran_Cdrp=1.0p_Rterm=sqrt(Lline_Cline)_Lenline=1.0_Rline=620.0m_Lline=2.0n_Cline=3.0p_Vin=1_0_1_0_1_BitTime=10n_Vout.csv'
p408
s((S'9.0'
S'79.0p'
S'220.0f'
tS'3.0p'
g3
g7
I10
S'5.0'
S'____'
S''
tp409
S'../data/transmission_line_10_dropoffs/MultidropTransient\\tran_Cdrp=3.0p_Rterm=sqrt(Lline_Cline)_Lenline=5.0_Rline=9.0_Lline=79.0p_Cline=220.0f_Vin=1_0_1_0_1_Vout.csv'
p410
s((S'2.0'
S'3.0n'
S'5.8p'
tS'3.0p'
g3
g7
I10
S'5.0'
S'______'
S'=3n'
tp411
S'../data/transmission_line_10_dropoffs/MultidropTransient\\tran_Cdrp=3.0p_Rterm=sqrt(Lline_Cline)_Lenline=5.0_Rline=2.0_Lline=3.0n_Cline=5.8p_Vin=0_1_1_0_0_1_0_BitTime=3n_Vout.csv'
p412
s((S'18.0'
S'4.0n'
S'9.0p'
tS'3.0p'
g3
g4
I10
S'5.0'
S'____'
S''
tp413
S'../data/transmission_line_10_dropoffs/MultidropBode\\ac_Cdrp=3.0p_Rterm=sqrt(Lline_Cline)_Lenline=5.0_Rline=18.0_Lline=4.0n_Cline=9.0p_Vin=1_0_1_0_1_Vout.csv'
p414
s((S'16.0'
S'4.0n'
S'9.0p'
tS'3.0p'
g3
g4
I10
S'5.0'
S'____'
S''
tp415
S'../data/transmission_line_10_dropoffs/MultidropBode\\ac_Cdrp=3.0p_Rterm=sqrt(Lline_Cline)_Lenline=5.0_Rline=16.0_Lline=4.0n_Cline=9.0p_Vin=1_0_1_0_1_Vout.csv'
p416
s((S'19.0'
S'4.0n'
S'9.0p'
tS'3.0p'
g3
g4
I10
S'5.0'
S'____'
S''
tp417
S'../data/transmission_line_10_dropoffs/MultidropBode\\ac_Cdrp=3.0p_Rterm=sqrt(Lline_Cline)_Lenline=5.0_Rline=19.0_Lline=4.0n_Cline=9.0p_Vin=1_0_1_0_1_Vout.csv'
p418
s((S'620.0m'
S'3.5n'
S'5.1p'
tS'2.0p'
g3
g7
I10
S'6.0'
S'____'
S'=5n'
tp419
S'../data/transmission_line_10_dropoffs/MultidropTransient\\tran_Cdrp=2.0p_Rterm=sqrt(Lline_Cline)_Lenline=6.0_Rline=620.0m_Lline=3.5n_Cline=5.1p_Vin=1_0_1_0_1_BitTime=5n_Vout.csv'
p420
s((S'820.0m'
S'3.5n'
S'5.8p'
tS'3.0p'
g3
g7
I10
S'5.0'
S'____'
S''
tp421
S'../data/transmission_line_10_dropoffs/MultidropTransient\\tran_Cdrp=3.0p_Rterm=sqrt(Lline_Cline)_Lenline=5.0_Rline=820.0m_Lline=3.5n_Cline=5.8p_Vin=1_0_1_0_0_Vout.csv'
p422
s((S'3.0'
S'79.0p'
S'220.0f'
tS'3.0p'
g3
g4
I10
S'5.0'
S'____'
S''
tp423
S'../data/transmission_line_10_dropoffs/MultidropBode\\ac_Cdrp=3.0p_Rterm=sqrt(Lline_Cline)_Lenline=5.0_Rline=3.0_Lline=79.0p_Cline=220.0f_Vin=1_0_1_0_1_Vout.csv'
p424
s((S'1.0'
S'79.0p'
S'220.0f'
tS'3.0p'
g3
g4
I10
S'5.0'
S'____'
S''
tp425
S'../data/transmission_line_10_dropoffs/MultidropBode\\ac_Cdrp=3.0p_Rterm=sqrt(Lline_Cline)_Lenline=5.0_Rline=1.0_Lline=79.0p_Cline=220.0f_Vin=1_0_1_0_1_Vout.csv'
p426
s((S'19.0'
S'3.5n'
S'5.8p'
tS'3.0p'
g3
g4
I10
S'5.0'
S'____'
S''
tp427
S'../data/transmission_line_10_dropoffs/MultidropBode\\ac_Cdrp=3.0p_Rterm=sqrt(Lline_Cline)_Lenline=5.0_Rline=19.0_Lline=3.5n_Cline=5.8p_Vin=1_0_1_0_0_Vout.csv'
p428
s((S'10.0'
S'3.5n'
S'5.8p'
tS'3.0p'
g3
g4
I10
S'5.0'
S'____'
S''
tp429
S'../data/transmission_line_10_dropoffs/MultidropBode\\ac_Cdrp=3.0p_Rterm=sqrt(Lline_Cline)_Lenline=5.0_Rline=10.0_Lline=3.5n_Cline=5.8p_Vin=1_0_1_0_0_Vout.csv'
p430
s((S'6.0'
S'79.0p'
S'220.0f'
tS'3.0p'
g3
g7
I10
S'5.0'
S'____'
S''
tp431
S'../data/transmission_line_10_dropoffs/MultidropTransient\\tran_Cdrp=3.0p_Rterm=sqrt(Lline_Cline)_Lenline=5.0_Rline=6.0_Lline=79.0p_Cline=220.0f_Vin=1_0_1_0_1_Vout.csv'
p432
s((S'10.0'
S'3.5n'
S'5.1p'
tS'2.0p'
g3
g4
I10
S'6.0'
S'____'
S'=5n'
tp433
S'../data/transmission_line_10_dropoffs/MultidropBode\\ac_Cdrp=2.0p_Rterm=sqrt(Lline_Cline)_Lenline=6.0_Rline=10.0_Lline=3.5n_Cline=5.1p_Vin=1_0_1_0_1_BitTime=5n_Vout.csv'
p434
s((S'8.0'
S'3.5n'
S'5.1p'
tS'2.0p'
g3
g7
I10
S'6.0'
S'____'
S'=10n'
tp435
S'../data/transmission_line_10_dropoffs/MultidropTransient\\tran_Cdrp=2.0p_Rterm=sqrt(Lline_Cline)_Lenline=6.0_Rline=8.0_Lline=3.5n_Cline=5.1p_Vin=1_0_1_0_1_BitTime=10n_Vout.csv'
p436
s((S'12.0'
S'2.0n'
S'3.0p'
tS'1.0p'
g64
g7
I10
S'1.0'
S'10101'
S'10n'
tp437
S'..\\data\\transmission_line_10_dropoffs\\MultidropTransient\\tran_Cdrp=1.0p_Rterm=sqrt(Lline_Cline)_Lenline=1.0_Rline=12.0_Lline=2.0n_Cline=3.0p_Vin=1_0_1_0_1_BitTime=10n_Vout.csv'
p438
s((S'1.8'
S'2.4n'
S'4.6p'
tS'3.0p'
g3
g4
I10
S'5.0'
S'____'
S''
tp439
S'../data/transmission_line_10_dropoffs/MultidropBode\\ac_Cdrp=3.0p_Rterm=sqrt(Lline_Cline)_Lenline=5.0_Rline=1.8_Lline=2.4n_Cline=4.6p_Vin=1_0_1_0_1_Vout.csv'
p440
s((S'10.0'
S'79.0p'
S'220.0f'
tS'1.0p'
g3
g7
I10
S'1.0'
S'____'
S''
tp441
S'../data/transmission_line_10_dropoffs/MultidropTransient\\tran_Cdrp=1.0p_Rterm=sqrt(Lline_Cline)_Lenline=1.0_Rline=10.0_Lline=79.0p_Cline=220.0f_Vin=1_0_0_0_0_Vout.csv'
p442
s((S'18.0'
S'2.4n'
S'4.6p'
tS'3.0p'
g3
g7
I10
S'5.0'
S'____'
S''
tp443
S'../data/transmission_line_10_dropoffs/MultidropTransient\\tran_Cdrp=3.0p_Rterm=sqrt(Lline_Cline)_Lenline=5.0_Rline=18.0_Lline=2.4n_Cline=4.6p_Vin=1_0_1_0_1_Vout.csv'
p444
s((S'10.0'
S'79.0p'
S'220.0f'
tS'1.0p'
g3
g4
I10
S'1.0'
S'____'
S''
tp445
S'../data/transmission_line_10_dropoffs/MultidropBode\\ac_Cdrp=1.0p_Rterm=sqrt(Lline_Cline)_Lenline=1.0_Rline=10.0_Lline=79.0p_Cline=220.0f_Vin=1_0_0_0_0_Vout.csv'
p446
s((S'9.0'
S'3.5n'
S'5.8p'
tS'3.0p'
g3
g4
I10
S'5.0'
S'____'
S''
tp447
S'../data/transmission_line_10_dropoffs/MultidropBode\\ac_Cdrp=3.0p_Rterm=sqrt(Lline_Cline)_Lenline=5.0_Rline=9.0_Lline=3.5n_Cline=5.8p_Vin=1_0_1_0_0_Vout.csv'
p448
s((S'19.0'
S'3.0n'
S'5.8p'
tS'3.0p'
g3
g7
I10
S'5.0'
S'______'
S'=3n'
tp449
S'../data/transmission_line_10_dropoffs/MultidropTransient\\tran_Cdrp=3.0p_Rterm=sqrt(Lline_Cline)_Lenline=5.0_Rline=19.0_Lline=3.0n_Cline=5.8p_Vin=0_1_1_0_0_1_0_BitTime=3n_Vout.csv'
p450
s((S'220.0m'
S'4.0n'
S'1.6p'
tS'2.0p'
g3
g7
I10
S'5.0'
S'____'
S''
tp451
S'../data/transmission_line_10_dropoffs/MultidropTransient\\tran_Cdrp=2.0p_Rterm=sqrt(Lline_Cline)_Lenline=5.0_Rline=220.0m_Lline=4.0n_Cline=1.6p_Vin=1_0_1_0_1_Vout.csv'
p452
s((S'420.0m'
S'2.4n'
S'11.2p'
tS'3.0p'
g3
g7
I10
S'5.0'
S'____'
S''
tp453
S'../data/transmission_line_10_dropoffs/MultidropTransient\\tran_Cdrp=3.0p_Rterm=sqrt(Lline_Cline)_Lenline=5.0_Rline=420.0m_Lline=2.4n_Cline=11.2p_Vin=1_0_1_0_1_Vout.csv'
p454
s((S'220.0m'
S'500.0p'
S'200.0f'
tS'1.0p'
g3
g7
I10
S'1.0'
S'_____'
S'=5n'
tp455
S'../data/transmission_line_10_dropoffs/MultidropTransient\\tran_Cdrp=1.0p_Rterm=sqrt(Lline_Cline)_Lenline=1.0_Rline=220.0m_Lline=500.0p_Cline=200.0f_Vin=1_1_1_0_1_1_BitTime=5n_Vout.csv'
p456
s((S'10.0'
S'3.5n'
S'5.8p'
tS'3.0p'
g3
g7
I10
S'5.0'
S'____'
S''
tp457
S'../data/transmission_line_10_dropoffs/MultidropTransient\\tran_Cdrp=3.0p_Rterm=sqrt(Lline_Cline)_Lenline=5.0_Rline=10.0_Lline=3.5n_Cline=5.8p_Vin=1_0_1_0_0_Vout.csv'
p458
s((S'13.0'
S'4.0n'
S'9.0p'
tS'3.0p'
g3
g7
I10
S'5.0'
S'____'
S''
tp459
S'../data/transmission_line_10_dropoffs/MultidropTransient\\tran_Cdrp=3.0p_Rterm=sqrt(Lline_Cline)_Lenline=5.0_Rline=13.0_Lline=4.0n_Cline=9.0p_Vin=1_0_1_0_1_Vout.csv'
p460
s((S'11.0'
S'2.0n'
S'3.0p'
tS'1.0p'
g64
g7
I10
S'1.0'
S'10101'
S'10n'
tp461
S'..\\data\\transmission_line_10_dropoffs\\MultidropTransient\\tran_Cdrp=1.0p_Rterm=sqrt(Lline_Cline)_Lenline=1.0_Rline=11.0_Lline=2.0n_Cline=3.0p_Vin=1_0_1_0_1_BitTime=10n_Vout.csv'
p462
s((S'620.0m'
S'3.5n'
S'5.8p'
tS'3.0p'
g3
g4
I10
S'5.0'
S'____'
S''
tp463
S'../data/transmission_line_10_dropoffs/MultidropBode\\ac_Cdrp=3.0p_Rterm=sqrt(Lline_Cline)_Lenline=5.0_Rline=620.0m_Lline=3.5n_Cline=5.8p_Vin=1_0_1_0_0_Vout.csv'
p464
s((S'420.0m'
S'1.0n'
S'2.3p'
tS'2.0p'
g3
g7
I14
S'4.0'
S'____'
S''
tp465
S'../data/transmission_line_14_dropoffs/MultidropTransient\\tran_Cdrp=2.0p_Rterm=sqrt(Lline_Cline)_Lenline=4.0_Rline=420.0m_Lline=1.0n_Cline=2.3p_Vin=0_0_0_0_0_Vout.csv'
p466
s((S'20.0m'
S'3.5n'
S'5.1p'
tS'2.0p'
g3
g7
I10
S'6.0'
S'____'
S'=10n'
tp467
S'../data/transmission_line_10_dropoffs/MultidropTransient\\tran_Cdrp=2.0p_Rterm=sqrt(Lline_Cline)_Lenline=6.0_Rline=20.0m_Lline=3.5n_Cline=5.1p_Vin=1_0_1_0_1_BitTime=10n_Vout.csv'
p468
s((S'1.6'
S'2.4n'
S'4.6p'
tS'1.0p'
g3
g7
I10
S'5.0'
S'____'
S''
tp469
S'../data/transmission_line_10_dropoffs/MultidropTransient\\tran_Cdrp=1.0p_Rterm=sqrt(Lline_Cline)_Lenline=5.0_Rline=1.6_Lline=2.4n_Cline=4.6p_Vin=1_0_1_0_0_Vout.csv'
p470
s((S'12.0'
S'3.5n'
S'5.8p'
tS'3.0p'
g3
g7
I10
S'5.0'
S'____'
S''
tp471
S'../data/transmission_line_10_dropoffs/MultidropTransient\\tran_Cdrp=3.0p_Rterm=sqrt(Lline_Cline)_Lenline=5.0_Rline=12.0_Lline=3.5n_Cline=5.8p_Vin=1_0_1_0_0_Vout.csv'
p472
s((S'4.0'
S'2.4n'
S'4.6p'
tS'3.0p'
g3
g7
I10
S'5.0'
S'____'
S''
tp473
S'../data/transmission_line_10_dropoffs/MultidropTransient\\tran_Cdrp=3.0p_Rterm=sqrt(Lline_Cline)_Lenline=5.0_Rline=4.0_Lline=2.4n_Cline=4.6p_Vin=1_0_1_0_1_Vout.csv'
p474
s((S'11.0'
S'2.4n'
S'4.6p'
tS'1.0p'
g3
g7
I10
S'5.0'
S'____'
S''
tp475
S'../data/transmission_line_10_dropoffs/MultidropTransient\\tran_Cdrp=1.0p_Rterm=sqrt(Lline_Cline)_Lenline=5.0_Rline=11.0_Lline=2.4n_Cline=4.6p_Vin=1_0_1_0_0_Vout.csv'
p476
s((S'18.0'
S'3.5n'
S'5.1p'
tS'2.0p'
g3
g7
I10
S'6.0'
S'____'
S'=5n'
tp477
S'../data/transmission_line_10_dropoffs/MultidropTransient\\tran_Cdrp=2.0p_Rterm=sqrt(Lline_Cline)_Lenline=6.0_Rline=18.0_Lline=3.5n_Cline=5.1p_Vin=1_0_1_0_1_BitTime=5n_Vout.csv'
p478
s((S'1.4'
S'4.0n'
S'9.0p'
tS'3.0p'
g3
g4
I10
S'5.0'
S'____'
S''
tp479
S'../data/transmission_line_10_dropoffs/MultidropBode\\ac_Cdrp=3.0p_Rterm=sqrt(Lline_Cline)_Lenline=5.0_Rline=1.4_Lline=4.0n_Cline=9.0p_Vin=1_0_1_0_1_Vout.csv'
p480
s((S'2.0m'
S'79.0p'
S'22.0f'
tS'3.0p'
g3
g7
I10
S'5.0'
S'____'
S''
tp481
S'../data/transmission_line_10_dropoffs/MultidropTransient\\tran_Cdrp=3.0p_Rterm=sqrt(Lline_Cline)_Lenline=5.0_Rline=2.0m_Lline=79.0p_Cline=22.0f_Vin=0_0_0_0_0_Vout.csv'
p482
s((S'220.0m'
S'3.5n'
S'5.8p'
tS'3.0p'
g3
g7
I10
S'5.0'
S'____'
S''
tp483
S'../data/transmission_line_10_dropoffs/MultidropTransient\\tran_Cdrp=3.0p_Rterm=sqrt(Lline_Cline)_Lenline=5.0_Rline=220.0m_Lline=3.5n_Cline=5.8p_Vin=1_0_1_0_0_Vout.csv'
p484
s((S'12.0'
S'2.0n'
S'3.0p'
tS'1.0p'
g64
g4
I10
S'1.0'
S'10101'
S'10n'
tp485
S'..\\data\\transmission_line_10_dropoffs\\MultidropBode\\ac_Cdrp=1.0p_Rterm=sqrt(Lline_Cline)_Lenline=1.0_Rline=12.0_Lline=2.0n_Cline=3.0p_Vin=1_0_1_0_1_BitTime=10n_Vout.csv'
p486
s((S'220.0m'
S'79.0p'
S'220.0f'
tS'3.0p'
g3
g7
I10
S'5.0'
S'____'
S''
tp487
S'../data/transmission_line_10_dropoffs/MultidropTransient\\tran_Cdrp=3.0p_Rterm=sqrt(Lline_Cline)_Lenline=5.0_Rline=220.0m_Lline=79.0p_Cline=220.0f_Vin=1_0_1_0_1_Vout.csv'
p488
s((S'12.0'
S'2.4n'
S'4.6p'
tS'3.0p'
g3
g4
I10
S'5.0'
S'____'
S''
tp489
S'../data/transmission_line_10_dropoffs/MultidropBode\\ac_Cdrp=3.0p_Rterm=sqrt(Lline_Cline)_Lenline=5.0_Rline=12.0_Lline=2.4n_Cline=4.6p_Vin=1_0_1_0_1_Vout.csv'
p490
s((S'11.0'
S'3.0n'
S'5.8p'
tS'3.0p'
g3
g4
I10
S'5.0'
S'______'
S'=3n'
tp491
S'../data/transmission_line_10_dropoffs/MultidropBode\\ac_Cdrp=3.0p_Rterm=sqrt(Lline_Cline)_Lenline=5.0_Rline=11.0_Lline=3.0n_Cline=5.8p_Vin=0_1_1_0_0_1_0_BitTime=3n_Vout.csv'
p492
s((S'420.0m'
S'6.4n'
S'11.2p'
tS'3.0p'
g3
g7
I10
S'5.0'
S'____'
S''
tp493
S'../data/transmission_line_10_dropoffs/MultidropTransient\\tran_Cdrp=3.0p_Rterm=sqrt(Lline_Cline)_Lenline=5.0_Rline=420.0m_Lline=6.4n_Cline=11.2p_Vin=1_0_1_0_1_Vout.csv'
p494
s((S'19.0'
S'3.0n'
S'5.8p'
tS'3.0p'
g3
g4
I10
S'5.0'
S'______'
S'=3n'
tp495
S'../data/transmission_line_10_dropoffs/MultidropBode\\ac_Cdrp=3.0p_Rterm=sqrt(Lline_Cline)_Lenline=5.0_Rline=19.0_Lline=3.0n_Cline=5.8p_Vin=0_1_1_0_0_1_0_BitTime=3n_Vout.csv'
p496
s((S'14.0'
S'79.0p'
S'220.0f'
tS'3.0p'
g3
g4
I10
S'5.0'
S'____'
S''
tp497
S'../data/transmission_line_10_dropoffs/MultidropBode\\ac_Cdrp=3.0p_Rterm=sqrt(Lline_Cline)_Lenline=5.0_Rline=14.0_Lline=79.0p_Cline=220.0f_Vin=1_0_1_0_1_Vout.csv'
p498
s((S'20.0m'
S'2.4n'
S'220.0f'
tS'3.0p'
g3
g7
I10
S'5.0'
S'____'
S''
tp499
S'../data/transmission_line_10_dropoffs/MultidropTransient\\tran_Cdrp=3.0p_Rterm=sqrt(Lline_Cline)_Lenline=5.0_Rline=20.0m_Lline=2.4n_Cline=220.0f_Vin=1_0_1_0_0_Vout.csv'
p500
s((S'220.0m'
S'3.5n'
S'5.1p'
tS'2.0p'
g3
g7
I10
S'6.0'
S'____'
S'=10n'
tp501
S'../data/transmission_line_10_dropoffs/MultidropTransient\\tran_Cdrp=2.0p_Rterm=sqrt(Lline_Cline)_Lenline=6.0_Rline=220.0m_Lline=3.5n_Cline=5.1p_Vin=1_0_1_0_1_BitTime=10n_Vout.csv'
p502
s((S'10.0'
S'2.0n'
S'3.0p'
tS'1.0p'
g64
g7
I10
S'1.0'
S'10101'
S'10n'
tp503
S'..\\data\\transmission_line_10_dropoffs\\MultidropTransient\\tran_Cdrp=1.0p_Rterm=sqrt(Lline_Cline)_Lenline=1.0_Rline=10.0_Lline=2.0n_Cline=3.0p_Vin=1_0_1_0_1_BitTime=10n_Vout.csv'
p504
s((S'17.0'
S'3.5n'
S'5.1p'
tS'2.0p'
g3
g4
I10
S'6.0'
S'____'
S'=10n'
tp505
S'../data/transmission_line_10_dropoffs/MultidropBode\\ac_Cdrp=2.0p_Rterm=sqrt(Lline_Cline)_Lenline=6.0_Rline=17.0_Lline=3.5n_Cline=5.1p_Vin=1_0_1_0_1_BitTime=10n_Vout.csv'
p506
s((S'13.0'
S'3.0n'
S'5.8p'
tS'3.0p'
g3
g7
I10
S'5.0'
S'______'
S'=3n'
tp507
S'../data/transmission_line_10_dropoffs/MultidropTransient\\tran_Cdrp=3.0p_Rterm=sqrt(Lline_Cline)_Lenline=5.0_Rline=13.0_Lline=3.0n_Cline=5.8p_Vin=0_1_1_0_0_1_0_BitTime=3n_Vout.csv'
p508
s((S'14.0'
S'79.0p'
S'220.0f'
tS'1.0p'
g3
g7
I10
S'1.0'
S'____'
S''
tp509
S'../data/transmission_line_10_dropoffs/MultidropTransient\\tran_Cdrp=1.0p_Rterm=sqrt(Lline_Cline)_Lenline=1.0_Rline=14.0_Lline=79.0p_Cline=220.0f_Vin=1_0_0_0_0_Vout.csv'
p510
s((S'14.0'
S'3.5n'
S'5.1p'
tS'2.0p'
g3
g7
I10
S'6.0'
S'____'
S'=5n'
tp511
S'../data/transmission_line_10_dropoffs/MultidropTransient\\tran_Cdrp=2.0p_Rterm=sqrt(Lline_Cline)_Lenline=6.0_Rline=14.0_Lline=3.5n_Cline=5.1p_Vin=1_0_1_0_1_BitTime=5n_Vout.csv'
p512
s((S'420.0m'
S'79.0p'
S'11.2p'
tS'3.0p'
g3
g7
I10
S'5.0'
S'____'
S''
tp513
S'../data/transmission_line_10_dropoffs/MultidropTransient\\tran_Cdrp=3.0p_Rterm=sqrt(Lline_Cline)_Lenline=5.0_Rline=420.0m_Lline=79.0p_Cline=11.2p_Vin=1_0_1_0_1_Vout.csv'
p514
s((S'16.0'
S'3.0n'
S'5.8p'
tS'3.0p'
g3
g7
I10
S'5.0'
S'______'
S'=3n'
tp515
S'../data/transmission_line_10_dropoffs/MultidropTransient\\tran_Cdrp=3.0p_Rterm=sqrt(Lline_Cline)_Lenline=5.0_Rline=16.0_Lline=3.0n_Cline=5.8p_Vin=0_1_1_0_0_1_0_BitTime=3n_Vout.csv'
p516
s((S'12.0'
S'79.0p'
S'220.0f'
tS'3.0p'
g3
g7
I10
S'5.0'
S'____'
S''
tp517
S'../data/transmission_line_10_dropoffs/MultidropTransient\\tran_Cdrp=3.0p_Rterm=sqrt(Lline_Cline)_Lenline=5.0_Rline=12.0_Lline=79.0p_Cline=220.0f_Vin=1_0_1_0_1_Vout.csv'
p518
s((S'13.0'
S'2.0n'
S'3.0p'
tS'1.0p'
g64
g7
I10
S'1.0'
S'10101'
S'10n'
tp519
S'..\\data\\transmission_line_10_dropoffs\\MultidropTransient\\tran_Cdrp=1.0p_Rterm=sqrt(Lline_Cline)_Lenline=1.0_Rline=13.0_Lline=2.0n_Cline=3.0p_Vin=1_0_1_0_1_BitTime=10n_Vout.csv'
p520
s((S'20.0m'
S'500.0p'
S'200.0f'
tS'1.0p'
g3
g4
I10
S'1.0'
S'_____'
S'=5n'
tp521
S'../data/transmission_line_10_dropoffs/MultidropBode\\ac_Cdrp=1.0p_Rterm=sqrt(Lline_Cline)_Lenline=1.0_Rline=20.0m_Lline=500.0p_Cline=200.0f_Vin=1_1_1_0_1_1_BitTime=5n_Vout.csv'
p522
s((S'620.0m'
S'2.4n'
S'4.6p'
tS'3.0p'
g3
g4
I10
S'5.0'
S'____'
S''
tp523
S'../data/transmission_line_10_dropoffs/MultidropBode\\ac_Cdrp=3.0p_Rterm=sqrt(Lline_Cline)_Lenline=5.0_Rline=620.0m_Lline=2.4n_Cline=4.6p_Vin=1_0_1_0_1_Vout.csv'
p524
s((S'20.0m'
S'2.4n'
S'220.0f'
tS'3.0p'
g3
g4
I10
S'5.0'
S'____'
S''
tp525
S'../data/transmission_line_10_dropoffs/MultidropBode\\ac_Cdrp=3.0p_Rterm=sqrt(Lline_Cline)_Lenline=5.0_Rline=20.0m_Lline=2.4n_Cline=220.0f_Vin=1_0_1_0_0_Vout.csv'
p526
s((S'18.0'
S'2.4n'
S'220.0f'
tS'3.0p'
g3
g7
I10
S'5.0'
S'____'
S''
tp527
S'../data/transmission_line_10_dropoffs/MultidropTransient\\tran_Cdrp=3.0p_Rterm=sqrt(Lline_Cline)_Lenline=5.0_Rline=18.0_Lline=2.4n_Cline=220.0f_Vin=1_0_1_0_0_Vout.csv'
p528
s((S'20.0m'
S'500.0p'
S'200.0f'
tS'3.0p'
g3
g7
I10
S'5.0'
S'__'
S''
tp529
S'../data/transmission_line_10_dropoffs/MultidropTransient\\tran_Cdrp=3.0p_Rterm=sqrt(Lline_Cline)_Lenline=5.0_Rline=20.0m_Lline=500.0p_Cline=200.0f_Vin=1_0_1_Vout.csv'
p530
s((S'420.0m'
S'500.0p'
S'200.0f'
tS'1.0p'
g3
g7
I10
S'1.0'
S'_____'
S'=5n'
tp531
S'../data/transmission_line_10_dropoffs/MultidropTransient\\tran_Cdrp=1.0p_Rterm=sqrt(Lline_Cline)_Lenline=1.0_Rline=420.0m_Lline=500.0p_Cline=200.0f_Vin=1_1_1_0_1_1_BitTime=5n_Vout.csv'
p532
s((S'1.2'
S'4.0n'
S'9.0p'
tS'3.0p'
g3
g7
I10
S'5.0'
S'____'
S''
tp533
S'../data/transmission_line_10_dropoffs/MultidropTransient\\tran_Cdrp=3.0p_Rterm=sqrt(Lline_Cline)_Lenline=5.0_Rline=1.2_Lline=4.0n_Cline=9.0p_Vin=1_0_1_0_1_Vout.csv'
p534
s((S'17.0'
S'3.0n'
S'5.8p'
tS'3.0p'
g3
g4
I10
S'5.0'
S'______'
S'=3n'
tp535
S'../data/transmission_line_10_dropoffs/MultidropBode\\ac_Cdrp=3.0p_Rterm=sqrt(Lline_Cline)_Lenline=5.0_Rline=17.0_Lline=3.0n_Cline=5.8p_Vin=0_1_1_0_0_1_0_BitTime=3n_Vout.csv'
p536
s((S'15.0'
S'3.5n'
S'5.8p'
tS'3.0p'
g3
g4
I10
S'5.0'
S'____'
S''
tp537
S'../data/transmission_line_10_dropoffs/MultidropBode\\ac_Cdrp=3.0p_Rterm=sqrt(Lline_Cline)_Lenline=5.0_Rline=15.0_Lline=3.5n_Cline=5.8p_Vin=1_0_1_0_0_Vout.csv'
p538
s((S'7.0'
S'79.0p'
S'220.0f'
tS'3.0p'
g3
g7
I10
S'5.0'
S'____'
S''
tp539
S'../data/transmission_line_10_dropoffs/MultidropTransient\\tran_Cdrp=3.0p_Rterm=sqrt(Lline_Cline)_Lenline=5.0_Rline=7.0_Lline=79.0p_Cline=220.0f_Vin=1_0_1_0_1_Vout.csv'
p540
s((S'3.0'
S'4.0n'
S'9.0p'
tS'3.0p'
g3
g4
I10
S'5.0'
S'____'
S''
tp541
S'../data/transmission_line_10_dropoffs/MultidropBode\\ac_Cdrp=3.0p_Rterm=sqrt(Lline_Cline)_Lenline=5.0_Rline=3.0_Lline=4.0n_Cline=9.0p_Vin=1_0_1_0_1_Vout.csv'
p542
s((S'1.2'
S'79.0p'
S'220.0f'
tS'3.0p'
g3
g7
I10
S'5.0'
S'____'
S''
tp543
S'../data/transmission_line_10_dropoffs/MultidropTransient\\tran_Cdrp=3.0p_Rterm=sqrt(Lline_Cline)_Lenline=5.0_Rline=1.2_Lline=79.0p_Cline=220.0f_Vin=1_0_1_0_1_Vout.csv'
p544
s((S'6.0'
S'4.0n'
S'9.0p'
tS'3.0p'
g3
g7
I10
S'5.0'
S'____'
S''
tp545
S'../data/transmission_line_10_dropoffs/MultidropTransient\\tran_Cdrp=3.0p_Rterm=sqrt(Lline_Cline)_Lenline=5.0_Rline=6.0_Lline=4.0n_Cline=9.0p_Vin=1_0_1_0_1_Vout.csv'
p546
s((S'820.0m'
S'10.0n'
S'10.0p'
tS'5.0p'
g3
g7
I28
S'9.0'
S'______'
S'=10n'
tp547
S'../data/transmission_line_28_dropoffs/MultidropTransient\\tran_Cdrp=5.0p_Rterm=sqrt(Lline_Cline)_Lenline=9.0_Rline=820.0m_Lline=10.0n_Cline=10.0p_Vin=1_1_1_1_0_1_1_BitTime=10n_Vout.csv'
p548
s((S'4.0'
S'3.5n'
S'5.8p'
tS'3.0p'
g3
g7
I10
S'5.0'
S'____'
S''
tp549
S'../data/transmission_line_10_dropoffs/MultidropTransient\\tran_Cdrp=3.0p_Rterm=sqrt(Lline_Cline)_Lenline=5.0_Rline=4.0_Lline=3.5n_Cline=5.8p_Vin=1_0_1_0_0_Vout.csv'
p550
s((S'17.0'
S'2.0n'
S'3.0p'
tS'1.0p'
g64
g7
I10
S'1.0'
S'10101'
S'10n'
tp551
S'..\\data\\transmission_line_10_dropoffs\\MultidropTransient\\tran_Cdrp=1.0p_Rterm=sqrt(Lline_Cline)_Lenline=1.0_Rline=17.0_Lline=2.0n_Cline=3.0p_Vin=1_0_1_0_1_BitTime=10n_Vout.csv'
p552
s((S'820.0m'
S'3.0n'
S'5.8p'
tS'3.0p'
g3
g7
I10
S'5.0'
S'______'
S'=3n'
tp553
S'../data/transmission_line_10_dropoffs/MultidropTransient\\tran_Cdrp=3.0p_Rterm=sqrt(Lline_Cline)_Lenline=5.0_Rline=820.0m_Lline=3.0n_Cline=5.8p_Vin=0_1_1_0_0_1_0_BitTime=3n_Vout.csv'
p554
s((S'9.0'
S'79.0p'
S'220.0f'
tS'1.0p'
g3
g7
I10
S'1.0'
S'____'
S''
tp555
S'../data/transmission_line_10_dropoffs/MultidropTransient\\tran_Cdrp=1.0p_Rterm=sqrt(Lline_Cline)_Lenline=1.0_Rline=9.0_Lline=79.0p_Cline=220.0f_Vin=1_0_0_0_0_Vout.csv'
p556
s((S'6.0'
S'3.5n'
S'5.1p'
tS'2.0p'
g3
g4
I10
S'6.0'
S'____'
S'=10n'
tp557
S'../data/transmission_line_10_dropoffs/MultidropBode\\ac_Cdrp=2.0p_Rterm=sqrt(Lline_Cline)_Lenline=6.0_Rline=6.0_Lline=3.5n_Cline=5.1p_Vin=1_0_1_0_1_BitTime=10n_Vout.csv'
p558
s((S'10.0'
S'4.0n'
S'9.0p'
tS'3.0p'
g3
g7
I10
S'5.0'
S'____'
S''
tp559
S'../data/transmission_line_10_dropoffs/MultidropTransient\\tran_Cdrp=3.0p_Rterm=sqrt(Lline_Cline)_Lenline=5.0_Rline=10.0_Lline=4.0n_Cline=9.0p_Vin=1_0_1_0_1_Vout.csv'
p560
s((S'4.0'
S'3.5n'
S'5.1p'
tS'2.0p'
g3
g4
I10
S'6.0'
S'____'
S'=5n'
tp561
S'../data/transmission_line_10_dropoffs/MultidropBode\\ac_Cdrp=2.0p_Rterm=sqrt(Lline_Cline)_Lenline=6.0_Rline=4.0_Lline=3.5n_Cline=5.1p_Vin=1_0_1_0_1_BitTime=5n_Vout.csv'
p562
s((S'4.0'
S'4.0n'
S'9.0p'
tS'3.0p'
g3
g4
I10
S'5.0'
S'____'
S''
tp563
S'../data/transmission_line_10_dropoffs/MultidropBode\\ac_Cdrp=3.0p_Rterm=sqrt(Lline_Cline)_Lenline=5.0_Rline=4.0_Lline=4.0n_Cline=9.0p_Vin=1_0_1_0_1_Vout.csv'
p564
s((S'7.0'
S'2.0n'
S'3.0p'
tS'1.0p'
g64
g7
I10
S'1.0'
S'10101'
S'10n'
tp565
S'..\\data\\transmission_line_10_dropoffs\\MultidropTransient\\tran_Cdrp=1.0p_Rterm=sqrt(Lline_Cline)_Lenline=1.0_Rline=7.0_Lline=2.0n_Cline=3.0p_Vin=1_0_1_0_1_BitTime=10n_Vout.csv'
p566
s((S'420.0m'
S'4.0n'
S'9.0p'
tS'3.0p'
g3
g7
I10
S'5.0'
S'____'
S''
tp567
S'../data/transmission_line_10_dropoffs/MultidropTransient\\tran_Cdrp=3.0p_Rterm=sqrt(Lline_Cline)_Lenline=5.0_Rline=420.0m_Lline=4.0n_Cline=9.0p_Vin=1_0_1_0_1_Vout.csv'
p568
s((S'11.0'
S'2.4n'
S'4.6p'
tS'3.0p'
g3
g4
I10
S'5.0'
S'____'
S''
tp569
S'../data/transmission_line_10_dropoffs/MultidropBode\\ac_Cdrp=3.0p_Rterm=sqrt(Lline_Cline)_Lenline=5.0_Rline=11.0_Lline=2.4n_Cline=4.6p_Vin=1_0_1_0_1_Vout.csv'
p570
s((S'1.2'
S'2.4n'
S'4.6p'
tS'1.0p'
g3
g4
I10
S'5.0'
S'____'
S''
tp571
S'../data/transmission_line_10_dropoffs/MultidropBode\\ac_Cdrp=1.0p_Rterm=sqrt(Lline_Cline)_Lenline=5.0_Rline=1.2_Lline=2.4n_Cline=4.6p_Vin=1_0_1_0_0_Vout.csv'
p572
s((S'820.0m'
S'2.0n'
S'3.0p'
tS'1.0p'
g64
g7
I10
S'1.0'
S'10101'
S'10n'
tp573
S'..\\data\\transmission_line_10_dropoffs\\MultidropTransient\\tran_Cdrp=1.0p_Rterm=sqrt(Lline_Cline)_Lenline=1.0_Rline=820.0m_Lline=2.0n_Cline=3.0p_Vin=1_0_1_0_1_BitTime=10n_Vout.csv'
p574
s((S'4.0'
S'3.5n'
S'5.1p'
tS'2.0p'
g3
g4
I10
S'6.0'
S'____'
S'=10n'
tp575
S'../data/transmission_line_10_dropoffs/MultidropBode\\ac_Cdrp=2.0p_Rterm=sqrt(Lline_Cline)_Lenline=6.0_Rline=4.0_Lline=3.5n_Cline=5.1p_Vin=1_0_1_0_1_BitTime=10n_Vout.csv'
p576
s((S'420.0m'
S'3.0n'
S'5.1p'
tS'2.0p'
g3
g7
I10
S'5.0'
S'____'
S''
tp577
S'../data/transmission_line_10_dropoffs/MultidropTransient\\tran_Cdrp=2.0p_Rterm=sqrt(Lline_Cline)_Lenline=5.0_Rline=420.0m_Lline=3.0n_Cline=5.1p_Vin=1_0_1_0_1_Vout.csv'
p578
s((S'220.0m'
S'2.4n'
S'4.6p'
tS'3.0p'
g3
g7
I10
S'5.0'
S'____'
S''
tp579
S'../data/transmission_line_10_dropoffs/MultidropTransient\\tran_Cdrp=3.0p_Rterm=sqrt(Lline_Cline)_Lenline=5.0_Rline=220.0m_Lline=2.4n_Cline=4.6p_Vin=1_0_1_0_1_Vout.csv'
p580
s((S'7.0'
S'79.0p'
S'220.0f'
tS'1.0p'
g3
g4
I10
S'1.0'
S'____'
S''
tp581
S'../data/transmission_line_10_dropoffs/MultidropBode\\ac_Cdrp=1.0p_Rterm=sqrt(Lline_Cline)_Lenline=1.0_Rline=7.0_Lline=79.0p_Cline=220.0f_Vin=1_0_0_0_0_Vout.csv'
p582
s((S'7.0'
S'2.4n'
S'220.0f'
tS'3.0p'
g3
g4
I10
S'5.0'
S'____'
S''
tp583
S'../data/transmission_line_10_dropoffs/MultidropBode\\ac_Cdrp=3.0p_Rterm=sqrt(Lline_Cline)_Lenline=5.0_Rline=7.0_Lline=2.4n_Cline=220.0f_Vin=1_0_1_0_0_Vout.csv'
p584
s((S'620.0m'
S'2.4n'
S'4.6p'
tS'1.0p'
g3
g4
I10
S'5.0'
S'____'
S''
tp585
S'../data/transmission_line_10_dropoffs/MultidropBode\\ac_Cdrp=1.0p_Rterm=sqrt(Lline_Cline)_Lenline=5.0_Rline=620.0m_Lline=2.4n_Cline=4.6p_Vin=1_0_1_0_0_Vout.csv'
p586
s((S'8.0'
S'3.5n'
S'5.1p'
tS'2.0p'
g3
g4
I10
S'6.0'
S'____'
S'=5n'
tp587
S'../data/transmission_line_10_dropoffs/MultidropBode\\ac_Cdrp=2.0p_Rterm=sqrt(Lline_Cline)_Lenline=6.0_Rline=8.0_Lline=3.5n_Cline=5.1p_Vin=1_0_1_0_1_BitTime=5n_Vout.csv'
p588
s((S'12.0'
S'3.5n'
S'5.1p'
tS'2.0p'
g3
g7
I10
S'6.0'
S'____'
S'=5n'
tp589
S'../data/transmission_line_10_dropoffs/MultidropTransient\\tran_Cdrp=2.0p_Rterm=sqrt(Lline_Cline)_Lenline=6.0_Rline=12.0_Lline=3.5n_Cline=5.1p_Vin=1_0_1_0_1_BitTime=5n_Vout.csv'
p590
s((S'11.0'
S'4.0n'
S'9.0p'
tS'3.0p'
g3
g7
I10
S'5.0'
S'____'
S''
tp591
S'../data/transmission_line_10_dropoffs/MultidropTransient\\tran_Cdrp=3.0p_Rterm=sqrt(Lline_Cline)_Lenline=5.0_Rline=11.0_Lline=4.0n_Cline=9.0p_Vin=1_0_1_0_1_Vout.csv'
p592
s((S'2.0'
S'3.5n'
S'5.1p'
tS'2.0p'
g3
g7
I10
S'6.0'
S'____'
S'=10n'
tp593
S'../data/transmission_line_10_dropoffs/MultidropTransient\\tran_Cdrp=2.0p_Rterm=sqrt(Lline_Cline)_Lenline=6.0_Rline=2.0_Lline=3.5n_Cline=5.1p_Vin=1_0_1_0_1_BitTime=10n_Vout.csv'
p594
s((S'420.0m'
S'3.5n'
S'5.1p'
tS'2.0p'
g3
g4
I10
S'6.0'
S'____'
S'=5n'
tp595
S'../data/transmission_line_10_dropoffs/MultidropBode\\ac_Cdrp=2.0p_Rterm=sqrt(Lline_Cline)_Lenline=6.0_Rline=420.0m_Lline=3.5n_Cline=5.1p_Vin=1_0_1_0_1_BitTime=5n_Vout.csv'
p596
s((S'8.0'
S'3.5n'
S'5.8p'
tS'3.0p'
g3
g7
I10
S'5.0'
S'____'
S''
tp597
S'../data/transmission_line_10_dropoffs/MultidropTransient\\tran_Cdrp=3.0p_Rterm=sqrt(Lline_Cline)_Lenline=5.0_Rline=8.0_Lline=3.5n_Cline=5.8p_Vin=1_0_1_0_0_Vout.csv'
p598
s((S'13.0'
S'79.0p'
S'220.0f'
tS'3.0p'
g3
g4
I10
S'5.0'
S'____'
S''
tp599
S'../data/transmission_line_10_dropoffs/MultidropBode\\ac_Cdrp=3.0p_Rterm=sqrt(Lline_Cline)_Lenline=5.0_Rline=13.0_Lline=79.0p_Cline=220.0f_Vin=1_0_1_0_1_Vout.csv'
p600
s((S'6.0'
S'2.0n'
S'3.0p'
tS'1.0p'
g64
g7
I10
S'1.0'
S'10101'
S'10n'
tp601
S'..\\data\\transmission_line_10_dropoffs\\MultidropTransient\\tran_Cdrp=1.0p_Rterm=sqrt(Lline_Cline)_Lenline=1.0_Rline=6.0_Lline=2.0n_Cline=3.0p_Vin=1_0_1_0_1_BitTime=10n_Vout.csv'
p602
s((S'8.0'
S'2.4n'
S'220.0f'
tS'3.0p'
g3
g7
I10
S'5.0'
S'____'
S''
tp603
S'../data/transmission_line_10_dropoffs/MultidropTransient\\tran_Cdrp=3.0p_Rterm=sqrt(Lline_Cline)_Lenline=5.0_Rline=8.0_Lline=2.4n_Cline=220.0f_Vin=1_0_1_0_0_Vout.csv'
p604
s((S'12.0'
S'2.4n'
S'220.0f'
tS'3.0p'
g3
g4
I10
S'5.0'
S'____'
S''
tp605
S'../data/transmission_line_10_dropoffs/MultidropBode\\ac_Cdrp=3.0p_Rterm=sqrt(Lline_Cline)_Lenline=5.0_Rline=12.0_Lline=2.4n_Cline=220.0f_Vin=1_0_1_0_0_Vout.csv'
p606
s((S'18.0'
S'79.0p'
S'220.0f'
tS'3.0p'
g3
g4
I10
S'5.0'
S'____'
S''
tp607
S'../data/transmission_line_10_dropoffs/MultidropBode\\ac_Cdrp=3.0p_Rterm=sqrt(Lline_Cline)_Lenline=5.0_Rline=18.0_Lline=79.0p_Cline=220.0f_Vin=1_0_1_0_1_Vout.csv'
p608
s((S'3.0'
S'2.4n'
S'4.6p'
tS'3.0p'
g3
g7
I10
S'5.0'
S'____'
S''
tp609
S'../data/transmission_line_10_dropoffs/MultidropTransient\\tran_Cdrp=3.0p_Rterm=sqrt(Lline_Cline)_Lenline=5.0_Rline=3.0_Lline=2.4n_Cline=4.6p_Vin=1_0_1_0_1_Vout.csv'
p610
s((S'15.0'
S'2.0n'
S'3.0p'
tS'1.0p'
g64
g7
I10
S'1.0'
S'10101'
S'10n'
tp611
S'..\\data\\transmission_line_10_dropoffs\\MultidropTransient\\tran_Cdrp=1.0p_Rterm=sqrt(Lline_Cline)_Lenline=1.0_Rline=15.0_Lline=2.0n_Cline=3.0p_Vin=1_0_1_0_1_BitTime=10n_Vout.csv'
p612
s((S'15.0'
S'3.0n'
S'5.8p'
tS'3.0p'
g3
g4
I10
S'5.0'
S'______'
S'=3n'
tp613
S'../data/transmission_line_10_dropoffs/MultidropBode\\ac_Cdrp=3.0p_Rterm=sqrt(Lline_Cline)_Lenline=5.0_Rline=15.0_Lline=3.0n_Cline=5.8p_Vin=0_1_1_0_0_1_0_BitTime=3n_Vout.csv'
p614
s((S'20.0m'
S'500.0p'
S'200.0f'
tS'1.0p'
g3
g7
I10
S'1.0'
S'____'
S'=1n'
tp615
S'../data/transmission_line_10_dropoffs/MultidropTransient\\tran_Cdrp=1.0p_Rterm=sqrt(Lline_Cline)_Lenline=1.0_Rline=20.0m_Lline=500.0p_Cline=200.0f_Vin=1_1_1_0_1_BitTime=1n_Vout.csv'
p616
s((S'10.0'
S'2.4n'
S'4.6p'
tS'3.0p'
g3
g7
I10
S'5.0'
S'____'
S''
tp617
S'../data/transmission_line_10_dropoffs/MultidropTransient\\tran_Cdrp=3.0p_Rterm=sqrt(Lline_Cline)_Lenline=5.0_Rline=10.0_Lline=2.4n_Cline=4.6p_Vin=1_0_1_0_1_Vout.csv'
p618
s((S'5.0'
S'2.0n'
S'3.0p'
tS'1.0p'
g64
g4
I10
S'1.0'
S'10101'
S'10n'
tp619
S'..\\data\\transmission_line_10_dropoffs\\MultidropBode\\ac_Cdrp=1.0p_Rterm=sqrt(Lline_Cline)_Lenline=1.0_Rline=5.0_Lline=2.0n_Cline=3.0p_Vin=1_0_1_0_1_BitTime=10n_Vout.csv'
p620
s((S'4.0'
S'3.5n'
S'5.1p'
tS'2.0p'
g3
g7
I10
S'6.0'
S'____'
S'=10n'
tp621
S'../data/transmission_line_10_dropoffs/MultidropTransient\\tran_Cdrp=2.0p_Rterm=sqrt(Lline_Cline)_Lenline=6.0_Rline=4.0_Lline=3.5n_Cline=5.1p_Vin=1_0_1_0_1_BitTime=10n_Vout.csv'
p622
s((S'1.4'
S'2.4n'
S'220.0f'
tS'3.0p'
g3
g7
I10
S'5.0'
S'____'
S''
tp623
S'../data/transmission_line_10_dropoffs/MultidropTransient\\tran_Cdrp=3.0p_Rterm=sqrt(Lline_Cline)_Lenline=5.0_Rline=1.4_Lline=2.4n_Cline=220.0f_Vin=1_0_1_0_0_Vout.csv'
p624
s((S'820.0m'
S'2.4n'
S'4.6p'
tS'1.0p'
g3
g4
I10
S'5.0'
S'____'
S''
tp625
S'../data/transmission_line_10_dropoffs/MultidropBode\\ac_Cdrp=1.0p_Rterm=sqrt(Lline_Cline)_Lenline=5.0_Rline=820.0m_Lline=2.4n_Cline=4.6p_Vin=1_0_1_0_0_Vout.csv'
p626
s((S'420.0m'
S'1.0n'
S'2.3p'
tS'2.0p'
g3
g7
I28
S'4.0'
S'____'
S''
tp627
S'../data/transmission_line_28_dropoffs/MultidropTransient\\tran_Cdrp=2.0p_Rterm=sqrt(Lline_Cline)_Lenline=4.0_Rline=420.0m_Lline=1.0n_Cline=2.3p_Vin=1_0_0_0_0_Vout.csv'
p628
s((S'16.0'
S'79.0p'
S'220.0f'
tS'1.0p'
g3
g4
I10
S'1.0'
S'____'
S''
tp629
S'../data/transmission_line_10_dropoffs/MultidropBode\\ac_Cdrp=1.0p_Rterm=sqrt(Lline_Cline)_Lenline=1.0_Rline=16.0_Lline=79.0p_Cline=220.0f_Vin=1_0_0_0_0_Vout.csv'
p630
s((S'620.0m'
S'3.5n'
S'5.8p'
tS'3.0p'
g3
g7
I10
S'5.0'
S'____'
S''
tp631
S'../data/transmission_line_10_dropoffs/MultidropTransient\\tran_Cdrp=3.0p_Rterm=sqrt(Lline_Cline)_Lenline=5.0_Rline=620.0m_Lline=3.5n_Cline=5.8p_Vin=1_0_1_0_0_Vout.csv'
p632
s((S'18.0'
S'3.5n'
S'5.1p'
tS'2.0p'
g3
g4
I10
S'6.0'
S'____'
S'=5n'
tp633
S'../data/transmission_line_10_dropoffs/MultidropBode\\ac_Cdrp=2.0p_Rterm=sqrt(Lline_Cline)_Lenline=6.0_Rline=18.0_Lline=3.5n_Cline=5.1p_Vin=1_0_1_0_1_BitTime=5n_Vout.csv'
p634
s((S'10.0'
S'2.0n'
S'3.0p'
tS'1.0p'
g64
g4
I10
S'1.0'
S'10101'
S'10n'
tp635
S'..\\data\\transmission_line_10_dropoffs\\MultidropBode\\ac_Cdrp=1.0p_Rterm=sqrt(Lline_Cline)_Lenline=1.0_Rline=10.0_Lline=2.0n_Cline=3.0p_Vin=1_0_1_0_1_BitTime=10n_Vout.csv'
p636
s((S'9.0'
S'3.5n'
S'5.1p'
tS'2.0p'
g3
g4
I10
S'6.0'
S'____'
S'=10n'
tp637
S'../data/transmission_line_10_dropoffs/MultidropBode\\ac_Cdrp=2.0p_Rterm=sqrt(Lline_Cline)_Lenline=6.0_Rline=9.0_Lline=3.5n_Cline=5.1p_Vin=1_0_1_0_1_BitTime=10n_Vout.csv'
p638
s((S'19.0'
S'2.4n'
S'220.0f'
tS'3.0p'
g3
g7
I10
S'5.0'
S'____'
S''
tp639
S'../data/transmission_line_10_dropoffs/MultidropTransient\\tran_Cdrp=3.0p_Rterm=sqrt(Lline_Cline)_Lenline=5.0_Rline=19.0_Lline=2.4n_Cline=220.0f_Vin=1_0_1_0_0_Vout.csv'
p640
s((S'820.0m'
S'2.4n'
S'4.6p'
tS'1.0p'
g3
g7
I10
S'5.0'
S'____'
S''
tp641
S'../data/transmission_line_10_dropoffs/MultidropTransient\\tran_Cdrp=1.0p_Rterm=sqrt(Lline_Cline)_Lenline=5.0_Rline=820.0m_Lline=2.4n_Cline=4.6p_Vin=1_0_1_0_0_Vout.csv'
p642
s((S'20.0m'
S'500.0p'
S'200.0f'
tS'3.0p'
g3
g7
I10
S'5.0'
S'___'
S''
tp643
S'../data/transmission_line_10_dropoffs/MultidropTransient\\tran_Cdrp=3.0p_Rterm=sqrt(Lline_Cline)_Lenline=5.0_Rline=20.0m_Lline=500.0p_Cline=200.0f_Vin=0_1_0_1_Vout.csv'
p644
s((S'2.0'
S'3.0n'
S'5.8p'
tS'3.0p'
g3
g4
I10
S'5.0'
S'______'
S'=3n'
tp645
S'../data/transmission_line_10_dropoffs/MultidropBode\\ac_Cdrp=3.0p_Rterm=sqrt(Lline_Cline)_Lenline=5.0_Rline=2.0_Lline=3.0n_Cline=5.8p_Vin=0_1_1_0_0_1_0_BitTime=3n_Vout.csv'
p646
s((S'5.0'
S'3.0n'
S'5.8p'
tS'3.0p'
g3
g4
I10
S'5.0'
S'______'
S'=3n'
tp647
S'../data/transmission_line_10_dropoffs/MultidropBode\\ac_Cdrp=3.0p_Rterm=sqrt(Lline_Cline)_Lenline=5.0_Rline=5.0_Lline=3.0n_Cline=5.8p_Vin=0_1_1_0_0_1_0_BitTime=3n_Vout.csv'
p648
s((S'13.0'
S'2.4n'
S'4.6p'
tS'3.0p'
g3
g7
I10
S'5.0'
S'____'
S''
tp649
S'../data/transmission_line_10_dropoffs/MultidropTransient\\tran_Cdrp=3.0p_Rterm=sqrt(Lline_Cline)_Lenline=5.0_Rline=13.0_Lline=2.4n_Cline=4.6p_Vin=1_0_1_0_1_Vout.csv'
p650
s((S'420.0m'
S'500.0p'
S'200.0f'
tS'1.0p'
g3
g4
I10
S'1.0'
S'_____'
S'=5n'
tp651
S'../data/transmission_line_10_dropoffs/MultidropBode\\ac_Cdrp=1.0p_Rterm=sqrt(Lline_Cline)_Lenline=1.0_Rline=420.0m_Lline=500.0p_Cline=200.0f_Vin=1_1_1_0_1_1_BitTime=5n_Vout.csv'
p652
s((S'14.0'
S'79.0p'
S'220.0f'
tS'1.0p'
g3
g4
I10
S'1.0'
S'____'
S''
tp653
S'../data/transmission_line_10_dropoffs/MultidropBode\\ac_Cdrp=1.0p_Rterm=sqrt(Lline_Cline)_Lenline=1.0_Rline=14.0_Lline=79.0p_Cline=220.0f_Vin=1_0_0_0_0_Vout.csv'
p654
s((S'16.0'
S'2.0n'
S'3.0p'
tS'1.0p'
g64
g4
I10
S'1.0'
S'10101'
S'10n'
tp655
S'..\\data\\transmission_line_10_dropoffs\\MultidropBode\\ac_Cdrp=1.0p_Rterm=sqrt(Lline_Cline)_Lenline=1.0_Rline=16.0_Lline=2.0n_Cline=3.0p_Vin=1_0_1_0_1_BitTime=10n_Vout.csv'
p656
s((S'420.0m'
S'3.5n'
S'5.8p'
tS'3.0p'
g3
g7
I10
S'5.0'
S'____'
S''
tp657
S'../data/transmission_line_10_dropoffs/MultidropTransient\\tran_Cdrp=3.0p_Rterm=sqrt(Lline_Cline)_Lenline=5.0_Rline=420.0m_Lline=3.5n_Cline=5.8p_Vin=1_0_1_0_0_Vout.csv'
p658
s((S'1.0'
S'2.4n'
S'4.6p'
tS'1.0p'
g3
g7
I10
S'5.0'
S'____'
S''
tp659
S'../data/transmission_line_10_dropoffs/MultidropTransient\\tran_Cdrp=1.0p_Rterm=sqrt(Lline_Cline)_Lenline=5.0_Rline=1.0_Lline=2.4n_Cline=4.6p_Vin=1_0_1_0_0_Vout.csv'
p660
s((S'1.0'
S'2.4n'
S'4.6p'
tS'3.0p'
g3
g7
I10
S'5.0'
S'____'
S''
tp661
S'../data/transmission_line_10_dropoffs/MultidropTransient\\tran_Cdrp=3.0p_Rterm=sqrt(Lline_Cline)_Lenline=5.0_Rline=1.0_Lline=2.4n_Cline=4.6p_Vin=1_0_1_0_1_Vout.csv'
p662
s((S'820.0m'
S'3.5n'
S'5.1p'
tS'2.0p'
g3
g7
I10
S'6.0'
S'____'
S'=5n'
tp663
S'../data/transmission_line_10_dropoffs/MultidropTransient\\tran_Cdrp=2.0p_Rterm=sqrt(Lline_Cline)_Lenline=6.0_Rline=820.0m_Lline=3.5n_Cline=5.1p_Vin=1_0_1_0_1_BitTime=5n_Vout.csv'
p664
s((S'9.0'
S'3.0n'
S'5.8p'
tS'3.0p'
g3
g7
I10
S'5.0'
S'______'
S'=3n'
tp665
S'../data/transmission_line_10_dropoffs/MultidropTransient\\tran_Cdrp=3.0p_Rterm=sqrt(Lline_Cline)_Lenline=5.0_Rline=9.0_Lline=3.0n_Cline=5.8p_Vin=0_1_1_0_0_1_0_BitTime=3n_Vout.csv'
p666
s((S'3.0'
S'3.5n'
S'5.8p'
tS'3.0p'
g3
g4
I10
S'5.0'
S'____'
S''
tp667
S'../data/transmission_line_10_dropoffs/MultidropBode\\ac_Cdrp=3.0p_Rterm=sqrt(Lline_Cline)_Lenline=5.0_Rline=3.0_Lline=3.5n_Cline=5.8p_Vin=1_0_1_0_0_Vout.csv'
p668
s((S'4.0'
S'79.0p'
S'220.0f'
tS'3.0p'
g3
g7
I10
S'5.0'
S'____'
S''
tp669
S'../data/transmission_line_10_dropoffs/MultidropTransient\\tran_Cdrp=3.0p_Rterm=sqrt(Lline_Cline)_Lenline=5.0_Rline=4.0_Lline=79.0p_Cline=220.0f_Vin=1_0_1_0_1_Vout.csv'
p670
s((S'9.0'
S'2.4n'
S'4.6p'
tS'3.0p'
g3
g7
I10
S'5.0'
S'____'
S''
tp671
S'../data/transmission_line_10_dropoffs/MultidropTransient\\tran_Cdrp=3.0p_Rterm=sqrt(Lline_Cline)_Lenline=5.0_Rline=9.0_Lline=2.4n_Cline=4.6p_Vin=1_0_1_0_1_Vout.csv'
p672
s((S'18.0'
S'3.0n'
S'5.8p'
tS'3.0p'
g3
g7
I10
S'5.0'
S'______'
S'=3n'
tp673
S'../data/transmission_line_10_dropoffs/MultidropTransient\\tran_Cdrp=3.0p_Rterm=sqrt(Lline_Cline)_Lenline=5.0_Rline=18.0_Lline=3.0n_Cline=5.8p_Vin=0_1_1_0_0_1_0_BitTime=3n_Vout.csv'
p674
s((S'3.0'
S'79.0p'
S'220.0f'
tS'3.0p'
g3
g7
I10
S'5.0'
S'____'
S''
tp675
S'../data/transmission_line_10_dropoffs/MultidropTransient\\tran_Cdrp=3.0p_Rterm=sqrt(Lline_Cline)_Lenline=5.0_Rline=3.0_Lline=79.0p_Cline=220.0f_Vin=1_0_1_0_1_Vout.csv'
p676
s((S'20.0m'
S'4.0n'
S'9.0p'
tS'3.0p'
g3
g7
I10
S'5.0'
S'____'
S''
tp677
S'../data/transmission_line_10_dropoffs/MultidropTransient\\tran_Cdrp=3.0p_Rterm=sqrt(Lline_Cline)_Lenline=5.0_Rline=20.0m_Lline=4.0n_Cline=9.0p_Vin=1_0_1_0_1_Vout.csv'
p678
s((S'9.0'
S'2.0n'
S'3.0p'
tS'1.0p'
g64
g4
I10
S'1.0'
S'10101'
S'10n'
tp679
S'..\\data\\transmission_line_10_dropoffs\\MultidropBode\\ac_Cdrp=1.0p_Rterm=sqrt(Lline_Cline)_Lenline=1.0_Rline=9.0_Lline=2.0n_Cline=3.0p_Vin=1_0_1_0_1_BitTime=10n_Vout.csv'
p680
s((S'20.0'
S'79.0n'
S'220.0f'
tS'3.0p'
g3
g7
I10
S'5.0'
S'____'
S''
tp681
S'../data/transmission_line_10_dropoffs/MultidropTransient\\tran_Cdrp=3.0p_Rterm=sqrt(Lline_Cline)_Lenline=5.0_Rline=20.0_Lline=79.0n_Cline=220.0f_Vin=0_0_0_0_0_Vout.csv'
p682
s((S'15.0'
S'79.0p'
S'220.0f'
tS'3.0p'
g3
g7
I10
S'5.0'
S'____'
S''
tp683
S'../data/transmission_line_10_dropoffs/MultidropTransient\\tran_Cdrp=3.0p_Rterm=sqrt(Lline_Cline)_Lenline=5.0_Rline=15.0_Lline=79.0p_Cline=220.0f_Vin=1_0_1_0_1_Vout.csv'
p684
s((S'19.0'
S'79.0p'
S'220.0f'
tS'1.0p'
g3
g7
I10
S'1.0'
S'____'
S''
tp685
S'../data/transmission_line_10_dropoffs/MultidropTransient\\tran_Cdrp=1.0p_Rterm=sqrt(Lline_Cline)_Lenline=1.0_Rline=19.0_Lline=79.0p_Cline=220.0f_Vin=1_0_0_0_0_Vout.csv'
p686
s((S'7.0'
S'2.4n'
S'4.6p'
tS'1.0p'
g3
g7
I10
S'5.0'
S'____'
S''
tp687
S'../data/transmission_line_10_dropoffs/MultidropTransient\\tran_Cdrp=1.0p_Rterm=sqrt(Lline_Cline)_Lenline=5.0_Rline=7.0_Lline=2.4n_Cline=4.6p_Vin=1_0_1_0_0_Vout.csv'
p688
s((S'6.0'
S'2.4n'
S'220.0f'
tS'3.0p'
g3
g7
I10
S'5.0'
S'____'
S''
tp689
S'../data/transmission_line_10_dropoffs/MultidropTransient\\tran_Cdrp=3.0p_Rterm=sqrt(Lline_Cline)_Lenline=5.0_Rline=6.0_Lline=2.4n_Cline=220.0f_Vin=1_0_1_0_0_Vout.csv'
p690
s((S'19.0'
S'79.0p'
S'220.0f'
tS'3.0p'
g3
g4
I10
S'5.0'
S'____'
S''
tp691
S'../data/transmission_line_10_dropoffs/MultidropBode\\ac_Cdrp=3.0p_Rterm=sqrt(Lline_Cline)_Lenline=5.0_Rline=19.0_Lline=79.0p_Cline=220.0f_Vin=1_0_1_0_1_Vout.csv'
p692
s((S'15.0'
S'3.5n'
S'5.1p'
tS'2.0p'
g3
g4
I10
S'6.0'
S'____'
S'=10n'
tp693
S'../data/transmission_line_10_dropoffs/MultidropBode\\ac_Cdrp=2.0p_Rterm=sqrt(Lline_Cline)_Lenline=6.0_Rline=15.0_Lline=3.5n_Cline=5.1p_Vin=1_0_1_0_1_BitTime=10n_Vout.csv'
p694
s((S'1.6'
S'2.4n'
S'220.0f'
tS'3.0p'
g3
g7
I10
S'5.0'
S'____'
S''
tp695
S'../data/transmission_line_10_dropoffs/MultidropTransient\\tran_Cdrp=3.0p_Rterm=sqrt(Lline_Cline)_Lenline=5.0_Rline=1.6_Lline=2.4n_Cline=220.0f_Vin=1_0_1_0_0_Vout.csv'
p696
s((S'1.0'
S'2.4n'
S'4.6p'
tS'1.0p'
g3
g4
I10
S'5.0'
S'____'
S''
tp697
S'../data/transmission_line_10_dropoffs/MultidropBode\\ac_Cdrp=1.0p_Rterm=sqrt(Lline_Cline)_Lenline=5.0_Rline=1.0_Lline=2.4n_Cline=4.6p_Vin=1_0_1_0_0_Vout.csv'
p698
s((S'10.0'
S'3.5n'
S'5.1p'
tS'2.0p'
g3
g4
I10
S'6.0'
S'____'
S'=10n'
tp699
S'../data/transmission_line_10_dropoffs/MultidropBode\\ac_Cdrp=2.0p_Rterm=sqrt(Lline_Cline)_Lenline=6.0_Rline=10.0_Lline=3.5n_Cline=5.1p_Vin=1_0_1_0_1_BitTime=10n_Vout.csv'
p700
s((S'8.0'
S'2.4n'
S'4.6p'
tS'3.0p'
g3
g7
I10
S'5.0'
S'____'
S''
tp701
S'../data/transmission_line_10_dropoffs/MultidropTransient\\tran_Cdrp=3.0p_Rterm=sqrt(Lline_Cline)_Lenline=5.0_Rline=8.0_Lline=2.4n_Cline=4.6p_Vin=1_0_1_0_1_Vout.csv'
p702
s((S'220.0m'
S'3.5n'
S'5.1p'
tS'2.0p'
g3
g4
I10
S'6.0'
S'____'
S'=10n'
tp703
S'../data/transmission_line_10_dropoffs/MultidropBode\\ac_Cdrp=2.0p_Rterm=sqrt(Lline_Cline)_Lenline=6.0_Rline=220.0m_Lline=3.5n_Cline=5.1p_Vin=1_0_1_0_1_BitTime=10n_Vout.csv'
p704
s((S'14.0'
S'3.5n'
S'5.8p'
tS'3.0p'
g3
g7
I10
S'5.0'
S'____'
S''
tp705
S'../data/transmission_line_10_dropoffs/MultidropTransient\\tran_Cdrp=3.0p_Rterm=sqrt(Lline_Cline)_Lenline=5.0_Rline=14.0_Lline=3.5n_Cline=5.8p_Vin=1_0_1_0_0_Vout.csv'
p706
s((S'12.0'
S'2.4n'
S'220.0f'
tS'3.0p'
g3
g7
I10
S'5.0'
S'____'
S''
tp707
S'../data/transmission_line_10_dropoffs/MultidropTransient\\tran_Cdrp=3.0p_Rterm=sqrt(Lline_Cline)_Lenline=5.0_Rline=12.0_Lline=2.4n_Cline=220.0f_Vin=1_0_1_0_0_Vout.csv'
p708
s((S'820.0m'
S'3.5n'
S'5.1p'
tS'2.0p'
g3
g4
I10
S'6.0'
S'____'
S'=5n'
tp709
S'../data/transmission_line_10_dropoffs/MultidropBode\\ac_Cdrp=2.0p_Rterm=sqrt(Lline_Cline)_Lenline=6.0_Rline=820.0m_Lline=3.5n_Cline=5.1p_Vin=1_0_1_0_1_BitTime=5n_Vout.csv'
p710
s((S'8.0'
S'3.0n'
S'5.8p'
tS'3.0p'
g3
g7
I10
S'5.0'
S'______'
S'=3n'
tp711
S'../data/transmission_line_10_dropoffs/MultidropTransient\\tran_Cdrp=3.0p_Rterm=sqrt(Lline_Cline)_Lenline=5.0_Rline=8.0_Lline=3.0n_Cline=5.8p_Vin=0_1_1_0_0_1_0_BitTime=3n_Vout.csv'
p712
s((S'20.0'
S'3.5n'
S'5.1p'
tS'2.0p'
g3
g7
I10
S'6.0'
S'____'
S'=5n'
tp713
S'../data/transmission_line_10_dropoffs/MultidropTransient\\tran_Cdrp=2.0p_Rterm=sqrt(Lline_Cline)_Lenline=6.0_Rline=20.0_Lline=3.5n_Cline=5.1p_Vin=1_0_1_0_1_BitTime=5n_Vout.csv'
p714
s((S'20.0m'
S'500.0p'
S'200.0f'
tS'1.0p'
g3
g7
I10
S'1.0'
S'_____'
S''
tp715
S'../data/transmission_line_10_dropoffs/MultidropTransient\\tran_Cdrp=1.0p_Rterm=sqrt(Lline_Cline)_Lenline=1.0_Rline=20.0m_Lline=500.0p_Cline=200.0f_Vin=1_1_1_0_1_1_Vout.csv'
p716
s((S'17.0'
S'79.0p'
S'220.0f'
tS'1.0p'
g3
g4
I10
S'1.0'
S'____'
S''
tp717
S'../data/transmission_line_10_dropoffs/MultidropBode\\ac_Cdrp=1.0p_Rterm=sqrt(Lline_Cline)_Lenline=1.0_Rline=17.0_Lline=79.0p_Cline=220.0f_Vin=1_0_0_0_0_Vout.csv'
p718
s((S'14.0'
S'4.0n'
S'9.0p'
tS'3.0p'
g3
g4
I10
S'5.0'
S'____'
S''
tp719
S'../data/transmission_line_10_dropoffs/MultidropBode\\ac_Cdrp=3.0p_Rterm=sqrt(Lline_Cline)_Lenline=5.0_Rline=14.0_Lline=4.0n_Cline=9.0p_Vin=1_0_1_0_1_Vout.csv'
p720
s((S'200.0m'
S'7.9n'
S'10.0p'
tS'3.0p'
g3
g7
I10
S'5.0'
S'______'
S'=4n'
tp721
S'../data/transmission_line_10_dropoffs/MultidropTransient\\tran_Cdrp=3.0p_Rterm=sqrt(Lline_Cline)_Lenline=5.0_Rline=200.0m_Lline=7.9n_Cline=10.0p_Vin=1_1_1_0_1_1_0_BitTime=4n_Vout.csv'
p722
s((S'2.0'
S'2.0n'
S'3.0p'
tS'1.0p'
g64
g7
I10
S'1.0'
S'10101'
S'10n'
tp723
S'..\\data\\transmission_line_10_dropoffs\\MultidropTransient\\tran_Cdrp=1.0p_Rterm=sqrt(Lline_Cline)_Lenline=1.0_Rline=2.0_Lline=2.0n_Cline=3.0p_Vin=1_0_1_0_1_BitTime=10n_Vout.csv'
p724
s((S'220.0m'
S'2.4n'
S'220.0f'
tS'3.0p'
g3
g4
I10
S'5.0'
S'____'
S''
tp725
S'../data/transmission_line_10_dropoffs/MultidropBode\\ac_Cdrp=3.0p_Rterm=sqrt(Lline_Cline)_Lenline=5.0_Rline=220.0m_Lline=2.4n_Cline=220.0f_Vin=1_0_1_0_0_Vout.csv'
p726
s((S'11.0'
S'3.5n'
S'5.1p'
tS'2.0p'
g3
g4
I10
S'6.0'
S'____'
S'=5n'
tp727
S'../data/transmission_line_10_dropoffs/MultidropBode\\ac_Cdrp=2.0p_Rterm=sqrt(Lline_Cline)_Lenline=6.0_Rline=11.0_Lline=3.5n_Cline=5.1p_Vin=1_0_1_0_1_BitTime=5n_Vout.csv'
p728
s((S'4.0'
S'79.0p'
S'220.0f'
tS'3.0p'
g3
g4
I10
S'5.0'
S'____'
S''
tp729
S'../data/transmission_line_10_dropoffs/MultidropBode\\ac_Cdrp=3.0p_Rterm=sqrt(Lline_Cline)_Lenline=5.0_Rline=4.0_Lline=79.0p_Cline=220.0f_Vin=1_0_1_0_1_Vout.csv'
p730
s((S'18.0'
S'4.0n'
S'9.0p'
tS'3.0p'
g3
g7
I10
S'5.0'
S'____'
S''
tp731
S'../data/transmission_line_10_dropoffs/MultidropTransient\\tran_Cdrp=3.0p_Rterm=sqrt(Lline_Cline)_Lenline=5.0_Rline=18.0_Lline=4.0n_Cline=9.0p_Vin=1_0_1_0_1_Vout.csv'
p732
s((S'5.0'
S'3.0n'
S'5.8p'
tS'3.0p'
g3
g7
I10
S'5.0'
S'______'
S'=3n'
tp733
S'../data/transmission_line_10_dropoffs/MultidropTransient\\tran_Cdrp=3.0p_Rterm=sqrt(Lline_Cline)_Lenline=5.0_Rline=5.0_Lline=3.0n_Cline=5.8p_Vin=0_1_1_0_0_1_0_BitTime=3n_Vout.csv'
p734
s((S'1.8'
S'2.4n'
S'220.0f'
tS'3.0p'
g3
g7
I10
S'5.0'
S'____'
S''
tp735
S'../data/transmission_line_10_dropoffs/MultidropTransient\\tran_Cdrp=3.0p_Rterm=sqrt(Lline_Cline)_Lenline=5.0_Rline=1.8_Lline=2.4n_Cline=220.0f_Vin=1_0_1_0_0_Vout.csv'
p736
s((S'4.0'
S'2.4n'
S'4.6p'
tS'3.0p'
g3
g4
I10
S'5.0'
S'____'
S''
tp737
S'../data/transmission_line_10_dropoffs/MultidropBode\\ac_Cdrp=3.0p_Rterm=sqrt(Lline_Cline)_Lenline=5.0_Rline=4.0_Lline=2.4n_Cline=4.6p_Vin=1_0_1_0_1_Vout.csv'
p738
s((S'12.0'
S'2.4n'
S'4.6p'
tS'1.0p'
g3
g7
I10
S'5.0'
S'____'
S''
tp739
S'../data/transmission_line_10_dropoffs/MultidropTransient\\tran_Cdrp=1.0p_Rterm=sqrt(Lline_Cline)_Lenline=5.0_Rline=12.0_Lline=2.4n_Cline=4.6p_Vin=1_0_1_0_0_Vout.csv'
p740
s((S'1.0'
S'79.0p'
S'220.0f'
tS'3.0p'
g3
g7
I10
S'5.0'
S'____'
S''
tp741
S'../data/transmission_line_10_dropoffs/MultidropTransient\\tran_Cdrp=3.0p_Rterm=sqrt(Lline_Cline)_Lenline=5.0_Rline=1.0_Lline=79.0p_Cline=220.0f_Vin=1_0_1_0_1_Vout.csv'
p742
s((S'4.0'
S'3.5n'
S'5.1p'
tS'2.0p'
g3
g7
I10
S'6.0'
S'____'
S'=5n'
tp743
S'../data/transmission_line_10_dropoffs/MultidropTransient\\tran_Cdrp=2.0p_Rterm=sqrt(Lline_Cline)_Lenline=6.0_Rline=4.0_Lline=3.5n_Cline=5.1p_Vin=1_0_1_0_1_BitTime=5n_Vout.csv'
p744
s((S'9.0'
S'4.0n'
S'9.0p'
tS'3.0p'
g3
g4
I10
S'5.0'
S'____'
S''
tp745
S'../data/transmission_line_10_dropoffs/MultidropBode\\ac_Cdrp=3.0p_Rterm=sqrt(Lline_Cline)_Lenline=5.0_Rline=9.0_Lline=4.0n_Cline=9.0p_Vin=1_0_1_0_1_Vout.csv'
p746
s((S'20.0m'
S'3.5n'
S'5.1p'
tS'2.0p'
g3
g7
I10
S'6.0'
S'____'
S'=5n'
tp747
S'../data/transmission_line_10_dropoffs/MultidropTransient\\tran_Cdrp=2.0p_Rterm=sqrt(Lline_Cline)_Lenline=6.0_Rline=20.0m_Lline=3.5n_Cline=5.1p_Vin=1_0_1_0_1_BitTime=5n_Vout.csv'
p748
s((S'14.0'
S'2.4n'
S'220.0f'
tS'3.0p'
g3
g4
I10
S'5.0'
S'____'
S''
tp749
S'../data/transmission_line_10_dropoffs/MultidropBode\\ac_Cdrp=3.0p_Rterm=sqrt(Lline_Cline)_Lenline=5.0_Rline=14.0_Lline=2.4n_Cline=220.0f_Vin=1_0_1_0_0_Vout.csv'
p750
s((S'7.0'
S'3.5n'
S'5.1p'
tS'2.0p'
g3
g4
I10
S'6.0'
S'____'
S'=5n'
tp751
S'../data/transmission_line_10_dropoffs/MultidropBode\\ac_Cdrp=2.0p_Rterm=sqrt(Lline_Cline)_Lenline=6.0_Rline=7.0_Lline=3.5n_Cline=5.1p_Vin=1_0_1_0_1_BitTime=5n_Vout.csv'
p752
s((S'16.0'
S'79.0p'
S'220.0f'
tS'1.0p'
g3
g7
I10
S'1.0'
S'____'
S''
tp753
S'../data/transmission_line_10_dropoffs/MultidropTransient\\tran_Cdrp=1.0p_Rterm=sqrt(Lline_Cline)_Lenline=1.0_Rline=16.0_Lline=79.0p_Cline=220.0f_Vin=1_0_0_0_0_Vout.csv'
p754
s((S'9.0'
S'2.4n'
S'4.6p'
tS'3.0p'
g3
g4
I10
S'5.0'
S'____'
S''
tp755
S'../data/transmission_line_10_dropoffs/MultidropBode\\ac_Cdrp=3.0p_Rterm=sqrt(Lline_Cline)_Lenline=5.0_Rline=9.0_Lline=2.4n_Cline=4.6p_Vin=1_0_1_0_1_Vout.csv'
p756
s((S'9.0'
S'3.5n'
S'5.1p'
tS'2.0p'
g3
g4
I10
S'6.0'
S'____'
S'=5n'
tp757
S'../data/transmission_line_10_dropoffs/MultidropBode\\ac_Cdrp=2.0p_Rterm=sqrt(Lline_Cline)_Lenline=6.0_Rline=9.0_Lline=3.5n_Cline=5.1p_Vin=1_0_1_0_1_BitTime=5n_Vout.csv'
p758
s((S'1.6'
S'4.0n'
S'9.0p'
tS'3.0p'
g3
g7
I10
S'5.0'
S'____'
S''
tp759
S'../data/transmission_line_10_dropoffs/MultidropTransient\\tran_Cdrp=3.0p_Rterm=sqrt(Lline_Cline)_Lenline=5.0_Rline=1.6_Lline=4.0n_Cline=9.0p_Vin=1_0_1_0_1_Vout.csv'
p760
s((S'9.0'
S'3.5n'
S'5.1p'
tS'2.0p'
g3
g7
I10
S'6.0'
S'____'
S'=5n'
tp761
S'../data/transmission_line_10_dropoffs/MultidropTransient\\tran_Cdrp=2.0p_Rterm=sqrt(Lline_Cline)_Lenline=6.0_Rline=9.0_Lline=3.5n_Cline=5.1p_Vin=1_0_1_0_1_BitTime=5n_Vout.csv'
p762
s((S'18.0'
S'3.5n'
S'5.1p'
tS'2.0p'
g3
g4
I10
S'6.0'
S'____'
S'=10n'
tp763
S'../data/transmission_line_10_dropoffs/MultidropBode\\ac_Cdrp=2.0p_Rterm=sqrt(Lline_Cline)_Lenline=6.0_Rline=18.0_Lline=3.5n_Cline=5.1p_Vin=1_0_1_0_1_BitTime=10n_Vout.csv'
p764
s((S'3.0'
S'3.5n'
S'5.1p'
tS'2.0p'
g3
g7
I10
S'6.0'
S'____'
S'=5n'
tp765
S'../data/transmission_line_10_dropoffs/MultidropTransient\\tran_Cdrp=2.0p_Rterm=sqrt(Lline_Cline)_Lenline=6.0_Rline=3.0_Lline=3.5n_Cline=5.1p_Vin=1_0_1_0_1_BitTime=5n_Vout.csv'
p766
s((S'13.0'
S'3.5n'
S'5.8p'
tS'3.0p'
g3
g4
I10
S'5.0'
S'____'
S''
tp767
S'../data/transmission_line_10_dropoffs/MultidropBode\\ac_Cdrp=3.0p_Rterm=sqrt(Lline_Cline)_Lenline=5.0_Rline=13.0_Lline=3.5n_Cline=5.8p_Vin=1_0_1_0_0_Vout.csv'
p768
s((S'5.0'
S'3.5n'
S'5.8p'
tS'3.0p'
g3
g4
I10
S'5.0'
S'____'
S''
tp769
S'../data/transmission_line_10_dropoffs/MultidropBode\\ac_Cdrp=3.0p_Rterm=sqrt(Lline_Cline)_Lenline=5.0_Rline=5.0_Lline=3.5n_Cline=5.8p_Vin=1_0_1_0_0_Vout.csv'
p770
s((S'15.0'
S'3.0n'
S'5.8p'
tS'3.0p'
g3
g7
I10
S'5.0'
S'______'
S'=3n'
tp771
S'../data/transmission_line_10_dropoffs/MultidropTransient\\tran_Cdrp=3.0p_Rterm=sqrt(Lline_Cline)_Lenline=5.0_Rline=15.0_Lline=3.0n_Cline=5.8p_Vin=0_1_1_0_0_1_0_BitTime=3n_Vout.csv'
p772
s((S'5.0'
S'2.0n'
S'3.0p'
tS'1.0p'
g64
g7
I10
S'1.0'
S'10101'
S'10n'
tp773
S'..\\data\\transmission_line_10_dropoffs\\MultidropTransient\\tran_Cdrp=1.0p_Rterm=sqrt(Lline_Cline)_Lenline=1.0_Rline=5.0_Lline=2.0n_Cline=3.0p_Vin=1_0_1_0_1_BitTime=10n_Vout.csv'
p774
s((S'820.0m'
S'2.0n'
S'3.0p'
tS'1.0p'
g64
g4
I10
S'1.0'
S'10101'
S'10n'
tp775
S'..\\data\\transmission_line_10_dropoffs\\MultidropBode\\ac_Cdrp=1.0p_Rterm=sqrt(Lline_Cline)_Lenline=1.0_Rline=820.0m_Lline=2.0n_Cline=3.0p_Vin=1_0_1_0_1_BitTime=10n_Vout.csv'
p776
s((S'820.0m'
S'2.4n'
S'4.6p'
tS'3.0p'
g3
g4
I10
S'5.0'
S'____'
S''
tp777
S'../data/transmission_line_10_dropoffs/MultidropBode\\ac_Cdrp=3.0p_Rterm=sqrt(Lline_Cline)_Lenline=5.0_Rline=820.0m_Lline=2.4n_Cline=4.6p_Vin=1_0_1_0_1_Vout.csv'
p778
s((S'4.0'
S'2.4n'
S'220.0f'
tS'3.0p'
g3
g7
I10
S'5.0'
S'____'
S''
tp779
S'../data/transmission_line_10_dropoffs/MultidropTransient\\tran_Cdrp=3.0p_Rterm=sqrt(Lline_Cline)_Lenline=5.0_Rline=4.0_Lline=2.4n_Cline=220.0f_Vin=1_0_1_0_0_Vout.csv'
p780
s((S'9.0'
S'2.4n'
S'220.0f'
tS'3.0p'
g3
g7
I10
S'5.0'
S'____'
S''
tp781
S'../data/transmission_line_10_dropoffs/MultidropTransient\\tran_Cdrp=3.0p_Rterm=sqrt(Lline_Cline)_Lenline=5.0_Rline=9.0_Lline=2.4n_Cline=220.0f_Vin=1_0_1_0_0_Vout.csv'
p782
s((S'11.0'
S'2.4n'
S'220.0f'
tS'3.0p'
g3
g7
I10
S'5.0'
S'____'
S''
tp783
S'../data/transmission_line_10_dropoffs/MultidropTransient\\tran_Cdrp=3.0p_Rterm=sqrt(Lline_Cline)_Lenline=5.0_Rline=11.0_Lline=2.4n_Cline=220.0f_Vin=1_0_1_0_0_Vout.csv'
p784
s((S'11.0'
S'79.0p'
S'220.0f'
tS'3.0p'
g3
g7
I10
S'5.0'
S'____'
S''
tp785
S'../data/transmission_line_10_dropoffs/MultidropTransient\\tran_Cdrp=3.0p_Rterm=sqrt(Lline_Cline)_Lenline=5.0_Rline=11.0_Lline=79.0p_Cline=220.0f_Vin=1_0_1_0_1_Vout.csv'
p786
s((S'10.0'
S'2.4n'
S'4.6p'
tS'3.0p'
g3
g4
I10
S'5.0'
S'____'
S''
tp787
S'../data/transmission_line_10_dropoffs/MultidropBode\\ac_Cdrp=3.0p_Rterm=sqrt(Lline_Cline)_Lenline=5.0_Rline=10.0_Lline=2.4n_Cline=4.6p_Vin=1_0_1_0_1_Vout.csv'
p788
s((S'5.0'
S'79.0p'
S'220.0f'
tS'1.0p'
g3
g4
I10
S'1.0'
S'____'
S''
tp789
S'../data/transmission_line_10_dropoffs/MultidropBode\\ac_Cdrp=1.0p_Rterm=sqrt(Lline_Cline)_Lenline=1.0_Rline=5.0_Lline=79.0p_Cline=220.0f_Vin=1_0_0_0_0_Vout.csv'
p790
s((S'19.0'
S'2.4n'
S'4.6p'
tS'3.0p'
g3
g7
I10
S'5.0'
S'____'
S''
tp791
S'../data/transmission_line_10_dropoffs/MultidropTransient\\tran_Cdrp=3.0p_Rterm=sqrt(Lline_Cline)_Lenline=5.0_Rline=19.0_Lline=2.4n_Cline=4.6p_Vin=1_0_1_0_1_Vout.csv'
p792
s((S'3.0'
S'2.4n'
S'220.0f'
tS'3.0p'
g3
g7
I10
S'5.0'
S'____'
S''
tp793
S'../data/transmission_line_10_dropoffs/MultidropTransient\\tran_Cdrp=3.0p_Rterm=sqrt(Lline_Cline)_Lenline=5.0_Rline=3.0_Lline=2.4n_Cline=220.0f_Vin=1_0_1_0_0_Vout.csv'
p794
s((S'13.0'
S'3.5n'
S'5.1p'
tS'2.0p'
g3
g4
I10
S'6.0'
S'____'
S'=5n'
tp795
S'../data/transmission_line_10_dropoffs/MultidropBode\\ac_Cdrp=2.0p_Rterm=sqrt(Lline_Cline)_Lenline=6.0_Rline=13.0_Lline=3.5n_Cline=5.1p_Vin=1_0_1_0_1_BitTime=5n_Vout.csv'
p796
s((S'15.0'
S'2.4n'
S'220.0f'
tS'3.0p'
g3
g4
I10
S'5.0'
S'____'
S''
tp797
S'../data/transmission_line_10_dropoffs/MultidropBode\\ac_Cdrp=3.0p_Rterm=sqrt(Lline_Cline)_Lenline=5.0_Rline=15.0_Lline=2.4n_Cline=220.0f_Vin=1_0_1_0_0_Vout.csv'
p798
s((S'13.0'
S'3.5n'
S'5.8p'
tS'3.0p'
g3
g7
I10
S'5.0'
S'____'
S''
tp799
S'../data/transmission_line_10_dropoffs/MultidropTransient\\tran_Cdrp=3.0p_Rterm=sqrt(Lline_Cline)_Lenline=5.0_Rline=13.0_Lline=3.5n_Cline=5.8p_Vin=1_0_1_0_0_Vout.csv'
p800
s((S'8.0'
S'2.4n'
S'4.6p'
tS'1.0p'
g3
g7
I10
S'5.0'
S'____'
S''
tp801
S'../data/transmission_line_10_dropoffs/MultidropTransient\\tran_Cdrp=1.0p_Rterm=sqrt(Lline_Cline)_Lenline=5.0_Rline=8.0_Lline=2.4n_Cline=4.6p_Vin=1_0_1_0_0_Vout.csv'
p802
s((S'420.0m'
S'3.5n'
S'5.1p'
tS'2.0p'
g3
g4
I10
S'6.0'
S'____'
S'=10n'
tp803
S'../data/transmission_line_10_dropoffs/MultidropBode\\ac_Cdrp=2.0p_Rterm=sqrt(Lline_Cline)_Lenline=6.0_Rline=420.0m_Lline=3.5n_Cline=5.1p_Vin=1_0_1_0_1_BitTime=10n_Vout.csv'
p804
s((S'5.0'
S'79.0p'
S'220.0f'
tS'3.0p'
g3
g7
I10
S'5.0'
S'____'
S''
tp805
S'../data/transmission_line_10_dropoffs/MultidropTransient\\tran_Cdrp=3.0p_Rterm=sqrt(Lline_Cline)_Lenline=5.0_Rline=5.0_Lline=79.0p_Cline=220.0f_Vin=1_0_1_0_1_Vout.csv'
p806
s((S'10.0'
S'4.0n'
S'9.0p'
tS'3.0p'
g3
g4
I10
S'5.0'
S'____'
S''
tp807
S'../data/transmission_line_10_dropoffs/MultidropBode\\ac_Cdrp=3.0p_Rterm=sqrt(Lline_Cline)_Lenline=5.0_Rline=10.0_Lline=4.0n_Cline=9.0p_Vin=1_0_1_0_1_Vout.csv'
p808
s((S'19.0'
S'3.5n'
S'5.1p'
tS'2.0p'
g3
g4
I10
S'6.0'
S'____'
S'=5n'
tp809
S'../data/transmission_line_10_dropoffs/MultidropBode\\ac_Cdrp=2.0p_Rterm=sqrt(Lline_Cline)_Lenline=6.0_Rline=19.0_Lline=3.5n_Cline=5.1p_Vin=1_0_1_0_1_BitTime=5n_Vout.csv'
p810
s((S'20.0m'
S'3.5n'
S'5.8p'
tS'3.0p'
g3
g7
I10
S'5.0'
S'____'
S''
tp811
S'../data/transmission_line_10_dropoffs/MultidropTransient\\tran_Cdrp=3.0p_Rterm=sqrt(Lline_Cline)_Lenline=5.0_Rline=20.0m_Lline=3.5n_Cline=5.8p_Vin=1_0_1_0_0_Vout.csv'
p812
s((S'10.0'
S'2.4n'
S'220.0f'
tS'3.0p'
g3
g4
I10
S'5.0'
S'____'
S''
tp813
S'../data/transmission_line_10_dropoffs/MultidropBode\\ac_Cdrp=3.0p_Rterm=sqrt(Lline_Cline)_Lenline=5.0_Rline=10.0_Lline=2.4n_Cline=220.0f_Vin=1_0_1_0_0_Vout.csv'
p814
s((S'1.4'
S'79.0p'
S'220.0f'
tS'3.0p'
g3
g7
I10
S'5.0'
S'____'
S''
tp815
S'../data/transmission_line_10_dropoffs/MultidropTransient\\tran_Cdrp=3.0p_Rterm=sqrt(Lline_Cline)_Lenline=5.0_Rline=1.4_Lline=79.0p_Cline=220.0f_Vin=1_0_1_0_1_Vout.csv'
p816
s((S'3.0'
S'3.5n'
S'5.1p'
tS'2.0p'
g3
g4
I10
S'6.0'
S'____'
S'=5n'
tp817
S'../data/transmission_line_10_dropoffs/MultidropBode\\ac_Cdrp=2.0p_Rterm=sqrt(Lline_Cline)_Lenline=6.0_Rline=3.0_Lline=3.5n_Cline=5.1p_Vin=1_0_1_0_1_BitTime=5n_Vout.csv'
p818
s((S'11.0'
S'3.5n'
S'5.1p'
tS'2.0p'
g3
g7
I10
S'6.0'
S'____'
S'=10n'
tp819
S'../data/transmission_line_10_dropoffs/MultidropTransient\\tran_Cdrp=2.0p_Rterm=sqrt(Lline_Cline)_Lenline=6.0_Rline=11.0_Lline=3.5n_Cline=5.1p_Vin=1_0_1_0_1_BitTime=10n_Vout.csv'
p820
s((S'1.6'
S'2.4n'
S'4.6p'
tS'3.0p'
g3
g7
I10
S'5.0'
S'____'
S''
tp821
S'../data/transmission_line_10_dropoffs/MultidropTransient\\tran_Cdrp=3.0p_Rterm=sqrt(Lline_Cline)_Lenline=5.0_Rline=1.6_Lline=2.4n_Cline=4.6p_Vin=1_0_1_0_1_Vout.csv'
p822
s((S'7.0'
S'2.0n'
S'3.0p'
tS'1.0p'
g64
g4
I10
S'1.0'
S'10101'
S'10n'
tp823
S'..\\data\\transmission_line_10_dropoffs\\MultidropBode\\ac_Cdrp=1.0p_Rterm=sqrt(Lline_Cline)_Lenline=1.0_Rline=7.0_Lline=2.0n_Cline=3.0p_Vin=1_0_1_0_1_BitTime=10n_Vout.csv'
p824
s((S'8.0'
S'79.0p'
S'220.0f'
tS'3.0p'
g3
g4
I10
S'5.0'
S'____'
S''
tp825
S'../data/transmission_line_10_dropoffs/MultidropBode\\ac_Cdrp=3.0p_Rterm=sqrt(Lline_Cline)_Lenline=5.0_Rline=8.0_Lline=79.0p_Cline=220.0f_Vin=1_0_1_0_1_Vout.csv'
p826
s((S'8.0'
S'2.0n'
S'3.0p'
tS'1.0p'
g64
g4
I10
S'1.0'
S'10101'
S'10n'
tp827
S'..\\data\\transmission_line_10_dropoffs\\MultidropBode\\ac_Cdrp=1.0p_Rterm=sqrt(Lline_Cline)_Lenline=1.0_Rline=8.0_Lline=2.0n_Cline=3.0p_Vin=1_0_1_0_1_BitTime=10n_Vout.csv'
p828
s((S'5.0'
S'2.4n'
S'220.0f'
tS'3.0p'
g3
g4
I10
S'5.0'
S'____'
S''
tp829
S'../data/transmission_line_10_dropoffs/MultidropBode\\ac_Cdrp=3.0p_Rterm=sqrt(Lline_Cline)_Lenline=5.0_Rline=5.0_Lline=2.4n_Cline=220.0f_Vin=1_0_1_0_0_Vout.csv'
p830
s((S'20.0m'
S'2.4n'
S'4.6p'
tS'3.0p'
g3
g4
I10
S'5.0'
S'____'
S''
tp831
S'../data/transmission_line_10_dropoffs/MultidropBode\\ac_Cdrp=3.0p_Rterm=sqrt(Lline_Cline)_Lenline=5.0_Rline=20.0m_Lline=2.4n_Cline=4.6p_Vin=1_0_1_0_1_Vout.csv'
p832
s((S'1.8'
S'2.4n'
S'4.6p'
tS'1.0p'
g3
g7
I10
S'5.0'
S'____'
S''
tp833
S'../data/transmission_line_10_dropoffs/MultidropTransient\\tran_Cdrp=1.0p_Rterm=sqrt(Lline_Cline)_Lenline=5.0_Rline=1.8_Lline=2.4n_Cline=4.6p_Vin=1_0_1_0_0_Vout.csv'
p834
s((S'20.0m'
S'79.0p'
S'220.0f'
tS'1.0p'
g3
g7
I10
S'1.0'
S'____'
S''
tp835
S'../data/transmission_line_10_dropoffs/MultidropTransient\\tran_Cdrp=1.0p_Rterm=sqrt(Lline_Cline)_Lenline=1.0_Rline=20.0m_Lline=79.0p_Cline=220.0f_Vin=0_0_0_0_0_Vout.csv'
p836
s((S'420.0m'
S'2.0n'
S'3.0p'
tS'1.0p'
g64
g4
I10
S'1.0'
S'10101'
S'10n'
tp837
S'..\\data\\transmission_line_10_dropoffs\\MultidropBode\\ac_Cdrp=1.0p_Rterm=sqrt(Lline_Cline)_Lenline=1.0_Rline=420.0m_Lline=2.0n_Cline=3.0p_Vin=1_0_1_0_1_BitTime=10n_Vout.csv'
p838
s((S'420.0m'
S'3.5n'
S'5.1p'
tS'2.0p'
g3
g7
I10
S'6.0'
S'____'
S'=5n'
tp839
S'../data/transmission_line_10_dropoffs/MultidropTransient\\tran_Cdrp=2.0p_Rterm=sqrt(Lline_Cline)_Lenline=6.0_Rline=420.0m_Lline=3.5n_Cline=5.1p_Vin=1_0_1_0_1_BitTime=5n_Vout.csv'
p840
s((S'20.0m'
S'2.4n'
S'4.6p'
tS'1.0p'
g3
g4
I10
S'5.0'
S'____'
S''
tp841
S'../data/transmission_line_10_dropoffs/MultidropBode\\ac_Cdrp=1.0p_Rterm=sqrt(Lline_Cline)_Lenline=5.0_Rline=20.0m_Lline=2.4n_Cline=4.6p_Vin=1_0_1_0_0_Vout.csv'
p842
s((S'820.0m'
S'10.0n'
S'10.0p'
tS'5.0p'
g3
g7
I28
S'9.0'
S'______'
S'=3n'
tp843
S'../data/transmission_line_28_dropoffs/MultidropTransient\\tran_Cdrp=5.0p_Rterm=sqrt(Lline_Cline)_Lenline=9.0_Rline=820.0m_Lline=10.0n_Cline=10.0p_Vin=1_1_1_1_0_1_1_BitTime=3n_Vout.csv'
p844
s((S'12.0'
S'4.0n'
S'9.0p'
tS'3.0p'
g3
g7
I10
S'5.0'
S'____'
S''
tp845
S'../data/transmission_line_10_dropoffs/MultidropTransient\\tran_Cdrp=3.0p_Rterm=sqrt(Lline_Cline)_Lenline=5.0_Rline=12.0_Lline=4.0n_Cline=9.0p_Vin=1_0_1_0_1_Vout.csv'
p846
s((S'13.0'
S'3.0n'
S'5.8p'
tS'3.0p'
g3
g4
I10
S'5.0'
S'______'
S'=3n'
tp847
S'../data/transmission_line_10_dropoffs/MultidropBode\\ac_Cdrp=3.0p_Rterm=sqrt(Lline_Cline)_Lenline=5.0_Rline=13.0_Lline=3.0n_Cline=5.8p_Vin=0_1_1_0_0_1_0_BitTime=3n_Vout.csv'
p848
s((S'13.0'
S'3.5n'
S'5.1p'
tS'2.0p'
g3
g4
I10
S'6.0'
S'____'
S'=10n'
tp849
S'../data/transmission_line_10_dropoffs/MultidropBode\\ac_Cdrp=2.0p_Rterm=sqrt(Lline_Cline)_Lenline=6.0_Rline=13.0_Lline=3.5n_Cline=5.1p_Vin=1_0_1_0_1_BitTime=10n_Vout.csv'
p850
s((S'7.0'
S'2.4n'
S'4.6p'
tS'3.0p'
g3
g4
I10
S'5.0'
S'____'
S''
tp851
S'../data/transmission_line_10_dropoffs/MultidropBode\\ac_Cdrp=3.0p_Rterm=sqrt(Lline_Cline)_Lenline=5.0_Rline=7.0_Lline=2.4n_Cline=4.6p_Vin=1_0_1_0_1_Vout.csv'
p852
s((S'8.0'
S'2.4n'
S'4.6p'
tS'1.0p'
g3
g4
I10
S'5.0'
S'____'
S''
tp853
S'../data/transmission_line_10_dropoffs/MultidropBode\\ac_Cdrp=1.0p_Rterm=sqrt(Lline_Cline)_Lenline=5.0_Rline=8.0_Lline=2.4n_Cline=4.6p_Vin=1_0_1_0_0_Vout.csv'
p854
s((S'8.0'
S'79.0p'
S'220.0f'
tS'1.0p'
g3
g4
I10
S'1.0'
S'____'
S''
tp855
S'../data/transmission_line_10_dropoffs/MultidropBode\\ac_Cdrp=1.0p_Rterm=sqrt(Lline_Cline)_Lenline=1.0_Rline=8.0_Lline=79.0p_Cline=220.0f_Vin=1_0_0_0_0_Vout.csv'
p856
s((S'13.0'
S'2.4n'
S'220.0f'
tS'3.0p'
g3
g4
I10
S'5.0'
S'____'
S''
tp857
S'../data/transmission_line_10_dropoffs/MultidropBode\\ac_Cdrp=3.0p_Rterm=sqrt(Lline_Cline)_Lenline=5.0_Rline=13.0_Lline=2.4n_Cline=220.0f_Vin=1_0_1_0_0_Vout.csv'
p858
s((S'14.0'
S'3.5n'
S'5.1p'
tS'2.0p'
g3
g7
I10
S'6.0'
S'____'
S'=10n'
tp859
S'../data/transmission_line_10_dropoffs/MultidropTransient\\tran_Cdrp=2.0p_Rterm=sqrt(Lline_Cline)_Lenline=6.0_Rline=14.0_Lline=3.5n_Cline=5.1p_Vin=1_0_1_0_1_BitTime=10n_Vout.csv'
p860
s((S'220.0m'
S'500.0p'
S'200.0f'
tS'1.0p'
g3
g4
I10
S'1.0'
S'_____'
S'=5n'
tp861
S'../data/transmission_line_10_dropoffs/MultidropBode\\ac_Cdrp=1.0p_Rterm=sqrt(Lline_Cline)_Lenline=1.0_Rline=220.0m_Lline=500.0p_Cline=200.0f_Vin=1_1_1_0_1_1_BitTime=5n_Vout.csv'
p862
s((S'3.0'
S'2.0n'
S'3.0p'
tS'1.0p'
g64
g7
I10
S'1.0'
S'10101'
S'10n'
tp863
S'..\\data\\transmission_line_10_dropoffs\\MultidropTransient\\tran_Cdrp=1.0p_Rterm=sqrt(Lline_Cline)_Lenline=1.0_Rline=3.0_Lline=2.0n_Cline=3.0p_Vin=1_0_1_0_1_BitTime=10n_Vout.csv'
p864
s((S'16.0'
S'2.4n'
S'4.6p'
tS'3.0p'
g3
g7
I10
S'5.0'
S'____'
S''
tp865
S'../data/transmission_line_10_dropoffs/MultidropTransient\\tran_Cdrp=3.0p_Rterm=sqrt(Lline_Cline)_Lenline=5.0_Rline=16.0_Lline=2.4n_Cline=4.6p_Vin=1_0_1_0_1_Vout.csv'
p866
s((S'20.0'
S'3.0n'
S'5.8p'
tS'3.0p'
g3
g7
I10
S'5.0'
S'______'
S'=3n'
tp867
S'../data/transmission_line_10_dropoffs/MultidropTransient\\tran_Cdrp=3.0p_Rterm=sqrt(Lline_Cline)_Lenline=5.0_Rline=20.0_Lline=3.0n_Cline=5.8p_Vin=0_1_1_0_0_1_0_BitTime=3n_Vout.csv'
p868
s((S'9.0'
S'3.5n'
S'5.1p'
tS'2.0p'
g3
g7
I10
S'6.0'
S'____'
S'=10n'
tp869
S'../data/transmission_line_10_dropoffs/MultidropTransient\\tran_Cdrp=2.0p_Rterm=sqrt(Lline_Cline)_Lenline=6.0_Rline=9.0_Lline=3.5n_Cline=5.1p_Vin=1_0_1_0_1_BitTime=10n_Vout.csv'
p870
s((S'620.0m'
S'3.5n'
S'5.1p'
tS'2.0p'
g3
g4
I10
S'6.0'
S'____'
S'=5n'
tp871
S'../data/transmission_line_10_dropoffs/MultidropBode\\ac_Cdrp=2.0p_Rterm=sqrt(Lline_Cline)_Lenline=6.0_Rline=620.0m_Lline=3.5n_Cline=5.1p_Vin=1_0_1_0_1_BitTime=5n_Vout.csv'
p872
s((S'16.0'
S'2.0n'
S'3.0p'
tS'1.0p'
g64
g7
I10
S'1.0'
S'10101'
S'10n'
tp873
S'..\\data\\transmission_line_10_dropoffs\\MultidropTransient\\tran_Cdrp=1.0p_Rterm=sqrt(Lline_Cline)_Lenline=1.0_Rline=16.0_Lline=2.0n_Cline=3.0p_Vin=1_0_1_0_1_BitTime=10n_Vout.csv'
p874
s((S'17.0'
S'3.5n'
S'5.1p'
tS'2.0p'
g3
g7
I10
S'6.0'
S'____'
S'=5n'
tp875
S'../data/transmission_line_10_dropoffs/MultidropTransient\\tran_Cdrp=2.0p_Rterm=sqrt(Lline_Cline)_Lenline=6.0_Rline=17.0_Lline=3.5n_Cline=5.1p_Vin=1_0_1_0_1_BitTime=5n_Vout.csv'
p876
s((S'8.0'
S'3.0n'
S'5.8p'
tS'3.0p'
g3
g4
I10
S'5.0'
S'______'
S'=3n'
tp877
S'../data/transmission_line_10_dropoffs/MultidropBode\\ac_Cdrp=3.0p_Rterm=sqrt(Lline_Cline)_Lenline=5.0_Rline=8.0_Lline=3.0n_Cline=5.8p_Vin=0_1_1_0_0_1_0_BitTime=3n_Vout.csv'
p878
s((S'16.0'
S'2.4n'
S'220.0f'
tS'3.0p'
g3
g4
I10
S'5.0'
S'____'
S''
tp879
S'../data/transmission_line_10_dropoffs/MultidropBode\\ac_Cdrp=3.0p_Rterm=sqrt(Lline_Cline)_Lenline=5.0_Rline=16.0_Lline=2.4n_Cline=220.0f_Vin=1_0_1_0_0_Vout.csv'
p880
s((S'9.0'
S'2.4n'
S'220.0f'
tS'3.0p'
g3
g4
I10
S'5.0'
S'____'
S''
tp881
S'../data/transmission_line_10_dropoffs/MultidropBode\\ac_Cdrp=3.0p_Rterm=sqrt(Lline_Cline)_Lenline=5.0_Rline=9.0_Lline=2.4n_Cline=220.0f_Vin=1_0_1_0_0_Vout.csv'
p882
s((S'620.0m'
S'3.0n'
S'5.8p'
tS'3.0p'
g3
g7
I10
S'5.0'
S'______'
S'=3n'
tp883
S'../data/transmission_line_10_dropoffs/MultidropTransient\\tran_Cdrp=3.0p_Rterm=sqrt(Lline_Cline)_Lenline=5.0_Rline=620.0m_Lline=3.0n_Cline=5.8p_Vin=0_1_1_0_0_1_0_BitTime=3n_Vout.csv'
p884
s((S'16.0'
S'79.0p'
S'220.0f'
tS'3.0p'
g3
g7
I10
S'5.0'
S'____'
S''
tp885
S'../data/transmission_line_10_dropoffs/MultidropTransient\\tran_Cdrp=3.0p_Rterm=sqrt(Lline_Cline)_Lenline=5.0_Rline=16.0_Lline=79.0p_Cline=220.0f_Vin=1_0_1_0_1_Vout.csv'
p886
s((S'220.0m'
S'2.0n'
S'3.0p'
tS'1.0p'
g64
g7
I10
S'1.0'
S'10101'
S'10n'
tp887
S'..\\data\\transmission_line_10_dropoffs\\MultidropTransient\\tran_Cdrp=1.0p_Rterm=sqrt(Lline_Cline)_Lenline=1.0_Rline=220.0m_Lline=2.0n_Cline=3.0p_Vin=1_0_1_0_1_BitTime=10n_Vout.csv'
p888
s((S'820.0m'
S'4.0n'
S'9.0p'
tS'3.0p'
g3
g4
I10
S'5.0'
S'____'
S''
tp889
S'../data/transmission_line_10_dropoffs/MultidropBode\\ac_Cdrp=3.0p_Rterm=sqrt(Lline_Cline)_Lenline=5.0_Rline=820.0m_Lline=4.0n_Cline=9.0p_Vin=1_0_1_0_1_Vout.csv'
p890
s((S'14.0'
S'79.0p'
S'220.0f'
tS'3.0p'
g3
g7
I10
S'5.0'
S'____'
S''
tp891
S'../data/transmission_line_10_dropoffs/MultidropTransient\\tran_Cdrp=3.0p_Rterm=sqrt(Lline_Cline)_Lenline=5.0_Rline=14.0_Lline=79.0p_Cline=220.0f_Vin=1_0_1_0_1_Vout.csv'
p892
s((S'3.0'
S'3.5n'
S'5.1p'
tS'2.0p'
g3
g4
I10
S'6.0'
S'____'
S'=10n'
tp893
S'../data/transmission_line_10_dropoffs/MultidropBode\\ac_Cdrp=2.0p_Rterm=sqrt(Lline_Cline)_Lenline=6.0_Rline=3.0_Lline=3.5n_Cline=5.1p_Vin=1_0_1_0_1_BitTime=10n_Vout.csv'
p894
s((S'220.0m'
S'3.5n'
S'5.1p'
tS'2.0p'
g3
g4
I10
S'6.0'
S'____'
S'=5n'
tp895
S'../data/transmission_line_10_dropoffs/MultidropBode\\ac_Cdrp=2.0p_Rterm=sqrt(Lline_Cline)_Lenline=6.0_Rline=220.0m_Lline=3.5n_Cline=5.1p_Vin=1_0_1_0_1_BitTime=5n_Vout.csv'
p896
s((S'1.0'
S'2.4n'
S'220.0f'
tS'3.0p'
g3
g7
I10
S'5.0'
S'____'
S''
tp897
S'../data/transmission_line_10_dropoffs/MultidropTransient\\tran_Cdrp=3.0p_Rterm=sqrt(Lline_Cline)_Lenline=5.0_Rline=1.0_Lline=2.4n_Cline=220.0f_Vin=1_0_1_0_0_Vout.csv'
p898
s((S'20.0'
S'3.5n'
S'5.8p'
tS'3.0p'
g3
g4
I10
S'5.0'
S'____'
S''
tp899
S'../data/transmission_line_10_dropoffs/MultidropBode\\ac_Cdrp=3.0p_Rterm=sqrt(Lline_Cline)_Lenline=5.0_Rline=20.0_Lline=3.5n_Cline=5.8p_Vin=1_0_1_0_0_Vout.csv'
p900
s((S'8.0'
S'2.0n'
S'3.0p'
tS'1.0p'
g64
g7
I10
S'1.0'
S'10101'
S'10n'
tp901
S'..\\data\\transmission_line_10_dropoffs\\MultidropTransient\\tran_Cdrp=1.0p_Rterm=sqrt(Lline_Cline)_Lenline=1.0_Rline=8.0_Lline=2.0n_Cline=3.0p_Vin=1_0_1_0_1_BitTime=10n_Vout.csv'
p902
s((S'17.0'
S'79.0p'
S'220.0f'
tS'3.0p'
g3
g4
I10
S'5.0'
S'____'
S''
tp903
S'../data/transmission_line_10_dropoffs/MultidropBode\\ac_Cdrp=3.0p_Rterm=sqrt(Lline_Cline)_Lenline=5.0_Rline=17.0_Lline=79.0p_Cline=220.0f_Vin=1_0_1_0_1_Vout.csv'
p904
s((S'20.0'
S'2.0n'
S'3.0p'
tS'1.0p'
g64
g7
I10
S'1.0'
S'10101'
S'10n'
tp905
S'..\\data\\transmission_line_10_dropoffs\\MultidropTransient\\tran_Cdrp=1.0p_Rterm=sqrt(Lline_Cline)_Lenline=1.0_Rline=20.0_Lline=2.0n_Cline=3.0p_Vin=1_0_1_0_1_BitTime=10n_Vout.csv'
p906
s((S'6.0'
S'3.0n'
S'5.8p'
tS'3.0p'
g3
g4
I10
S'5.0'
S'______'
S'=3n'
tp907
S'../data/transmission_line_10_dropoffs/MultidropBode\\ac_Cdrp=3.0p_Rterm=sqrt(Lline_Cline)_Lenline=5.0_Rline=6.0_Lline=3.0n_Cline=5.8p_Vin=0_1_1_0_0_1_0_BitTime=3n_Vout.csv'
p908
s((S'4.0'
S'3.0n'
S'5.8p'
tS'3.0p'
g3
g4
I10
S'5.0'
S'______'
S'=3n'
tp909
S'../data/transmission_line_10_dropoffs/MultidropBode\\ac_Cdrp=3.0p_Rterm=sqrt(Lline_Cline)_Lenline=5.0_Rline=4.0_Lline=3.0n_Cline=5.8p_Vin=0_1_1_0_0_1_0_BitTime=3n_Vout.csv'
p910
s((S'17.0'
S'3.0n'
S'5.8p'
tS'3.0p'
g3
g7
I10
S'5.0'
S'______'
S'=3n'
tp911
S'../data/transmission_line_10_dropoffs/MultidropTransient\\tran_Cdrp=3.0p_Rterm=sqrt(Lline_Cline)_Lenline=5.0_Rline=17.0_Lline=3.0n_Cline=5.8p_Vin=0_1_1_0_0_1_0_BitTime=3n_Vout.csv'
p912
s((S'14.0'
S'3.5n'
S'5.8p'
tS'3.0p'
g3
g4
I10
S'5.0'
S'____'
S''
tp913
S'../data/transmission_line_10_dropoffs/MultidropBode\\ac_Cdrp=3.0p_Rterm=sqrt(Lline_Cline)_Lenline=5.0_Rline=14.0_Lline=3.5n_Cline=5.8p_Vin=1_0_1_0_0_Vout.csv'
p914
s((S'820.0m'
S'10.0n'
S'10.0p'
tS'5.0p'
g3
g7
I28
S'9.0'
S'_____'
S'=4n'
tp915
S'../data/transmission_line_28_dropoffs/MultidropTransient\\tran_Cdrp=5.0p_Rterm=sqrt(Lline_Cline)_Lenline=9.0_Rline=820.0m_Lline=10.0n_Cline=10.0p_Vin=1_1_1_0_1_1_BitTime=4n_Vout.csv'
p916
s((S'620.0m'
S'4.0n'
S'9.0p'
tS'3.0p'
g3
g7
I10
S'5.0'
S'____'
S''
tp917
S'../data/transmission_line_10_dropoffs/MultidropTransient\\tran_Cdrp=3.0p_Rterm=sqrt(Lline_Cline)_Lenline=5.0_Rline=620.0m_Lline=4.0n_Cline=9.0p_Vin=1_0_1_0_1_Vout.csv'
p918
s((S'6.0'
S'79.0p'
S'220.0f'
tS'3.0p'
g3
g4
I10
S'5.0'
S'____'
S''
tp919
S'../data/transmission_line_10_dropoffs/MultidropBode\\ac_Cdrp=3.0p_Rterm=sqrt(Lline_Cline)_Lenline=5.0_Rline=6.0_Lline=79.0p_Cline=220.0f_Vin=1_0_1_0_1_Vout.csv'
p920
s((S'19.0'
S'2.4n'
S'4.6p'
tS'1.0p'
g3
g7
I10
S'5.0'
S'____'
S''
tp921
S'../data/transmission_line_10_dropoffs/MultidropTransient\\tran_Cdrp=1.0p_Rterm=sqrt(Lline_Cline)_Lenline=5.0_Rline=19.0_Lline=2.4n_Cline=4.6p_Vin=1_0_1_0_0_Vout.csv'
p922
s((S'220.0m'
S'2.4n'
S'4.6p'
tS'1.0p'
g3
g7
I10
S'5.0'
S'____'
S''
tp923
S'../data/transmission_line_10_dropoffs/MultidropTransient\\tran_Cdrp=1.0p_Rterm=sqrt(Lline_Cline)_Lenline=5.0_Rline=220.0m_Lline=2.4n_Cline=4.6p_Vin=1_0_1_0_0_Vout.csv'
p924
s((S'16.0'
S'4.0n'
S'9.0p'
tS'3.0p'
g3
g7
I10
S'5.0'
S'____'
S''
tp925
S'../data/transmission_line_10_dropoffs/MultidropTransient\\tran_Cdrp=3.0p_Rterm=sqrt(Lline_Cline)_Lenline=5.0_Rline=16.0_Lline=4.0n_Cline=9.0p_Vin=1_0_1_0_1_Vout.csv'
p926
s((S'19.0'
S'2.4n'
S'220.0f'
tS'3.0p'
g3
g4
I10
S'5.0'
S'____'
S''
tp927
S'../data/transmission_line_10_dropoffs/MultidropBode\\ac_Cdrp=3.0p_Rterm=sqrt(Lline_Cline)_Lenline=5.0_Rline=19.0_Lline=2.4n_Cline=220.0f_Vin=1_0_1_0_0_Vout.csv'
p928
s((S'12.0'
S'79.0p'
S'220.0f'
tS'3.0p'
g3
g4
I10
S'5.0'
S'____'
S''
tp929
S'../data/transmission_line_10_dropoffs/MultidropBode\\ac_Cdrp=3.0p_Rterm=sqrt(Lline_Cline)_Lenline=5.0_Rline=12.0_Lline=79.0p_Cline=220.0f_Vin=1_0_1_0_1_Vout.csv'
p930
s((S'2.0'
S'2.0n'
S'3.0p'
tS'1.0p'
g64
g4
I10
S'1.0'
S'10101'
S'10n'
tp931
S'..\\data\\transmission_line_10_dropoffs\\MultidropBode\\ac_Cdrp=1.0p_Rterm=sqrt(Lline_Cline)_Lenline=1.0_Rline=2.0_Lline=2.0n_Cline=3.0p_Vin=1_0_1_0_1_BitTime=10n_Vout.csv'
p932
s((S'1.2'
S'2.4n'
S'220.0f'
tS'3.0p'
g3
g7
I10
S'5.0'
S'____'
S''
tp933
S'../data/transmission_line_10_dropoffs/MultidropTransient\\tran_Cdrp=3.0p_Rterm=sqrt(Lline_Cline)_Lenline=5.0_Rline=1.2_Lline=2.4n_Cline=220.0f_Vin=1_0_1_0_0_Vout.csv'
p934
s((S'11.0'
S'3.5n'
S'5.8p'
tS'3.0p'
g3
g7
I10
S'5.0'
S'____'
S''
tp935
S'../data/transmission_line_10_dropoffs/MultidropTransient\\tran_Cdrp=3.0p_Rterm=sqrt(Lline_Cline)_Lenline=5.0_Rline=11.0_Lline=3.5n_Cline=5.8p_Vin=1_0_1_0_0_Vout.csv'
p936
s((S'4.0'
S'4.0n'
S'9.0p'
tS'3.0p'
g3
g7
I10
S'5.0'
S'____'
S''
tp937
S'../data/transmission_line_10_dropoffs/MultidropTransient\\tran_Cdrp=3.0p_Rterm=sqrt(Lline_Cline)_Lenline=5.0_Rline=4.0_Lline=4.0n_Cline=9.0p_Vin=1_0_1_0_1_Vout.csv'
p938
s((S'20.0m'
S'3.5n'
S'5.1p'
tS'2.0p'
g3
g4
I10
S'6.0'
S'____'
S'=5n'
tp939
S'../data/transmission_line_10_dropoffs/MultidropBode\\ac_Cdrp=2.0p_Rterm=sqrt(Lline_Cline)_Lenline=6.0_Rline=20.0m_Lline=3.5n_Cline=5.1p_Vin=1_0_1_0_1_BitTime=5n_Vout.csv'
p940
s((S'11.0'
S'79.0p'
S'220.0f'
tS'1.0p'
g3
g4
I10
S'1.0'
S'____'
S''
tp941
S'../data/transmission_line_10_dropoffs/MultidropBode\\ac_Cdrp=1.0p_Rterm=sqrt(Lline_Cline)_Lenline=1.0_Rline=11.0_Lline=79.0p_Cline=220.0f_Vin=1_0_0_0_0_Vout.csv'
p942
s((S'1.4'
S'79.0p'
S'220.0f'
tS'3.0p'
g3
g4
I10
S'5.0'
S'____'
S''
tp943
S'../data/transmission_line_10_dropoffs/MultidropBode\\ac_Cdrp=3.0p_Rterm=sqrt(Lline_Cline)_Lenline=5.0_Rline=1.4_Lline=79.0p_Cline=220.0f_Vin=1_0_1_0_1_Vout.csv'
p944
s((S'8.0'
S'2.4n'
S'220.0f'
tS'3.0p'
g3
g4
I10
S'5.0'
S'____'
S''
tp945
S'../data/transmission_line_10_dropoffs/MultidropBode\\ac_Cdrp=3.0p_Rterm=sqrt(Lline_Cline)_Lenline=5.0_Rline=8.0_Lline=2.4n_Cline=220.0f_Vin=1_0_1_0_0_Vout.csv'
p946
s((S'18.0'
S'2.4n'
S'220.0f'
tS'3.0p'
g3
g4
I10
S'5.0'
S'____'
S''
tp947
S'../data/transmission_line_10_dropoffs/MultidropBode\\ac_Cdrp=3.0p_Rterm=sqrt(Lline_Cline)_Lenline=5.0_Rline=18.0_Lline=2.4n_Cline=220.0f_Vin=1_0_1_0_0_Vout.csv'
p948
s((S'220.0m'
S'4.0n'
S'9.0p'
tS'3.0p'
g3
g4
I10
S'5.0'
S'____'
S''
tp949
S'../data/transmission_line_10_dropoffs/MultidropBode\\ac_Cdrp=3.0p_Rterm=sqrt(Lline_Cline)_Lenline=5.0_Rline=220.0m_Lline=4.0n_Cline=9.0p_Vin=1_0_1_0_1_Vout.csv'
p950
s((S'1.8'
S'7.2n'
S'20.0p'
tS'2.0p'
g3
g7
I10
S'1.0'
S'____'
S''
tp951
S'../data/transmission_line_10_dropoffs/MultidropTransient\\tran_Cdrp=2.0p_Rterm=sqrt(Lline_Cline)_Lenline=1.0_Rline=1.8_Lline=7.2n_Cline=20.0p_Vin=0_1_0_0_0_Vout.csv'
p952
s((S'16.0'
S'3.5n'
S'5.1p'
tS'2.0p'
g3
g7
I10
S'6.0'
S'____'
S'=5n'
tp953
S'../data/transmission_line_10_dropoffs/MultidropTransient\\tran_Cdrp=2.0p_Rterm=sqrt(Lline_Cline)_Lenline=6.0_Rline=16.0_Lline=3.5n_Cline=5.1p_Vin=1_0_1_0_1_BitTime=5n_Vout.csv'
p954
s((S'8.0'
S'3.5n'
S'5.1p'
tS'2.0p'
g3
g7
I10
S'6.0'
S'____'
S'=5n'
tp955
S'../data/transmission_line_10_dropoffs/MultidropTransient\\tran_Cdrp=2.0p_Rterm=sqrt(Lline_Cline)_Lenline=6.0_Rline=8.0_Lline=3.5n_Cline=5.1p_Vin=1_0_1_0_1_BitTime=5n_Vout.csv'
p956
s((S'10.0'
S'79.0p'
S'220.0f'
tS'3.0p'
g3
g4
I10
S'5.0'
S'____'
S''
tp957
S'../data/transmission_line_10_dropoffs/MultidropBode\\ac_Cdrp=3.0p_Rterm=sqrt(Lline_Cline)_Lenline=5.0_Rline=10.0_Lline=79.0p_Cline=220.0f_Vin=1_0_1_0_1_Vout.csv'
p958
s((S'17.0'
S'2.4n'
S'4.6p'
tS'3.0p'
g3
g4
I10
S'5.0'
S'____'
S''
tp959
S'../data/transmission_line_10_dropoffs/MultidropBode\\ac_Cdrp=3.0p_Rterm=sqrt(Lline_Cline)_Lenline=5.0_Rline=17.0_Lline=2.4n_Cline=4.6p_Vin=1_0_1_0_1_Vout.csv'
p960
s((S'220.0m'
S'3.5n'
S'5.8p'
tS'3.0p'
g3
g4
I10
S'5.0'
S'____'
S''
tp961
S'../data/transmission_line_10_dropoffs/MultidropBode\\ac_Cdrp=3.0p_Rterm=sqrt(Lline_Cline)_Lenline=5.0_Rline=220.0m_Lline=3.5n_Cline=5.8p_Vin=1_0_1_0_0_Vout.csv'
p962
s((S'18.0'
S'2.0n'
S'3.0p'
tS'1.0p'
g64
g4
I10
S'1.0'
S'10101'
S'10n'
tp963
S'..\\data\\transmission_line_10_dropoffs\\MultidropBode\\ac_Cdrp=1.0p_Rterm=sqrt(Lline_Cline)_Lenline=1.0_Rline=18.0_Lline=2.0n_Cline=3.0p_Vin=1_0_1_0_1_BitTime=10n_Vout.csv'
p964
s((S'11.0'
S'2.4n'
S'220.0f'
tS'3.0p'
g3
g4
I10
S'5.0'
S'____'
S''
tp965
S'../data/transmission_line_10_dropoffs/MultidropBode\\ac_Cdrp=3.0p_Rterm=sqrt(Lline_Cline)_Lenline=5.0_Rline=11.0_Lline=2.4n_Cline=220.0f_Vin=1_0_1_0_0_Vout.csv'
p966
s((S'5.0'
S'3.5n'
S'5.1p'
tS'2.0p'
g3
g4
I10
S'6.0'
S'____'
S'=5n'
tp967
S'../data/transmission_line_10_dropoffs/MultidropBode\\ac_Cdrp=2.0p_Rterm=sqrt(Lline_Cline)_Lenline=6.0_Rline=5.0_Lline=3.5n_Cline=5.1p_Vin=1_0_1_0_1_BitTime=5n_Vout.csv'
p968
s((S'3.0'
S'4.0n'
S'9.0p'
tS'3.0p'
g3
g7
I10
S'5.0'
S'____'
S''
tp969
S'../data/transmission_line_10_dropoffs/MultidropTransient\\tran_Cdrp=3.0p_Rterm=sqrt(Lline_Cline)_Lenline=5.0_Rline=3.0_Lline=4.0n_Cline=9.0p_Vin=1_0_1_0_1_Vout.csv'
p970
s((S'220.0m'
S'2.4n'
S'4.6p'
tS'1.0p'
g3
g4
I10
S'5.0'
S'____'
S''
tp971
S'../data/transmission_line_10_dropoffs/MultidropBode\\ac_Cdrp=1.0p_Rterm=sqrt(Lline_Cline)_Lenline=5.0_Rline=220.0m_Lline=2.4n_Cline=4.6p_Vin=1_0_1_0_0_Vout.csv'
p972
s((S'11.0'
S'3.5n'
S'5.1p'
tS'2.0p'
g3
g4
I10
S'6.0'
S'____'
S'=10n'
tp973
S'../data/transmission_line_10_dropoffs/MultidropBode\\ac_Cdrp=2.0p_Rterm=sqrt(Lline_Cline)_Lenline=6.0_Rline=11.0_Lline=3.5n_Cline=5.1p_Vin=1_0_1_0_1_BitTime=10n_Vout.csv'
p974
s((S'420.0m'
S'3.5n'
S'5.8p'
tS'3.0p'
g3
g4
I10
S'5.0'
S'____'
S''
tp975
S'../data/transmission_line_10_dropoffs/MultidropBode\\ac_Cdrp=3.0p_Rterm=sqrt(Lline_Cline)_Lenline=5.0_Rline=420.0m_Lline=3.5n_Cline=5.8p_Vin=1_0_1_0_0_Vout.csv'
p976
s((S'17.0'
S'2.4n'
S'220.0f'
tS'3.0p'
g3
g7
I10
S'5.0'
S'____'
S''
tp977
S'../data/transmission_line_10_dropoffs/MultidropTransient\\tran_Cdrp=3.0p_Rterm=sqrt(Lline_Cline)_Lenline=5.0_Rline=17.0_Lline=2.4n_Cline=220.0f_Vin=1_0_1_0_0_Vout.csv'
p978
s((S'20.0m'
S'2.0n'
S'3.0p'
tS'1.0p'
g64
g4
I10
S'1.0'
S'10101'
S'10n'
tp979
S'..\\data\\transmission_line_10_dropoffs\\MultidropBode\\ac_Cdrp=1.0p_Rterm=sqrt(Lline_Cline)_Lenline=1.0_Rline=20.0m_Lline=2.0n_Cline=3.0p_Vin=1_0_1_0_1_BitTime=10n_Vout.csv'
p980
s((S'420.0m'
S'2.0n'
S'3.0p'
tS'1.0p'
g64
g7
I10
S'1.0'
S'10101'
S'10n'
tp981
S'..\\data\\transmission_line_10_dropoffs\\MultidropTransient\\tran_Cdrp=1.0p_Rterm=sqrt(Lline_Cline)_Lenline=1.0_Rline=420.0m_Lline=2.0n_Cline=3.0p_Vin=1_0_1_0_1_BitTime=10n_Vout.csv'
p982
s((S'10.0'
S'2.4n'
S'4.6p'
tS'1.0p'
g3
g4
I10
S'5.0'
S'____'
S''
tp983
S'../data/transmission_line_10_dropoffs/MultidropBode\\ac_Cdrp=1.0p_Rterm=sqrt(Lline_Cline)_Lenline=5.0_Rline=10.0_Lline=2.4n_Cline=4.6p_Vin=1_0_1_0_0_Vout.csv'
p984
s((S'17.0'
S'2.4n'
S'4.6p'
tS'1.0p'
g3
g4
I10
S'5.0'
S'____'
S''
tp985
S'../data/transmission_line_10_dropoffs/MultidropBode\\ac_Cdrp=1.0p_Rterm=sqrt(Lline_Cline)_Lenline=5.0_Rline=17.0_Lline=2.4n_Cline=4.6p_Vin=1_0_1_0_0_Vout.csv'
p986
s((S'420.0m'
S'2.4n'
S'220.0f'
tS'3.0p'
g3
g7
I10
S'5.0'
S'____'
S''
tp987
S'../data/transmission_line_10_dropoffs/MultidropTransient\\tran_Cdrp=3.0p_Rterm=sqrt(Lline_Cline)_Lenline=5.0_Rline=420.0m_Lline=2.4n_Cline=220.0f_Vin=1_0_1_0_0_Vout.csv'
p988
s((S'12.0'
S'3.0n'
S'5.8p'
tS'3.0p'
g3
g7
I10
S'5.0'
S'______'
S'=3n'
tp989
S'../data/transmission_line_10_dropoffs/MultidropTransient\\tran_Cdrp=3.0p_Rterm=sqrt(Lline_Cline)_Lenline=5.0_Rline=12.0_Lline=3.0n_Cline=5.8p_Vin=0_1_1_0_0_1_0_BitTime=3n_Vout.csv'
p990
s((S'17.0'
S'79.0p'
S'220.0f'
tS'3.0p'
g3
g7
I10
S'5.0'
S'____'
S''
tp991
S'../data/transmission_line_10_dropoffs/MultidropTransient\\tran_Cdrp=3.0p_Rterm=sqrt(Lline_Cline)_Lenline=5.0_Rline=17.0_Lline=79.0p_Cline=220.0f_Vin=1_0_1_0_1_Vout.csv'
p992
s((S'13.0'
S'79.0p'
S'220.0f'
tS'1.0p'
g3
g4
I10
S'1.0'
S'____'
S''
tp993
S'../data/transmission_line_10_dropoffs/MultidropBode\\ac_Cdrp=1.0p_Rterm=sqrt(Lline_Cline)_Lenline=1.0_Rline=13.0_Lline=79.0p_Cline=220.0f_Vin=1_0_0_0_0_Vout.csv'
p994
s((S'3.0'
S'2.4n'
S'220.0f'
tS'3.0p'
g3
g4
I10
S'5.0'
S'____'
S''
tp995
S'../data/transmission_line_10_dropoffs/MultidropBode\\ac_Cdrp=3.0p_Rterm=sqrt(Lline_Cline)_Lenline=5.0_Rline=3.0_Lline=2.4n_Cline=220.0f_Vin=1_0_1_0_0_Vout.csv'
p996
s((S'820.0m'
S'10.0n'
S'10.0p'
tS'5.0p'
g3
g7
I28
S'9.0'
S'_____'
S'=3n'
tp997
S'../data/transmission_line_28_dropoffs/MultidropTransient\\tran_Cdrp=5.0p_Rterm=sqrt(Lline_Cline)_Lenline=9.0_Rline=820.0m_Lline=10.0n_Cline=10.0p_Vin=1_1_1_0_1_1_BitTime=3n_Vout.csv'
p998
s((S'1.4'
S'2.4n'
S'4.6p'
tS'3.0p'
g3
g7
I10
S'5.0'
S'____'
S''
tp999
S'../data/transmission_line_10_dropoffs/MultidropTransient\\tran_Cdrp=3.0p_Rterm=sqrt(Lline_Cline)_Lenline=5.0_Rline=1.4_Lline=2.4n_Cline=4.6p_Vin=1_0_1_0_1_Vout.csv'
p1000
s((S'5.0'
S'3.5n'
S'5.1p'
tS'2.0p'
g3
g4
I10
S'6.0'
S'____'
S'=10n'
tp1001
S'../data/transmission_line_10_dropoffs/MultidropBode\\ac_Cdrp=2.0p_Rterm=sqrt(Lline_Cline)_Lenline=6.0_Rline=5.0_Lline=3.5n_Cline=5.1p_Vin=1_0_1_0_1_BitTime=10n_Vout.csv'
p1002
s((S'16.0'
S'3.5n'
S'5.1p'
tS'2.0p'
g3
g7
I10
S'6.0'
S'____'
S'=10n'
tp1003
S'../data/transmission_line_10_dropoffs/MultidropTransient\\tran_Cdrp=2.0p_Rterm=sqrt(Lline_Cline)_Lenline=6.0_Rline=16.0_Lline=3.5n_Cline=5.1p_Vin=1_0_1_0_1_BitTime=10n_Vout.csv'
p1004
s((S'16.0'
S'79.0p'
S'220.0f'
tS'3.0p'
g3
g4
I10
S'5.0'
S'____'
S''
tp1005
S'../data/transmission_line_10_dropoffs/MultidropBode\\ac_Cdrp=3.0p_Rterm=sqrt(Lline_Cline)_Lenline=5.0_Rline=16.0_Lline=79.0p_Cline=220.0f_Vin=1_0_1_0_1_Vout.csv'
p1006
s((S'1.4'
S'2.4n'
S'220.0f'
tS'3.0p'
g3
g4
I10
S'5.0'
S'____'
S''
tp1007
S'../data/transmission_line_10_dropoffs/MultidropBode\\ac_Cdrp=3.0p_Rterm=sqrt(Lline_Cline)_Lenline=5.0_Rline=1.4_Lline=2.4n_Cline=220.0f_Vin=1_0_1_0_0_Vout.csv'
p1008
s((S'12.0'
S'2.4n'
S'4.6p'
tS'1.0p'
g3
g4
I10
S'5.0'
S'____'
S''
tp1009
S'../data/transmission_line_10_dropoffs/MultidropBode\\ac_Cdrp=1.0p_Rterm=sqrt(Lline_Cline)_Lenline=5.0_Rline=12.0_Lline=2.4n_Cline=4.6p_Vin=1_0_1_0_0_Vout.csv'
p1010
s((S'7.0'
S'3.5n'
S'5.1p'
tS'2.0p'
g3
g7
I10
S'6.0'
S'____'
S'=5n'
tp1011
S'../data/transmission_line_10_dropoffs/MultidropTransient\\tran_Cdrp=2.0p_Rterm=sqrt(Lline_Cline)_Lenline=6.0_Rline=7.0_Lline=3.5n_Cline=5.1p_Vin=1_0_1_0_1_BitTime=5n_Vout.csv'
p1012
s((S'19.0'
S'79.0p'
S'220.0f'
tS'3.0p'
g3
g7
I10
S'5.0'
S'____'
S''
tp1013
S'../data/transmission_line_10_dropoffs/MultidropTransient\\tran_Cdrp=3.0p_Rterm=sqrt(Lline_Cline)_Lenline=5.0_Rline=19.0_Lline=79.0p_Cline=220.0f_Vin=1_0_1_0_1_Vout.csv'
p1014
s((S'14.0'
S'2.0n'
S'3.0p'
tS'1.0p'
g64
g4
I10
S'1.0'
S'10101'
S'10n'
tp1015
S'..\\data\\transmission_line_10_dropoffs\\MultidropBode\\ac_Cdrp=1.0p_Rterm=sqrt(Lline_Cline)_Lenline=1.0_Rline=14.0_Lline=2.0n_Cline=3.0p_Vin=1_0_1_0_1_BitTime=10n_Vout.csv'
p1016
s((S'420.0m'
S'79.0p'
S'220.0f'
tS'3.0p'
g3
g4
I10
S'5.0'
S'____'
S''
tp1017
S'../data/transmission_line_10_dropoffs/MultidropBode\\ac_Cdrp=3.0p_Rterm=sqrt(Lline_Cline)_Lenline=5.0_Rline=420.0m_Lline=79.0p_Cline=220.0f_Vin=1_0_1_0_1_Vout.csv'
p1018
s((S'1.8'
S'2.4n'
S'220.0f'
tS'3.0p'
g3
g4
I10
S'5.0'
S'____'
S''
tp1019
S'../data/transmission_line_10_dropoffs/MultidropBode\\ac_Cdrp=3.0p_Rterm=sqrt(Lline_Cline)_Lenline=5.0_Rline=1.8_Lline=2.4n_Cline=220.0f_Vin=1_0_1_0_0_Vout.csv'
p1020
s((S'2.0m'
S'79.0p'
S'22.0f'
tS'500.0f'
g3
g7
I10
S'1.0'
S'____'
S''
tp1021
S'../data/transmission_line_10_dropoffs/MultidropTransient\\tran_Cdrp=500.0f_Rterm=sqrt(Lline_Cline)_Lenline=1.0_Rline=2.0m_Lline=79.0p_Cline=22.0f_Vin=1_1_1_0_1_Vout.csv'
p1022
s((S'15.0'
S'2.4n'
S'4.6p'
tS'1.0p'
g3
g7
I10
S'5.0'
S'____'
S''
tp1023
S'../data/transmission_line_10_dropoffs/MultidropTransient\\tran_Cdrp=1.0p_Rterm=sqrt(Lline_Cline)_Lenline=5.0_Rline=15.0_Lline=2.4n_Cline=4.6p_Vin=1_0_1_0_0_Vout.csv'
p1024
s((S'620.0m'
S'3.0n'
S'5.8p'
tS'3.0p'
g3
g4
I10
S'5.0'
S'______'
S'=3n'
tp1025
S'../data/transmission_line_10_dropoffs/MultidropBode\\ac_Cdrp=3.0p_Rterm=sqrt(Lline_Cline)_Lenline=5.0_Rline=620.0m_Lline=3.0n_Cline=5.8p_Vin=0_1_1_0_0_1_0_BitTime=3n_Vout.csv'
p1026
s((S'18.0'
S'3.0n'
S'5.8p'
tS'3.0p'
g3
g4
I10
S'5.0'
S'______'
S'=3n'
tp1027
S'../data/transmission_line_10_dropoffs/MultidropBode\\ac_Cdrp=3.0p_Rterm=sqrt(Lline_Cline)_Lenline=5.0_Rline=18.0_Lline=3.0n_Cline=5.8p_Vin=0_1_1_0_0_1_0_BitTime=3n_Vout.csv'
p1028
s((S'7.0'
S'4.0n'
S'9.0p'
tS'3.0p'
g3
g7
I10
S'5.0'
S'____'
S''
tp1029
S'../data/transmission_line_10_dropoffs/MultidropTransient\\tran_Cdrp=3.0p_Rterm=sqrt(Lline_Cline)_Lenline=5.0_Rline=7.0_Lline=4.0n_Cline=9.0p_Vin=1_0_1_0_1_Vout.csv'
p1030
s((S'6.0'
S'79.0p'
S'220.0f'
tS'1.0p'
g3
g7
I10
S'1.0'
S'____'
S''
tp1031
S'../data/transmission_line_10_dropoffs/MultidropTransient\\tran_Cdrp=1.0p_Rterm=sqrt(Lline_Cline)_Lenline=1.0_Rline=6.0_Lline=79.0p_Cline=220.0f_Vin=1_0_0_0_0_Vout.csv'
p1032
s((S'1.6'
S'2.4n'
S'4.6p'
tS'3.0p'
g3
g4
I10
S'5.0'
S'____'
S''
tp1033
S'../data/transmission_line_10_dropoffs/MultidropBode\\ac_Cdrp=3.0p_Rterm=sqrt(Lline_Cline)_Lenline=5.0_Rline=1.6_Lline=2.4n_Cline=4.6p_Vin=1_0_1_0_1_Vout.csv'
p1034
s((S'5.0'
S'2.4n'
S'4.6p'
tS'1.0p'
g3
g4
I10
S'5.0'
S'____'
S''
tp1035
S'../data/transmission_line_10_dropoffs/MultidropBode\\ac_Cdrp=1.0p_Rterm=sqrt(Lline_Cline)_Lenline=5.0_Rline=5.0_Lline=2.4n_Cline=4.6p_Vin=1_0_1_0_0_Vout.csv'
p1036
s((S'14.0'
S'2.4n'
S'4.6p'
tS'3.0p'
g3
g4
I10
S'5.0'
S'____'
S''
tp1037
S'../data/transmission_line_10_dropoffs/MultidropBode\\ac_Cdrp=3.0p_Rterm=sqrt(Lline_Cline)_Lenline=5.0_Rline=14.0_Lline=2.4n_Cline=4.6p_Vin=1_0_1_0_1_Vout.csv'
p1038
s((S'20.0'
S'3.0n'
S'5.8p'
tS'3.0p'
g3
g4
I10
S'5.0'
S'______'
S'=3n'
tp1039
S'../data/transmission_line_10_dropoffs/MultidropBode\\ac_Cdrp=3.0p_Rterm=sqrt(Lline_Cline)_Lenline=5.0_Rline=20.0_Lline=3.0n_Cline=5.8p_Vin=0_1_1_0_0_1_0_BitTime=3n_Vout.csv'
p1040
s((S'20.0m'
S'790.0p'
S'220.0f'
tS'3.0p'
g3
g7
I10
S'5.0'
S'____'
S''
tp1041
S'../data/transmission_line_10_dropoffs/MultidropTransient\\tran_Cdrp=3.0p_Rterm=sqrt(Lline_Cline)_Lenline=5.0_Rline=20.0m_Lline=790.0p_Cline=220.0f_Vin=1_1_1_0_1_Vout.csv'
p1042
s((S'15.0'
S'2.0n'
S'3.0p'
tS'1.0p'
g64
g4
I10
S'1.0'
S'10101'
S'10n'
tp1043
S'..\\data\\transmission_line_10_dropoffs\\MultidropBode\\ac_Cdrp=1.0p_Rterm=sqrt(Lline_Cline)_Lenline=1.0_Rline=15.0_Lline=2.0n_Cline=3.0p_Vin=1_0_1_0_1_BitTime=10n_Vout.csv'
p1044
s((S'15.0'
S'3.5n'
S'5.8p'
tS'3.0p'
g3
g7
I10
S'5.0'
S'____'
S''
tp1045
S'../data/transmission_line_10_dropoffs/MultidropTransient\\tran_Cdrp=3.0p_Rterm=sqrt(Lline_Cline)_Lenline=5.0_Rline=15.0_Lline=3.5n_Cline=5.8p_Vin=1_0_1_0_0_Vout.csv'
p1046
s((S'820.0m'
S'3.5n'
S'5.1p'
tS'2.0p'
g3
g7
I10
S'6.0'
S'____'
S'=10n'
tp1047
S'../data/transmission_line_10_dropoffs/MultidropTransient\\tran_Cdrp=2.0p_Rterm=sqrt(Lline_Cline)_Lenline=6.0_Rline=820.0m_Lline=3.5n_Cline=5.1p_Vin=1_0_1_0_1_BitTime=10n_Vout.csv'
p1048
s((S'8.0'
S'2.4n'
S'4.6p'
tS'3.0p'
g3
g4
I10
S'5.0'
S'____'
S''
tp1049
S'../data/transmission_line_10_dropoffs/MultidropBode\\ac_Cdrp=3.0p_Rterm=sqrt(Lline_Cline)_Lenline=5.0_Rline=8.0_Lline=2.4n_Cline=4.6p_Vin=1_0_1_0_1_Vout.csv'
p1050
s((S'12.0'
S'3.5n'
S'5.1p'
tS'2.0p'
g3
g7
I10
S'6.0'
S'____'
S'=10n'
tp1051
S'../data/transmission_line_10_dropoffs/MultidropTransient\\tran_Cdrp=2.0p_Rterm=sqrt(Lline_Cline)_Lenline=6.0_Rline=12.0_Lline=3.5n_Cline=5.1p_Vin=1_0_1_0_1_BitTime=10n_Vout.csv'
p1052
s((S'9.0'
S'3.0n'
S'5.8p'
tS'3.0p'
g3
g4
I10
S'5.0'
S'______'
S'=3n'
tp1053
S'../data/transmission_line_10_dropoffs/MultidropBode\\ac_Cdrp=3.0p_Rterm=sqrt(Lline_Cline)_Lenline=5.0_Rline=9.0_Lline=3.0n_Cline=5.8p_Vin=0_1_1_0_0_1_0_BitTime=3n_Vout.csv'
p1054
s((S'20.0m'
S'2.4n'
S'4.6p'
tS'1.0p'
g3
g7
I10
S'5.0'
S'____'
S''
tp1055
S'../data/transmission_line_10_dropoffs/MultidropTransient\\tran_Cdrp=1.0p_Rterm=sqrt(Lline_Cline)_Lenline=5.0_Rline=20.0m_Lline=2.4n_Cline=4.6p_Vin=1_0_1_0_0_Vout.csv'
p1056
s((S'5.0'
S'79.0p'
S'220.0f'
tS'1.0p'
g3
g7
I10
S'1.0'
S'____'
S''
tp1057
S'../data/transmission_line_10_dropoffs/MultidropTransient\\tran_Cdrp=1.0p_Rterm=sqrt(Lline_Cline)_Lenline=1.0_Rline=5.0_Lline=79.0p_Cline=220.0f_Vin=1_0_0_0_0_Vout.csv'
p1058
s((S'20.0m'
S'2.4n'
S'4.6p'
tS'3.0p'
g3
g7
I10
S'5.0'
S'____'
S''
tp1059
S'../data/transmission_line_10_dropoffs/MultidropTransient\\tran_Cdrp=3.0p_Rterm=sqrt(Lline_Cline)_Lenline=5.0_Rline=20.0m_Lline=2.4n_Cline=4.6p_Vin=1_0_1_0_1_Vout.csv'
p1060
s((S'14.0'
S'3.5n'
S'5.1p'
tS'2.0p'
g3
g4
I10
S'6.0'
S'____'
S'=5n'
tp1061
S'../data/transmission_line_10_dropoffs/MultidropBode\\ac_Cdrp=2.0p_Rterm=sqrt(Lline_Cline)_Lenline=6.0_Rline=14.0_Lline=3.5n_Cline=5.1p_Vin=1_0_1_0_1_BitTime=5n_Vout.csv'
p1062
s((S'6.0'
S'2.4n'
S'220.0f'
tS'3.0p'
g3
g4
I10
S'5.0'
S'____'
S''
tp1063
S'../data/transmission_line_10_dropoffs/MultidropBode\\ac_Cdrp=3.0p_Rterm=sqrt(Lline_Cline)_Lenline=5.0_Rline=6.0_Lline=2.4n_Cline=220.0f_Vin=1_0_1_0_0_Vout.csv'
p1064
s((S'20.0m'
S'2.0n'
S'3.0p'
tS'1.0p'
g64
g7
I10
S'1.0'
S'10101'
S'10n'
tp1065
S'..\\data\\transmission_line_10_dropoffs\\MultidropTransient\\tran_Cdrp=1.0p_Rterm=sqrt(Lline_Cline)_Lenline=1.0_Rline=20.0m_Lline=2.0n_Cline=3.0p_Vin=1_0_1_0_1_BitTime=10n_Vout.csv'
p1066
s((S'7.0'
S'2.4n'
S'4.6p'
tS'3.0p'
g3
g7
I10
S'5.0'
S'____'
S''
tp1067
S'../data/transmission_line_10_dropoffs/MultidropTransient\\tran_Cdrp=3.0p_Rterm=sqrt(Lline_Cline)_Lenline=5.0_Rline=7.0_Lline=2.4n_Cline=4.6p_Vin=1_0_1_0_1_Vout.csv'
p1068
s((S'420.0m'
S'4.0n'
S'9.0p'
tS'3.0p'
g3
g4
I10
S'5.0'
S'____'
S''
tp1069
S'../data/transmission_line_10_dropoffs/MultidropBode\\ac_Cdrp=3.0p_Rterm=sqrt(Lline_Cline)_Lenline=5.0_Rline=420.0m_Lline=4.0n_Cline=9.0p_Vin=1_0_1_0_1_Vout.csv'
p1070
s((S'15.0'
S'3.5n'
S'5.1p'
tS'2.0p'
g3
g7
I10
S'6.0'
S'____'
S'=10n'
tp1071
S'../data/transmission_line_10_dropoffs/MultidropTransient\\tran_Cdrp=2.0p_Rterm=sqrt(Lline_Cline)_Lenline=6.0_Rline=15.0_Lline=3.5n_Cline=5.1p_Vin=1_0_1_0_1_BitTime=10n_Vout.csv'
p1072
s((S'620.0m'
S'2.0n'
S'3.0p'
tS'1.0p'
g64
g4
I10
S'1.0'
S'10101'
S'10n'
tp1073
S'..\\data\\transmission_line_10_dropoffs\\MultidropBode\\ac_Cdrp=1.0p_Rterm=sqrt(Lline_Cline)_Lenline=1.0_Rline=620.0m_Lline=2.0n_Cline=3.0p_Vin=1_0_1_0_1_BitTime=10n_Vout.csv'
p1074
s((S'13.0'
S'2.4n'
S'4.6p'
tS'1.0p'
g3
g4
I10
S'5.0'
S'____'
S''
tp1075
S'../data/transmission_line_10_dropoffs/MultidropBode\\ac_Cdrp=1.0p_Rterm=sqrt(Lline_Cline)_Lenline=5.0_Rline=13.0_Lline=2.4n_Cline=4.6p_Vin=1_0_1_0_0_Vout.csv'
p1076
s((S'19.0'
S'2.4n'
S'4.6p'
tS'1.0p'
g3
g4
I10
S'5.0'
S'____'
S''
tp1077
S'../data/transmission_line_10_dropoffs/MultidropBode\\ac_Cdrp=1.0p_Rterm=sqrt(Lline_Cline)_Lenline=5.0_Rline=19.0_Lline=2.4n_Cline=4.6p_Vin=1_0_1_0_0_Vout.csv'
p1078
s((S'1.4'
S'2.4n'
S'4.6p'
tS'1.0p'
g3
g7
I10
S'5.0'
S'____'
S''
tp1079
S'../data/transmission_line_10_dropoffs/MultidropTransient\\tran_Cdrp=1.0p_Rterm=sqrt(Lline_Cline)_Lenline=5.0_Rline=1.4_Lline=2.4n_Cline=4.6p_Vin=1_0_1_0_0_Vout.csv'
p1080
s((S'4.0'
S'79.0p'
S'220.0f'
tS'1.0p'
g3
g7
I10
S'1.0'
S'____'
S''
tp1081
S'../data/transmission_line_10_dropoffs/MultidropTransient\\tran_Cdrp=1.0p_Rterm=sqrt(Lline_Cline)_Lenline=1.0_Rline=4.0_Lline=79.0p_Cline=220.0f_Vin=1_0_0_0_0_Vout.csv'
p1082
s((S'5.0'
S'3.5n'
S'5.8p'
tS'3.0p'
g3
g7
I10
S'5.0'
S'____'
S''
tp1083
S'../data/transmission_line_10_dropoffs/MultidropTransient\\tran_Cdrp=3.0p_Rterm=sqrt(Lline_Cline)_Lenline=5.0_Rline=5.0_Lline=3.5n_Cline=5.8p_Vin=1_0_1_0_0_Vout.csv'
p1084
s((S'10.0'
S'3.5n'
S'5.1p'
tS'2.0p'
g3
g7
I10
S'6.0'
S'____'
S'=5n'
tp1085
S'../data/transmission_line_10_dropoffs/MultidropTransient\\tran_Cdrp=2.0p_Rterm=sqrt(Lline_Cline)_Lenline=6.0_Rline=10.0_Lline=3.5n_Cline=5.1p_Vin=1_0_1_0_1_BitTime=5n_Vout.csv'
p1086
s((S'4.0'
S'3.5n'
S'5.8p'
tS'3.0p'
g3
g4
I10
S'5.0'
S'____'
S''
tp1087
S'../data/transmission_line_10_dropoffs/MultidropBode\\ac_Cdrp=3.0p_Rterm=sqrt(Lline_Cline)_Lenline=5.0_Rline=4.0_Lline=3.5n_Cline=5.8p_Vin=1_0_1_0_0_Vout.csv'
p1088
s((S'1.0'
S'4.0n'
S'9.0p'
tS'3.0p'
g3
g7
I10
S'5.0'
S'____'
S''
tp1089
S'../data/transmission_line_10_dropoffs/MultidropTransient\\tran_Cdrp=3.0p_Rterm=sqrt(Lline_Cline)_Lenline=5.0_Rline=1.0_Lline=4.0n_Cline=9.0p_Vin=1_0_1_0_1_Vout.csv'
p1090
s((S'3.0'
S'2.4n'
S'4.6p'
tS'1.0p'
g3
g7
I10
S'5.0'
S'____'
S''
tp1091
S'../data/transmission_line_10_dropoffs/MultidropTransient\\tran_Cdrp=1.0p_Rterm=sqrt(Lline_Cline)_Lenline=5.0_Rline=3.0_Lline=2.4n_Cline=4.6p_Vin=1_0_1_0_0_Vout.csv'
p1092
s((S'1.4'
S'2.4n'
S'4.6p'
tS'1.0p'
g3
g4
I10
S'5.0'
S'____'
S''
tp1093
S'../data/transmission_line_10_dropoffs/MultidropBode\\ac_Cdrp=1.0p_Rterm=sqrt(Lline_Cline)_Lenline=5.0_Rline=1.4_Lline=2.4n_Cline=4.6p_Vin=1_0_1_0_0_Vout.csv'
p1094
s((S'1.2'
S'79.0p'
S'220.0f'
tS'3.0p'
g3
g4
I10
S'5.0'
S'____'
S''
tp1095
S'../data/transmission_line_10_dropoffs/MultidropBode\\ac_Cdrp=3.0p_Rterm=sqrt(Lline_Cline)_Lenline=5.0_Rline=1.2_Lline=79.0p_Cline=220.0f_Vin=1_0_1_0_1_Vout.csv'
p1096
s((S'20.0m'
S'4.0n'
S'9.0p'
tS'3.0p'
g3
g4
I10
S'5.0'
S'____'
S''
tp1097
S'../data/transmission_line_10_dropoffs/MultidropBode\\ac_Cdrp=3.0p_Rterm=sqrt(Lline_Cline)_Lenline=5.0_Rline=20.0m_Lline=4.0n_Cline=9.0p_Vin=1_0_1_0_1_Vout.csv'
p1098
s((S'17.0'
S'3.5n'
S'5.8p'
tS'3.0p'
g3
g7
I10
S'5.0'
S'____'
S''
tp1099
S'../data/transmission_line_10_dropoffs/MultidropTransient\\tran_Cdrp=3.0p_Rterm=sqrt(Lline_Cline)_Lenline=5.0_Rline=17.0_Lline=3.5n_Cline=5.8p_Vin=1_0_1_0_0_Vout.csv'
p1100
s((S'3.0'
S'3.0n'
S'5.8p'
tS'3.0p'
g3
g7
I10
S'5.0'
S'______'
S'=3n'
tp1101
S'../data/transmission_line_10_dropoffs/MultidropTransient\\tran_Cdrp=3.0p_Rterm=sqrt(Lline_Cline)_Lenline=5.0_Rline=3.0_Lline=3.0n_Cline=5.8p_Vin=0_1_1_0_0_1_0_BitTime=3n_Vout.csv'
p1102
s((S'1.2'
S'4.0n'
S'9.0p'
tS'3.0p'
g3
g4
I10
S'5.0'
S'____'
S''
tp1103
S'../data/transmission_line_10_dropoffs/MultidropBode\\ac_Cdrp=3.0p_Rterm=sqrt(Lline_Cline)_Lenline=5.0_Rline=1.2_Lline=4.0n_Cline=9.0p_Vin=1_0_1_0_1_Vout.csv'
p1104
s((S'420.0m'
S'1.0n'
S'2.3p'
tS'2.0p'
g3
g4
I14
S'4.0'
S'____'
S''
tp1105
S'../data/transmission_line_14_dropoffs/MultidropBode\\ac_Cdrp=2.0p_Rterm=sqrt(Lline_Cline)_Lenline=4.0_Rline=420.0m_Lline=1.0n_Cline=2.3p_Vin=0_0_0_0_0_Vout.csv'
p1106
s((S'20.0m'
S'500.0p'
S'200.0f'
tS'1.0p'
g3
g7
I10
S'1.0'
S'_____'
S'=5n'
tp1107
S'../data/transmission_line_10_dropoffs/MultidropTransient\\tran_Cdrp=1.0p_Rterm=sqrt(Lline_Cline)_Lenline=1.0_Rline=20.0m_Lline=500.0p_Cline=200.0f_Vin=1_1_1_0_1_1_BitTime=5n_Vout.csv'
p1108
s((S'20.0m'
S'79.0p'
S'220.0f'
tS'3.0p'
g3
g4
I10
S'5.0'
S'____'
S''
tp1109
S'../data/transmission_line_10_dropoffs/MultidropBode\\ac_Cdrp=3.0p_Rterm=sqrt(Lline_Cline)_Lenline=5.0_Rline=20.0m_Lline=79.0p_Cline=220.0f_Vin=1_0_1_0_1_Vout.csv'
p1110
s((S'420.0m'
S'2.4n'
S'4.6p'
tS'1.0p'
g3
g4
I10
S'5.0'
S'____'
S''
tp1111
S'../data/transmission_line_10_dropoffs/MultidropBode\\ac_Cdrp=1.0p_Rterm=sqrt(Lline_Cline)_Lenline=5.0_Rline=420.0m_Lline=2.4n_Cline=4.6p_Vin=1_0_1_0_0_Vout.csv'
p1112
s((S'14.0'
S'2.4n'
S'4.6p'
tS'3.0p'
g3
g7
I10
S'5.0'
S'____'
S''
tp1113
S'../data/transmission_line_10_dropoffs/MultidropTransient\\tran_Cdrp=3.0p_Rterm=sqrt(Lline_Cline)_Lenline=5.0_Rline=14.0_Lline=2.4n_Cline=4.6p_Vin=1_0_1_0_1_Vout.csv'
p1114
s((S'14.0'
S'2.4n'
S'4.6p'
tS'1.0p'
g3
g7
I10
S'5.0'
S'____'
S''
tp1115
S'../data/transmission_line_10_dropoffs/MultidropTransient\\tran_Cdrp=1.0p_Rterm=sqrt(Lline_Cline)_Lenline=5.0_Rline=14.0_Lline=2.4n_Cline=4.6p_Vin=1_0_1_0_0_Vout.csv'
p1116
s((S'16.0'
S'3.5n'
S'5.1p'
tS'2.0p'
g3
g4
I10
S'6.0'
S'____'
S'=10n'
tp1117
S'../data/transmission_line_10_dropoffs/MultidropBode\\ac_Cdrp=2.0p_Rterm=sqrt(Lline_Cline)_Lenline=6.0_Rline=16.0_Lline=3.5n_Cline=5.1p_Vin=1_0_1_0_1_BitTime=10n_Vout.csv'
p1118
s((S'15.0'
S'2.4n'
S'220.0f'
tS'3.0p'
g3
g7
I10
S'5.0'
S'____'
S''
tp1119
S'../data/transmission_line_10_dropoffs/MultidropTransient\\tran_Cdrp=3.0p_Rterm=sqrt(Lline_Cline)_Lenline=5.0_Rline=15.0_Lline=2.4n_Cline=220.0f_Vin=1_0_1_0_0_Vout.csv'
p1120
s((S'420.0m'
S'2.4n'
S'4.6p'
tS'3.0p'
g3
g4
I10
S'5.0'
S'____'
S''
tp1121
S'../data/transmission_line_10_dropoffs/MultidropBode\\ac_Cdrp=3.0p_Rterm=sqrt(Lline_Cline)_Lenline=5.0_Rline=420.0m_Lline=2.4n_Cline=4.6p_Vin=1_0_1_0_1_Vout.csv'
p1122
s((S'10.0'
S'3.5n'
S'5.1p'
tS'2.0p'
g3
g7
I10
S'6.0'
S'____'
S'=10n'
tp1123
S'../data/transmission_line_10_dropoffs/MultidropTransient\\tran_Cdrp=2.0p_Rterm=sqrt(Lline_Cline)_Lenline=6.0_Rline=10.0_Lline=3.5n_Cline=5.1p_Vin=1_0_1_0_1_BitTime=10n_Vout.csv'
p1124
s((S'16.0'
S'3.5n'
S'5.1p'
tS'2.0p'
g3
g4
I10
S'6.0'
S'____'
S'=5n'
tp1125
S'../data/transmission_line_10_dropoffs/MultidropBode\\ac_Cdrp=2.0p_Rterm=sqrt(Lline_Cline)_Lenline=6.0_Rline=16.0_Lline=3.5n_Cline=5.1p_Vin=1_0_1_0_1_BitTime=5n_Vout.csv'
p1126
s((S'8.0'
S'79.0p'
S'220.0f'
tS'1.0p'
g3
g7
I10
S'1.0'
S'____'
S''
tp1127
S'../data/transmission_line_10_dropoffs/MultidropTransient\\tran_Cdrp=1.0p_Rterm=sqrt(Lline_Cline)_Lenline=1.0_Rline=8.0_Lline=79.0p_Cline=220.0f_Vin=1_0_0_0_0_Vout.csv'
p1128
s((S'15.0'
S'2.4n'
S'4.6p'
tS'3.0p'
g3
g7
I10
S'5.0'
S'____'
S''
tp1129
S'../data/transmission_line_10_dropoffs/MultidropTransient\\tran_Cdrp=3.0p_Rterm=sqrt(Lline_Cline)_Lenline=5.0_Rline=15.0_Lline=2.4n_Cline=4.6p_Vin=1_0_1_0_1_Vout.csv'
p1130
s((S'6.0'
S'3.5n'
S'5.8p'
tS'3.0p'
g3
g7
I10
S'5.0'
S'____'
S''
tp1131
S'../data/transmission_line_10_dropoffs/MultidropTransient\\tran_Cdrp=3.0p_Rterm=sqrt(Lline_Cline)_Lenline=5.0_Rline=6.0_Lline=3.5n_Cline=5.8p_Vin=1_0_1_0_0_Vout.csv'
p1132
s((S'2.0m'
S'79.0p'
S'22.0f'
tS'500.0f'
g3
g7
I10
S'1.0'
S'_________'
S''
tp1133
S'../data/transmission_line_10_dropoffs/MultidropTransient\\tran_Cdrp=500.0f_Rterm=sqrt(Lline_Cline)_Lenline=1.0_Rline=2.0m_Lline=79.0p_Cline=22.0f_Vin=1_1_1_0_1_1_0_1_0_1_Vout.csv'
p1134
s((S'820.0m'
S'79.0p'
S'220.0f'
tS'3.0p'
g3
g7
I10
S'5.0'
S'____'
S''
tp1135
S'../data/transmission_line_10_dropoffs/MultidropTransient\\tran_Cdrp=3.0p_Rterm=sqrt(Lline_Cline)_Lenline=5.0_Rline=820.0m_Lline=79.0p_Cline=220.0f_Vin=1_0_1_0_1_Vout.csv'
p1136
s((S'1.6'
S'4.0n'
S'9.0p'
tS'3.0p'
g3
g4
I10
S'5.0'
S'____'
S''
tp1137
S'../data/transmission_line_10_dropoffs/MultidropBode\\ac_Cdrp=3.0p_Rterm=sqrt(Lline_Cline)_Lenline=5.0_Rline=1.6_Lline=4.0n_Cline=9.0p_Vin=1_0_1_0_1_Vout.csv'
p1138
s((S'5.0'
S'2.4n'
S'4.6p'
tS'1.0p'
g3
g7
I10
S'5.0'
S'____'
S''
tp1139
S'../data/transmission_line_10_dropoffs/MultidropTransient\\tran_Cdrp=1.0p_Rterm=sqrt(Lline_Cline)_Lenline=5.0_Rline=5.0_Lline=2.4n_Cline=4.6p_Vin=1_0_1_0_0_Vout.csv'
p1140
s((S'13.0'
S'2.4n'
S'4.6p'
tS'1.0p'
g3
g7
I10
S'5.0'
S'____'
S''
tp1141
S'../data/transmission_line_10_dropoffs/MultidropTransient\\tran_Cdrp=1.0p_Rterm=sqrt(Lline_Cline)_Lenline=5.0_Rline=13.0_Lline=2.4n_Cline=4.6p_Vin=1_0_1_0_0_Vout.csv'
p1142
s((S'420.0m'
S'7.2n'
S'11.2p'
tS'3.0p'
g3
g7
I10
S'5.0'
S'____'
S''
tp1143
S'../data/transmission_line_10_dropoffs/MultidropTransient\\tran_Cdrp=3.0p_Rterm=sqrt(Lline_Cline)_Lenline=5.0_Rline=420.0m_Lline=7.2n_Cline=11.2p_Vin=1_0_1_0_1_Vout.csv'
p1144
s((S'17.0'
S'2.0n'
S'3.0p'
tS'1.0p'
g64
g4
I10
S'1.0'
S'10101'
S'10n'
tp1145
S'..\\data\\transmission_line_10_dropoffs\\MultidropBode\\ac_Cdrp=1.0p_Rterm=sqrt(Lline_Cline)_Lenline=1.0_Rline=17.0_Lline=2.0n_Cline=3.0p_Vin=1_0_1_0_1_BitTime=10n_Vout.csv'
p1146
s((S'5.0'
S'3.5n'
S'5.1p'
tS'2.0p'
g3
g7
I10
S'6.0'
S'____'
S'=5n'
tp1147
S'../data/transmission_line_10_dropoffs/MultidropTransient\\tran_Cdrp=2.0p_Rterm=sqrt(Lline_Cline)_Lenline=6.0_Rline=5.0_Lline=3.5n_Cline=5.1p_Vin=1_0_1_0_1_BitTime=5n_Vout.csv'
p1148
s((S'6.0'
S'2.0n'
S'3.0p'
tS'1.0p'
g64
g4
I10
S'1.0'
S'10101'
S'10n'
tp1149
S'..\\data\\transmission_line_10_dropoffs\\MultidropBode\\ac_Cdrp=1.0p_Rterm=sqrt(Lline_Cline)_Lenline=1.0_Rline=6.0_Lline=2.0n_Cline=3.0p_Vin=1_0_1_0_1_BitTime=10n_Vout.csv'
p1150
s((S'4.0'
S'2.4n'
S'4.6p'
tS'1.0p'
g3
g7
I10
S'5.0'
S'____'
S''
tp1151
S'../data/transmission_line_10_dropoffs/MultidropTransient\\tran_Cdrp=1.0p_Rterm=sqrt(Lline_Cline)_Lenline=5.0_Rline=4.0_Lline=2.4n_Cline=4.6p_Vin=1_0_1_0_0_Vout.csv'
p1152
s((S'16.0'
S'2.4n'
S'4.6p'
tS'1.0p'
g3
g4
I10
S'5.0'
S'____'
S''
tp1153
S'../data/transmission_line_10_dropoffs/MultidropBode\\ac_Cdrp=1.0p_Rterm=sqrt(Lline_Cline)_Lenline=5.0_Rline=16.0_Lline=2.4n_Cline=4.6p_Vin=1_0_1_0_0_Vout.csv'
p1154
s((S'420.0m'
S'3.5n'
S'5.1p'
tS'2.0p'
g3
g7
I10
S'6.0'
S'____'
S'=10n'
tp1155
S'../data/transmission_line_10_dropoffs/MultidropTransient\\tran_Cdrp=2.0p_Rterm=sqrt(Lline_Cline)_Lenline=6.0_Rline=420.0m_Lline=3.5n_Cline=5.1p_Vin=1_0_1_0_1_BitTime=10n_Vout.csv'
p1156
s((S'15.0'
S'2.4n'
S'4.6p'
tS'1.0p'
g3
g4
I10
S'5.0'
S'____'
S''
tp1157
S'../data/transmission_line_10_dropoffs/MultidropBode\\ac_Cdrp=1.0p_Rterm=sqrt(Lline_Cline)_Lenline=5.0_Rline=15.0_Lline=2.4n_Cline=4.6p_Vin=1_0_1_0_0_Vout.csv'
p1158
s((S'20.0m'
S'500.0p'
S'200.0f'
tS'1.0p'
g3
g7
I10
S'1.0'
S'_____'
S'=6n'
tp1159
S'../data/transmission_line_10_dropoffs/MultidropTransient\\tran_Cdrp=1.0p_Rterm=sqrt(Lline_Cline)_Lenline=1.0_Rline=20.0m_Lline=500.0p_Cline=200.0f_Vin=1_1_1_0_1_1_BitTime=6n_Vout.csv'
p1160
s((S'13.0'
S'2.4n'
S'220.0f'
tS'3.0p'
g3
g7
I10
S'5.0'
S'____'
S''
tp1161
S'../data/transmission_line_10_dropoffs/MultidropTransient\\tran_Cdrp=3.0p_Rterm=sqrt(Lline_Cline)_Lenline=5.0_Rline=13.0_Lline=2.4n_Cline=220.0f_Vin=1_0_1_0_0_Vout.csv'
p1162
s((S'19.0'
S'3.5n'
S'5.1p'
tS'2.0p'
g3
g4
I10
S'6.0'
S'____'
S'=10n'
tp1163
S'../data/transmission_line_10_dropoffs/MultidropBode\\ac_Cdrp=2.0p_Rterm=sqrt(Lline_Cline)_Lenline=6.0_Rline=19.0_Lline=3.5n_Cline=5.1p_Vin=1_0_1_0_1_BitTime=10n_Vout.csv'
p1164
s((S'1.6'
S'2.4n'
S'220.0f'
tS'3.0p'
g3
g4
I10
S'5.0'
S'____'
S''
tp1165
S'../data/transmission_line_10_dropoffs/MultidropBode\\ac_Cdrp=3.0p_Rterm=sqrt(Lline_Cline)_Lenline=5.0_Rline=1.6_Lline=2.4n_Cline=220.0f_Vin=1_0_1_0_0_Vout.csv'
p1166
s((S'9.0'
S'79.0p'
S'220.0f'
tS'1.0p'
g3
g4
I10
S'1.0'
S'____'
S''
tp1167
S'../data/transmission_line_10_dropoffs/MultidropBode\\ac_Cdrp=1.0p_Rterm=sqrt(Lline_Cline)_Lenline=1.0_Rline=9.0_Lline=79.0p_Cline=220.0f_Vin=1_0_0_0_0_Vout.csv'
p1168
s((S'15.0'
S'79.0p'
S'220.0f'
tS'1.0p'
g3
g4
I10
S'1.0'
S'____'
S''
tp1169
S'../data/transmission_line_10_dropoffs/MultidropBode\\ac_Cdrp=1.0p_Rterm=sqrt(Lline_Cline)_Lenline=1.0_Rline=15.0_Lline=79.0p_Cline=220.0f_Vin=1_0_0_0_0_Vout.csv'
p1170
s((S'13.0'
S'79.0p'
S'220.0f'
tS'1.0p'
g3
g7
I10
S'1.0'
S'____'
S''
tp1171
S'../data/transmission_line_10_dropoffs/MultidropTransient\\tran_Cdrp=1.0p_Rterm=sqrt(Lline_Cline)_Lenline=1.0_Rline=13.0_Lline=79.0p_Cline=220.0f_Vin=1_0_0_0_0_Vout.csv'
p1172
s((S'12.0'
S'3.5n'
S'5.8p'
tS'3.0p'
g3
g4
I10
S'5.0'
S'____'
S''
tp1173
S'../data/transmission_line_10_dropoffs/MultidropBode\\ac_Cdrp=3.0p_Rterm=sqrt(Lline_Cline)_Lenline=5.0_Rline=12.0_Lline=3.5n_Cline=5.8p_Vin=1_0_1_0_0_Vout.csv'
p1174
s((S'14.0'
S'3.0n'
S'5.8p'
tS'3.0p'
g3
g7
I10
S'5.0'
S'______'
S'=3n'
tp1175
S'../data/transmission_line_10_dropoffs/MultidropTransient\\tran_Cdrp=3.0p_Rterm=sqrt(Lline_Cline)_Lenline=5.0_Rline=14.0_Lline=3.0n_Cline=5.8p_Vin=0_1_1_0_0_1_0_BitTime=3n_Vout.csv'
p1176
s((S'820.0m'
S'79.0p'
S'220.0f'
tS'3.0p'
g3
g4
I10
S'5.0'
S'____'
S''
tp1177
S'../data/transmission_line_10_dropoffs/MultidropBode\\ac_Cdrp=3.0p_Rterm=sqrt(Lline_Cline)_Lenline=5.0_Rline=820.0m_Lline=79.0p_Cline=220.0f_Vin=1_0_1_0_1_Vout.csv'
p1178
s((S'5.0'
S'2.4n'
S'220.0f'
tS'3.0p'
g3
g7
I10
S'5.0'
S'____'
S''
tp1179
S'../data/transmission_line_10_dropoffs/MultidropTransient\\tran_Cdrp=3.0p_Rterm=sqrt(Lline_Cline)_Lenline=5.0_Rline=5.0_Lline=2.4n_Cline=220.0f_Vin=1_0_1_0_0_Vout.csv'
p1180
s((S'20.0m'
S'500.0p'
S'200.0f'
tS'1.0p'
g3
g7
I10
S'1.0'
S'____'
S''
tp1181
S'../data/transmission_line_10_dropoffs/MultidropTransient\\tran_Cdrp=1.0p_Rterm=sqrt(Lline_Cline)_Lenline=1.0_Rline=20.0m_Lline=500.0p_Cline=200.0f_Vin=1_0_1_0_1_Vout.csv'
p1182
sa(lp1183
cnumpy.core.multiarray
scalar
p1184
(cnumpy
dtype
p1185
(S'f8'
I0
I1
tRp1186
(I3
S'<'
NNNI-1
I-1
I0
tbS'{\x14\xaeG\xe1z\x94?'
tRp1187
ag1184
(g1186
S')\\\x8f\xc2\xf5(\xcc?'
tRp1188
ag1184
(g1186
S'\xe2z\x14\xaeG\xe1\xda?'
tRp1189
ag1184
(g1186
S'\xd8\xa3p=\n\xd7\xe3?'
tRp1190
ag1184
(g1186
S'>\n\xd7\xa3p=\xea?'
tRp1191
ag1184
(g1186
S'\x00\x00\x00\x00\x00\x00\x00@'
tRp1192
ag1184
(g1186
S'\x00\x00\x00\x00\x00\x00\x08@'
tRp1193
ag1184
(g1186
S'\x00\x00\x00\x00\x00\x00\x10@'
tRp1194
ag1184
(g1186
S'\x00\x00\x00\x00\x00\x00\x14@'
tRp1195
ag1184
(g1186
S'\x00\x00\x00\x00\x00\x00\x18@'
tRp1196
ag1184
(g1186
S'\x00\x00\x00\x00\x00\x00\x1c@'
tRp1197
ag1184
(g1186
S'\x00\x00\x00\x00\x00\x00 @'
tRp1198
ag1184
(g1186
S'\x00\x00\x00\x00\x00\x00"@'
tRp1199
ag1184
(g1186
S'\x00\x00\x00\x00\x00\x00$@'
tRp1200
ag1184
(g1186
S'\x00\x00\x00\x00\x00\x00&@'
tRp1201
ag1184
(g1186
S'\x00\x00\x00\x00\x00\x00(@'
tRp1202
ag1184
(g1186
S'\x00\x00\x00\x00\x00\x00*@'
tRp1203
ag1184
(g1186
S'\x00\x00\x00\x00\x00\x00,@'
tRp1204
ag1184
(g1186
S'\x00\x00\x00\x00\x00\x00.@'
tRp1205
ag1184
(g1186
S'\x00\x00\x00\x00\x00\x000@'
tRp1206
ag1184
(g1186
S'\x00\x00\x00\x00\x00\x001@'
tRp1207
ag1184
(g1186
S'\x00\x00\x00\x00\x00\x002@'
tRp1208
ag1184
(g1186
S'\x00\x00\x00\x00\x00\x003@'
tRp1209
ag1184
(g1186
S'\x00\x00\x00\x00\x00\x004@'
tRp1210
ag1192
ag1193
ag1194
ag1195
ag1196
ag1197
ag1198
ag1199
ag1200
ag1201
ag1202
ag1203
ag1204
ag1205
ag1206
ag1207
ag1208
ag1209
ag1210
ag1192
ag1193
ag1194
ag1195
ag1196
ag1197
ag1198
ag1199
ag1200
ag1201
ag1202
ag1203
ag1204
ag1205
ag1206
ag1207
ag1208
ag1209
ag1210
ag1192
ag1193
ag1194
ag1195
ag1196
ag1197
ag1198
ag1199
ag1200
ag1201
ag1202
ag1203
ag1204
ag1205
ag1206
ag1207
ag1208
ag1209
ag1210
aa(lp1211
g1184
(g1186
S'\x95\xd6&\xe8\x0b.\x01>'
tRp1212
ag1184
(g1186
S'\x95\xd6&\xe8\x0b.\x11>'
tRp1213
ag1184
(g1186
S'\xe0A:\xdc\x11\xc5\x19>'
tRp1214
ag1184
(g1186
S'\x95\xd6&\xe8\x0b.!>'
tRp1215
ag1184
(g1186
S':\x8c0\xe2\x8ey%>'
tRp1216
ag1184
(g1186
S'\xdfA:\xdc\x11\xc5)>'
tRp1217
ag1184
(g1186
S'\x85\xf7C\xd6\x94\x10.>'
tRp1218
ag1184
(g1186
S'\x95\xd6&\xe8\x0b.1>'
tRp1219
ag1184
(g1186
S'h\xb1+e\xcdS3>'
tRp1220
ag1184
(g1186
S';\x8c0\xe2\x8ey5>'
tRp1221
ag1184
(g1186
S'\rg5_P\x9f7>'
tRp1222
ag1184
(g1186
S'\xe0A:\xdc\x11\xc59>'
tRp1223
ag1184
(g1186
S'\xb3\x1c?Y\xd3\xea;>'
tRp1224
ag1184
(g1186
S'\x85\xf7C\xd6\x94\x10>>'
tRp1225
ag1184
(g1186
S',i\xa4)+\x1b@>'
tRp1226
ag1184
(g1186
S'\x95\xd6&\xe8\x0b.A>'
tRp1227
ag1184
(g1186
S'\xfeC\xa9\xa6\xec@B>'
tRp1228
ag1184
(g1186
S'g\xb1+e\xcdSC>'
tRp1229
ag1184
(g1186
S'\xd1\x1e\xae#\xaefD>'
tRp1230
ag1184
(g1186
S':\x8c0\xe2\x8eyE>'
tRp1231
ag1184
(g1186
S'\xa3\xf9\xb2\xa0o\x8cF>'
tRp1232
aa(lp1233
g1184
(g1186
S'\x82vIh\xc2%L='
tRp1234
ag1184
(g1186
S'R\xa5R\xb5z\xaao='
tRp1235
ag1184
(g1186
S'\x82vIh\xc2%|='
tRp1236
ag1184
(g1186
S'.\xcd\xf4\xba#;\x84='
tRp1237
ag1184
(g1186
S'\x1a\xdf\xc4Afc\x8a='
tRp1238
ag1184
(g1186
S'\x83xJd\xd4E\x90='
tRp1239
ag1184
(g1186
S'z\x81\xb2\xa7\xf5Y\x93='
tRp1240
ag1184
(g1186
S'p\x8a\x1a\xeb\x16n\x96='
tRp1241
ag1184
(g1186
S'f\x93\x82.8\x82\x99='
tRp1242
ag1184
(g1186
S'\\\x9c\xeaqY\x96\x9c='
tRp1243
ag1184
(g1186
S'R\xa5R\xb5z\xaa\x9f='
tRp1244
ag1184
(g1186
S'$W]\xfcM_\xa1='
tRp1245
ag1184
(g1186
S'\xa0[\x11\x9e^\xe9\xa2='
tRp1246
ag1184
(g1186
S'\x1b`\xc5?os\xa4='
tRp1247
ag1184
(g1186
S'\x96dy\xe1\x7f\xfd\xa5='
tRp1248
aa.