(lp1
(dp2
((S'12.0'
S'79.0p'
S'220.0f'
tS'1.0p'
S'Vout'
p3
S'ac'
p4
I10
S'1.0'
tp5
S'../data/transmission_line_10_dropoffs/MultidropBode\\ac_Rline=12.0_Lline=79.0p_Cline=220.0f_Cdrp=1.0p_Lenline=1.0_Vout.csv'
p6
s((S'12.0'
S'79.0p'
S'220.0f'
tS'1.0p'
g3
S'tran'
p7
I10
S'1.0'
tp8
S'../data/transmission_line_10_dropoffs/MultidropTransient\\tran_Rline=12.0_Lline=79.0p_Cline=220.0f_Cdrp=1.0p_Lenline=1.0_Vout.csv'
p9
s((S'1.0'
S'79.0p'
S'220.0f'
tS'1.0p'
g3
g7
I10
S'1.0'
tp10
S'../data/transmission_line_10_dropoffs/MultidropTransient\\tran_Rline=1.0_Lline=79.0p_Cline=220.0f_Cdrp=1.0p_Lenline=1.0_Vout.csv'
p11
s((S'4.0'
S'79.0p'
S'220.0f'
tS'1.0p'
g3
g7
I10
S'1.0'
tp12
S'../data/transmission_line_10_dropoffs/MultidropTransient\\tran_Rline=4.0_Lline=79.0p_Cline=220.0f_Cdrp=1.0p_Lenline=1.0_Vout.csv'
p13
s((S'420.0m'
S'79.0p'
S'220.0f'
tS'1.0p'
g3
g4
I10
S'1.0'
tp14
S'../data/transmission_line_10_dropoffs/MultidropBode\\ac_Rline=420.0m_Lline=79.0p_Cline=220.0f_Cdrp=1.0p_Lenline=1.0_Vout.csv'
p15
s((S'4.0'
S'79.0p'
S'220.0f'
tS'1.0p'
g3
g4
I10
S'1.0'
tp16
S'../data/transmission_line_10_dropoffs/MultidropBode\\ac_Rline=4.0_Lline=79.0p_Cline=220.0f_Cdrp=1.0p_Lenline=1.0_Vout.csv'
p17
s((S'19.0'
S'79.0p'
S'220.0f'
tS'1.0p'
g3
g7
I10
S'1.0'
tp18
S'../data/transmission_line_10_dropoffs/MultidropTransient\\tran_Rline=19.0_Lline=79.0p_Cline=220.0f_Cdrp=1.0p_Lenline=1.0_Vout.csv'
p19
s((S'16.0'
S'79.0p'
S'220.0f'
tS'1.0p'
g3
g4
I10
S'1.0'
tp20
S'../data/transmission_line_10_dropoffs/MultidropBode\\ac_Rline=16.0_Lline=79.0p_Cline=220.0f_Cdrp=1.0p_Lenline=1.0_Vout.csv'
p21
s((S'6.0'
S'79.0p'
S'220.0f'
tS'1.0p'
g3
g7
I10
S'1.0'
tp22
S'../data/transmission_line_10_dropoffs/MultidropTransient\\tran_Rline=6.0_Lline=79.0p_Cline=220.0f_Cdrp=1.0p_Lenline=1.0_Vout.csv'
p23
s((S'10.0'
S'79.0p'
S'220.0f'
tS'1.0p'
g3
g4
I10
S'1.0'
tp24
S'../data/transmission_line_10_dropoffs/MultidropBode\\ac_Rline=10.0_Lline=79.0p_Cline=220.0f_Cdrp=1.0p_Lenline=1.0_Vout.csv'
p25
s((S'15.0'
S'79.0p'
S'220.0f'
tS'1.0p'
g3
g4
I10
S'1.0'
tp26
S'../data/transmission_line_10_dropoffs/MultidropBode\\ac_Rline=15.0_Lline=79.0p_Cline=220.0f_Cdrp=1.0p_Lenline=1.0_Vout.csv'
p27
s((S'3.0'
S'79.0p'
S'220.0f'
tS'1.0p'
g3
g4
I10
S'1.0'
tp28
S'../data/transmission_line_10_dropoffs/MultidropBode\\ac_Rline=3.0_Lline=79.0p_Cline=220.0f_Cdrp=1.0p_Lenline=1.0_Vout.csv'
p29
s((S'620.0m'
S'79.0p'
S'220.0f'
tS'1.0p'
g3
g7
I10
S'1.0'
tp30
S'../data/transmission_line_10_dropoffs/MultidropTransient\\tran_Rline=620.0m_Lline=79.0p_Cline=220.0f_Cdrp=1.0p_Lenline=1.0_Vout.csv'
p31
s((S'13.0'
S'79.0p'
S'220.0f'
tS'1.0p'
g3
g7
I10
S'1.0'
tp32
S'../data/transmission_line_10_dropoffs/MultidropTransient\\tran_Rline=13.0_Lline=79.0p_Cline=220.0f_Cdrp=1.0p_Lenline=1.0_Vout.csv'
p33
s((S'220.0m'
S'79.0p'
S'220.0f'
tS'1.0p'
g3
g4
I10
S'1.0'
tp34
S'../data/transmission_line_10_dropoffs/MultidropBode\\ac_Rline=220.0m_Lline=79.0p_Cline=220.0f_Cdrp=1.0p_Lenline=1.0_Vout.csv'
p35
s((S'17.0'
S'79.0p'
S'220.0f'
tS'1.0p'
g3
g4
I10
S'1.0'
tp36
S'../data/transmission_line_10_dropoffs/MultidropBode\\ac_Rline=17.0_Lline=79.0p_Cline=220.0f_Cdrp=1.0p_Lenline=1.0_Vout.csv'
p37
s((S'9.0'
S'79.0p'
S'220.0f'
tS'1.0p'
g3
g7
I10
S'1.0'
tp38
S'../data/transmission_line_10_dropoffs/MultidropTransient\\tran_Rline=9.0_Lline=79.0p_Cline=220.0f_Cdrp=1.0p_Lenline=1.0_Vout.csv'
p39
s((S'19.0'
S'79.0p'
S'220.0f'
tS'1.0p'
g3
g4
I10
S'1.0'
tp40
S'../data/transmission_line_10_dropoffs/MultidropBode\\ac_Rline=19.0_Lline=79.0p_Cline=220.0f_Cdrp=1.0p_Lenline=1.0_Vout.csv'
p41
s((S'18.0'
S'79.0p'
S'220.0f'
tS'1.0p'
g3
g4
I10
S'1.0'
tp42
S'../data/transmission_line_10_dropoffs/MultidropBode\\ac_Rline=18.0_Lline=79.0p_Cline=220.0f_Cdrp=1.0p_Lenline=1.0_Vout.csv'
p43
s((S'220.0m'
S'79.0p'
S'220.0f'
tS'1.0p'
g3
g7
I10
S'1.0'
tp44
S'../data/transmission_line_10_dropoffs/MultidropTransient\\tran_Rline=220.0m_Lline=79.0p_Cline=220.0f_Cdrp=1.0p_Lenline=1.0_Vout.csv'
p45
s((S'18.0'
S'79.0p'
S'220.0f'
tS'1.0p'
g3
g7
I10
S'1.0'
tp46
S'../data/transmission_line_10_dropoffs/MultidropTransient\\tran_Rline=18.0_Lline=79.0p_Cline=220.0f_Cdrp=1.0p_Lenline=1.0_Vout.csv'
p47
s((S'6.0'
S'79.0p'
S'220.0f'
tS'1.0p'
g3
g4
I10
S'1.0'
tp48
S'../data/transmission_line_10_dropoffs/MultidropBode\\ac_Rline=6.0_Lline=79.0p_Cline=220.0f_Cdrp=1.0p_Lenline=1.0_Vout.csv'
p49
s((S'16.0'
S'79.0p'
S'220.0f'
tS'1.0p'
g3
g7
I10
S'1.0'
tp50
S'../data/transmission_line_10_dropoffs/MultidropTransient\\tran_Rline=16.0_Lline=79.0p_Cline=220.0f_Cdrp=1.0p_Lenline=1.0_Vout.csv'
p51
s((S'1.6'
S'79.0p'
S'220.0f'
tS'1.0p'
g3
g7
I10
S'1.0'
tp52
S'../data/transmission_line_10_dropoffs/MultidropTransient\\tran_Rline=1.6_Lline=79.0p_Cline=220.0f_Cdrp=1.0p_Lenline=1.0_Vout.csv'
p53
s((S'1.8'
S'79.0p'
S'220.0f'
tS'1.0p'
g3
g7
I10
S'1.0'
tp54
S'../data/transmission_line_10_dropoffs/MultidropTransient\\tran_Rline=1.8_Lline=79.0p_Cline=220.0f_Cdrp=1.0p_Lenline=1.0_Vout.csv'
p55
s((S'15.0'
S'79.0p'
S'220.0f'
tS'1.0p'
g3
g7
I10
S'1.0'
tp56
S'../data/transmission_line_10_dropoffs/MultidropTransient\\tran_Rline=15.0_Lline=79.0p_Cline=220.0f_Cdrp=1.0p_Lenline=1.0_Vout.csv'
p57
s((S'8.0'
S'79.0p'
S'220.0f'
tS'1.0p'
g3
g7
I10
S'1.0'
tp58
S'../data/transmission_line_10_dropoffs/MultidropTransient\\tran_Rline=8.0_Lline=79.0p_Cline=220.0f_Cdrp=1.0p_Lenline=1.0_Vout.csv'
p59
s((S'820.0m'
S'79.0p'
S'220.0f'
tS'1.0p'
g3
g7
I10
S'1.0'
tp60
S'../data/transmission_line_10_dropoffs/MultidropTransient\\tran_Rline=820.0m_Lline=79.0p_Cline=220.0f_Cdrp=1.0p_Lenline=1.0_Vout.csv'
p61
s((S'14.0'
S'79.0p'
S'220.0f'
tS'1.0p'
g3
g7
I10
S'1.0'
tp62
S'../data/transmission_line_10_dropoffs/MultidropTransient\\tran_Rline=14.0_Lline=79.0p_Cline=220.0f_Cdrp=1.0p_Lenline=1.0_Vout.csv'
p63
s((S'13.0'
S'79.0p'
S'220.0f'
tS'1.0p'
g3
g4
I10
S'1.0'
tp64
S'../data/transmission_line_10_dropoffs/MultidropBode\\ac_Rline=13.0_Lline=79.0p_Cline=220.0f_Cdrp=1.0p_Lenline=1.0_Vout.csv'
p65
s((S'20.0m'
S'79.0p'
S'220.0f'
tS'1.0p'
g3
g7
I10
S'1.0'
tp66
S'../data/transmission_line_10_dropoffs/MultidropTransient\\tran_Rline=20.0m_Lline=79.0p_Cline=220.0f_Cdrp=1.0p_Lenline=1.0_Vout.csv'
p67
s((S'8.0'
S'79.0p'
S'220.0f'
tS'1.0p'
g3
g4
I10
S'1.0'
tp68
S'../data/transmission_line_10_dropoffs/MultidropBode\\ac_Rline=8.0_Lline=79.0p_Cline=220.0f_Cdrp=1.0p_Lenline=1.0_Vout.csv'
p69
s((S'7.0'
S'79.0p'
S'220.0f'
tS'1.0p'
g3
g4
I10
S'1.0'
tp70
S'../data/transmission_line_10_dropoffs/MultidropBode\\ac_Rline=7.0_Lline=79.0p_Cline=220.0f_Cdrp=1.0p_Lenline=1.0_Vout.csv'
p71
s((S'14.0'
S'79.0p'
S'220.0f'
tS'1.0p'
g3
g4
I10
S'1.0'
tp72
S'../data/transmission_line_10_dropoffs/MultidropBode\\ac_Rline=14.0_Lline=79.0p_Cline=220.0f_Cdrp=1.0p_Lenline=1.0_Vout.csv'
p73
s((S'820.0m'
S'79.0p'
S'220.0f'
tS'1.0p'
g3
g4
I10
S'1.0'
tp74
S'../data/transmission_line_10_dropoffs/MultidropBode\\ac_Rline=820.0m_Lline=79.0p_Cline=220.0f_Cdrp=1.0p_Lenline=1.0_Vout.csv'
p75
s((S'1.2'
S'79.0p'
S'220.0f'
tS'1.0p'
g3
g4
I10
S'1.0'
tp76
S'../data/transmission_line_10_dropoffs/MultidropBode\\ac_Rline=1.2_Lline=79.0p_Cline=220.0f_Cdrp=1.0p_Lenline=1.0_Vout.csv'
p77
s((S'3.0'
S'79.0p'
S'220.0f'
tS'1.0p'
g3
g7
I10
S'1.0'
tp78
S'../data/transmission_line_10_dropoffs/MultidropTransient\\tran_Rline=3.0_Lline=79.0p_Cline=220.0f_Cdrp=1.0p_Lenline=1.0_Vout.csv'
p79
s((S'11.0'
S'79.0p'
S'220.0f'
tS'1.0p'
g3
g4
I10
S'1.0'
tp80
S'../data/transmission_line_10_dropoffs/MultidropBode\\ac_Rline=11.0_Lline=79.0p_Cline=220.0f_Cdrp=1.0p_Lenline=1.0_Vout.csv'
p81
s((S'1.0'
S'79.0p'
S'220.0f'
tS'1.0p'
g3
g4
I10
S'1.0'
tp82
S'../data/transmission_line_10_dropoffs/MultidropBode\\ac_Rline=1.0_Lline=79.0p_Cline=220.0f_Cdrp=1.0p_Lenline=1.0_Vout.csv'
p83
s((S'5.0'
S'79.0p'
S'220.0f'
tS'1.0p'
g3
g4
I10
S'1.0'
tp84
S'../data/transmission_line_10_dropoffs/MultidropBode\\ac_Rline=5.0_Lline=79.0p_Cline=220.0f_Cdrp=1.0p_Lenline=1.0_Vout.csv'
p85
s((S'7.0'
S'79.0p'
S'220.0f'
tS'1.0p'
g3
g7
I10
S'1.0'
tp86
S'../data/transmission_line_10_dropoffs/MultidropTransient\\tran_Rline=7.0_Lline=79.0p_Cline=220.0f_Cdrp=1.0p_Lenline=1.0_Vout.csv'
p87
s((S'11.0'
S'79.0p'
S'220.0f'
tS'1.0p'
g3
g7
I10
S'1.0'
tp88
S'../data/transmission_line_10_dropoffs/MultidropTransient\\tran_Rline=11.0_Lline=79.0p_Cline=220.0f_Cdrp=1.0p_Lenline=1.0_Vout.csv'
p89
s((S'420.0m'
S'79.0p'
S'220.0f'
tS'1.0p'
g3
g7
I10
S'1.0'
tp90
S'../data/transmission_line_10_dropoffs/MultidropTransient\\tran_Rline=420.0m_Lline=79.0p_Cline=220.0f_Cdrp=1.0p_Lenline=1.0_Vout.csv'
p91
s((S'1.4'
S'79.0p'
S'220.0f'
tS'1.0p'
g3
g7
I10
S'1.0'
tp92
S'../data/transmission_line_10_dropoffs/MultidropTransient\\tran_Rline=1.4_Lline=79.0p_Cline=220.0f_Cdrp=1.0p_Lenline=1.0_Vout.csv'
p93
s((S'10.0'
S'79.0p'
S'220.0f'
tS'1.0p'
g3
g7
I10
S'1.0'
tp94
S'../data/transmission_line_10_dropoffs/MultidropTransient\\tran_Rline=10.0_Lline=79.0p_Cline=220.0f_Cdrp=1.0p_Lenline=1.0_Vout.csv'
p95
s((S'9.0'
S'79.0p'
S'220.0f'
tS'1.0p'
g3
g4
I10
S'1.0'
tp96
S'../data/transmission_line_10_dropoffs/MultidropBode\\ac_Rline=9.0_Lline=79.0p_Cline=220.0f_Cdrp=1.0p_Lenline=1.0_Vout.csv'
p97
s((S'620.0m'
S'79.0p'
S'220.0f'
tS'1.0p'
g3
g4
I10
S'1.0'
tp98
S'../data/transmission_line_10_dropoffs/MultidropBode\\ac_Rline=620.0m_Lline=79.0p_Cline=220.0f_Cdrp=1.0p_Lenline=1.0_Vout.csv'
p99
s((S'20.0m'
S'79.0p'
S'220.0f'
tS'1.0p'
g3
g4
I10
S'1.0'
tp100
S'../data/transmission_line_10_dropoffs/MultidropBode\\ac_Rline=20.0m_Lline=79.0p_Cline=220.0f_Cdrp=1.0p_Lenline=1.0_Vout.csv'
p101
s((S'1.8'
S'79.0p'
S'220.0f'
tS'1.0p'
g3
g4
I10
S'1.0'
tp102
S'../data/transmission_line_10_dropoffs/MultidropBode\\ac_Rline=1.8_Lline=79.0p_Cline=220.0f_Cdrp=1.0p_Lenline=1.0_Vout.csv'
p103
s((S'1.4'
S'79.0p'
S'220.0f'
tS'1.0p'
g3
g4
I10
S'1.0'
tp104
S'../data/transmission_line_10_dropoffs/MultidropBode\\ac_Rline=1.4_Lline=79.0p_Cline=220.0f_Cdrp=1.0p_Lenline=1.0_Vout.csv'
p105
s((S'17.0'
S'79.0p'
S'220.0f'
tS'1.0p'
g3
g7
I10
S'1.0'
tp106
S'../data/transmission_line_10_dropoffs/MultidropTransient\\tran_Rline=17.0_Lline=79.0p_Cline=220.0f_Cdrp=1.0p_Lenline=1.0_Vout.csv'
p107
s((S'1.6'
S'79.0p'
S'220.0f'
tS'1.0p'
g3
g4
I10
S'1.0'
tp108
S'../data/transmission_line_10_dropoffs/MultidropBode\\ac_Rline=1.6_Lline=79.0p_Cline=220.0f_Cdrp=1.0p_Lenline=1.0_Vout.csv'
p109
s((S'1.2'
S'79.0p'
S'220.0f'
tS'1.0p'
g3
g7
I10
S'1.0'
tp110
S'../data/transmission_line_10_dropoffs/MultidropTransient\\tran_Rline=1.2_Lline=79.0p_Cline=220.0f_Cdrp=1.0p_Lenline=1.0_Vout.csv'
p111
s((S'5.0'
S'79.0p'
S'220.0f'
tS'1.0p'
g3
g7
I10
S'1.0'
tp112
S'../data/transmission_line_10_dropoffs/MultidropTransient\\tran_Rline=5.0_Lline=79.0p_Cline=220.0f_Cdrp=1.0p_Lenline=1.0_Vout.csv'
p113
sa(lp114
cnumpy.core.multiarray
scalar
p115
(cnumpy
dtype
p116
(S'f8'
I0
I1
tRp117
(I3
S'<'
NNNI-1
I-1
I0
tbS'{\x14\xaeG\xe1z\x94?'
tRp118
ag115
(g117
S')\\\x8f\xc2\xf5(\xcc?'
tRp119
ag115
(g117
S'\xe2z\x14\xaeG\xe1\xda?'
tRp120
ag115
(g117
S'\xd8\xa3p=\n\xd7\xe3?'
tRp121
ag115
(g117
S'>\n\xd7\xa3p=\xea?'
tRp122
ag115
(g117
S'R\xb8\x1e\x85\xebQ\xf0?'
tRp123
ag115
(g117
S'\x86\xebQ\xb8\x1e\x85\xf3?'
tRp124
ag115
(g117
S'\xb9\x1e\x85\xebQ\xb8\xf6?'
tRp125
ag115
(g117
S'\xecQ\xb8\x1e\x85\xeb\xf9?'
tRp126
ag115
(g117
S'\x1f\x85\xebQ\xb8\x1e\xfd?'
tRp127
aa(lp128
g115
(g117
S'\xee\xact{!\xb7\xd5='
tRp129
ag115
(g117
S'\xc7m\xc0\t\xce\xdb\r>'
tRp130
ag115
(g117
S'\xf8"\t\xf2[\x80\x1c>'
tRp131
ag115
(g117
S'\x86\x07\x99oh\t%>'
tRp132
ag115
(g117
S'\x90}-\xe6\xa2\xd2+>'
tRp133
ag115
(g117
S'\xce\xf9`\xae\xeeM1>'
tRp134
ag115
(g117
S'\xd34\xab\xe9\x8b\xb24>'
tRp135
ag115
(g117
S'\xd8o\xf5$)\x178>'
tRp136
ag115
(g117
S'\xdd\xaa?`\xc6{;>'
tRp137
ag115
(g117
S'\xe2\xe5\x89\x9bc\xe0>>'
tRp138
aa(lp139
g115
(g117
S'\xf5\x9b\x1d\xd9U\xf6N='
tRp140
ag115
(g117
S'9[D\x05[I\x85='
tRp141
ag115
(g117
S'Zn{V\xa8Q\x94='
tRp142
ag115
(g117
S'\x17\xafT*\xa3\xfe\x9d='
tRp143
ag115
(g117
S'\xea\xf7\x16\xff\xce\xd5\xa3='
tRp144
ag115
(g117
S'H\x98\x03iL\xac\xa8='
tRp145
ag115
(g117
S'\xa78\xf0\xd2\xc9\x82\xad='
tRp146
ag115
(g117
S'\x83ln\x9e\xa3,\xb1='
tRp147
ag115
(g117
S'\xb2\xbcdS\xe2\x97\xb3='
tRp148
ag115
(g117
S'\xe1\x0c[\x08!\x03\xb6='
tRp149
aa.