(lp1
(dp2
((S'20.0m'
S'79.0p'
S'220.0f'
tS'1.0p'
S'Vout'
p3
S'ac'
p4
I10
S'1.0'
tp5
S'../data/transmission_line_10_dropoffs/MultidropBode\\ac_Rline=20.0m_Lline=79.0p_Cline=220.0f_Cdrp=1.0p_Lenline=1.0_Vout.csv'
p6
s((S'20.0m'
S'79.0p'
S'220.0f'
tS'1.0p'
g3
S'tran'
p7
I10
S'1.0'
tp8
S'../data/transmission_line_10_dropoffs/MultidropTransient\\tran_Rline=20.0m_Lline=79.0p_Cline=220.0f_Cdrp=1.0p_Lenline=1.0_Vout.csv'
p9
s((S'1.8'
S'79.0p'
S'220.0f'
tS'1.0p'
g3
g4
I10
S'1.0'
tp10
S'../data/transmission_line_10_dropoffs/MultidropBode\\ac_Rline=1.8_Lline=79.0p_Cline=220.0f_Cdrp=1.0p_Lenline=1.0_Vout.csv'
p11
s((S'20.0m'
S'79.0p'
S'220.0f'
tS'1.0p'
g3
S'trans'
p12
I10
S'1.0'
tp13
S'../data/transmission_line_10_dropoffs/MultidropBode/ac_Rline=20.0m_Lline=79.0p_Cline=220.0f_Cdrp=1.0p_Lenline=1.0_Vout.csv'
p14
sa(lp15
cnumpy.core.multiarray
scalar
p16
(cnumpy
dtype
p17
(S'f8'
I0
I1
tRp18
(I3
S'<'
NNNI-1
I-1
I0
tbS'{\x14\xaeG\xe1z\x94?'
tRp19
ag16
(g18
S')\\\x8f\xc2\xf5(\xcc?'
tRp20
ag16
(g18
S'\xe2z\x14\xaeG\xe1\xda?'
tRp21
ag16
(g18
S'\xd8\xa3p=\n\xd7\xe3?'
tRp22
ag16
(g18
S'>\n\xd7\xa3p=\xea?'
tRp23
ag16
(g18
S'R\xb8\x1e\x85\xebQ\xf0?'
tRp24
ag16
(g18
S'\x86\xebQ\xb8\x1e\x85\xf3?'
tRp25
ag16
(g18
S'\xb9\x1e\x85\xebQ\xb8\xf6?'
tRp26
ag16
(g18
S'\xecQ\xb8\x1e\x85\xeb\xf9?'
tRp27
ag16
(g18
S'\x1f\x85\xebQ\xb8\x1e\xfd?'
tRp28
aa(lp29
g16
(g18
S'\xee\xact{!\xb7\xd5='
tRp30
ag16
(g18
S'\xc7m\xc0\t\xce\xdb\r>'
tRp31
ag16
(g18
S'\xf8"\t\xf2[\x80\x1c>'
tRp32
ag16
(g18
S'\x86\x07\x99oh\t%>'
tRp33
ag16
(g18
S'\x90}-\xe6\xa2\xd2+>'
tRp34
ag16
(g18
S'\xce\xf9`\xae\xeeM1>'
tRp35
ag16
(g18
S'\xd34\xab\xe9\x8b\xb24>'
tRp36
ag16
(g18
S'\xd8o\xf5$)\x178>'
tRp37
ag16
(g18
S'\xdd\xaa?`\xc6{;>'
tRp38
ag16
(g18
S'\xe2\xe5\x89\x9bc\xe0>>'
tRp39
aa(lp40
g16
(g18
S'\xf5\x9b\x1d\xd9U\xf6N='
tRp41
ag16
(g18
S'9[D\x05[I\x85='
tRp42
ag16
(g18
S'Zn{V\xa8Q\x94='
tRp43
ag16
(g18
S'\x17\xafT*\xa3\xfe\x9d='
tRp44
ag16
(g18
S'\xea\xf7\x16\xff\xce\xd5\xa3='
tRp45
ag16
(g18
S'H\x98\x03iL\xac\xa8='
tRp46
ag16
(g18
S'\xa78\xf0\xd2\xc9\x82\xad='
tRp47
ag16
(g18
S'\x83ln\x9e\xa3,\xb1='
tRp48
ag16
(g18
S'\xb2\xbcdS\xe2\x97\xb3='
tRp49
ag16
(g18
S'\xe1\x0c[\x08!\x03\xb6='
tRp50
aa.