(lp1
(dp2
((cnumpy.core.multiarray
scalar
p3
(cnumpy
dtype
p4
(S'f8'
I0
I1
tRp5
(I3
S'<'
NNNI-1
I-1
I0
tbS'\x1f\x85\xebQ\xb8\x1e\xfd?'
tRp6
g3
(g5
S'\x90}-\xe6\xa2\xd2+>'
tRp7
g3
(g5
S'\xb2\xbcdS\xe2\x97\xb3='
tRp8
tF1
S'Vout'
p9
S'trans'
p10
I10
F5
tp11
S'transmission_line_10_dropoffs/MultidropTransient/tran_Rline=1.8_Lline=3.2n_Cline=17.p_Cdrp=1.0p_Lenline=5.0_Vout.csv'
p12
s((g3
(g5
S'\xecQ\xb8\x1e\x85\xeb\xf9?'
tRp13
g3
(g5
S'\x86\x07\x99oh\t%>'
tRp14
g3
(g5
S'\xe1\x0c[\x08!\x03\xb6='
tRp15
tF1
g9
g10
I10
F5
tp16
S'transmission_line_10_dropoffs/MultidropTransient/tran_Rline=1.6_Lline=2.4n_Cline=20.p_Cdrp=1.0p_Lenline=5.0_Vout.csv'
p17
s((g3
(g5
S')\\\x8f\xc2\xf5(\xcc?'
tRp18
g7
g8
tF1
g9
g10
I10
F5
tp19
S'transmission_line_10_dropoffs/MultidropTransient/tran_Rline=220m_Lline=3.2n_Cline=17.p_Cdrp=1.0p_Lenline=5.0_Vout.csv'
p20
s((g18
g14
g15
tF1
g9
g10
I10
F5
tp21
S'transmission_line_10_dropoffs/MultidropTransient/tran_Rline=220m_Lline=2.4n_Cline=20.p_Cdrp=1.0p_Lenline=5.0_Vout.csv'
p22
s((g3
(g5
S'\xb9\x1e\x85\xebQ\xb8\xf6?'
tRp23
g7
g8
tF1
g9
g10
I10
F5
tp24
S'transmission_line_10_dropoffs/MultidropTransient/tran_Rline=1.4_Lline=3.2n_Cline=17.p_Cdrp=1.0p_Lenline=5.0_Vout.csv'
p25
s((g3
(g5
S'R\xb8\x1e\x85\xebQ\xf0?'
tRp26
g14
g15
tF1
g9
g10
I10
F5
tp27
S'transmission_line_10_dropoffs/MultidropTransient/tran_Rline=1.0_Lline=2.4n_Cline=20.p_Cdrp=1.0p_Lenline=5.0_Vout.csv'
p28
s((g3
(g5
S'\xd8\xa3p=\n\xd7\xe3?'
tRp29
g14
g15
tF1
g9
g10
I10
F5
tp30
S'transmission_line_10_dropoffs/MultidropTransient/tran_Rline=620m_Lline=2.4n_Cline=20.p_Cdrp=1.0p_Lenline=5.0_Vout.csv'
p31
s((g23
g14
g15
tF1
g9
g10
I10
F5
tp32
S'transmission_line_10_dropoffs/MultidropTransient/tran_Rline=1.4_Lline=2.4n_Cline=20.p_Cdrp=1.0p_Lenline=5.0_Vout.csv'
p33
s((g3
(g5
S'\xe2z\x14\xaeG\xe1\xda?'
tRp34
g7
g3
(g5
S'\x17\xafT*\xa3\xfe\x9d='
tRp35
tF1
S'Vout'
p36
S'trans'
p37
I10
F1
tp38
S'transmission_line_10_dropoffs/MultidropTransient/tran_Rline=420m_Lline=3.2n_Cline=6.8p_Cdrp=1.0p_Lenline=1.0_Vout.csv'
p39
s((g26
g3
(g5
S'\xce\xf9`\xae\xeeM1>'
tRp40
g3
(g5
S'\x83ln\x9e\xa3,\xb1='
tRp41
tF1
S'Vout'
S'trans'
I10
F4
tp42
S'transmission_line_10_dropoffs/MultidropTransient/tran_Rline=1.0_Lline=4.0n_Cline=15.p_Cdrp=1.0p_Lenline=4.0_Vout.csv'
p43
s((g6
g7
g35
tF1
g36
g37
I10
F1
tp44
S'transmission_line_10_dropoffs/MultidropTransient/tran_Rline=1.8_Lline=3.2n_Cline=6.8p_Cdrp=1.0p_Lenline=1.0_Vout.csv'
p45
s((g23
g7
g35
tF1
g36
g37
I10
F1
tp46
S'transmission_line_10_dropoffs/MultidropTransient/tran_Rline=1.4_Lline=3.2n_Cline=6.8p_Cdrp=1.0p_Lenline=1.0_Vout.csv'
p47
s((g3
(g5
S'{\x14\xaeG\xe1z\x94?'
tRp48
g14
g15
tF1
g9
g10
I10
F5
tp49
S'transmission_line_10_dropoffs/MultidropTransient/tran_Rline=20.m_Lline=2.4n_Cline=20.p_Cdrp=1.0p_Lenline=5.0_Vout.csv'
p50
s((g48
g3
(g5
S'\xee\xact{!\xb7\xd5='
tRp51
g3
(g5
S'\xf5\x9b\x1d\xd9U\xf6N='
tRp52
tF1
S'Vout'
S'trans'
I10
F2
tp53
S'transmission_line_10_dropoffs/MultidropTransient/tran_Rline=20.m_Lline=79.p_Cline=220f_Cdrp=1.0p_Lenline=2.0_Vout.csv'
p54
s((g6
g14
g15
tF1
g9
g10
I10
F5
tp55
S'transmission_line_10_dropoffs/MultidropTransient/tran_Rline=1.8_Lline=2.4n_Cline=20.p_Cdrp=1.0p_Lenline=5.0_Vout.csv'
p56
s((g34
g14
g15
tF1
g9
g10
I10
F5
tp57
S'transmission_line_10_dropoffs/MultidropTransient/tran_Rline=420m_Lline=2.4n_Cline=20.p_Cdrp=1.0p_Lenline=5.0_Vout.csv'
p58
s((g3
(g5
S'>\n\xd7\xa3p=\xea?'
tRp59
g51
g52
tF1
S'Vout'
p60
S'trans'
p61
I10
F1
tp62
S'transmission_line_10_dropoffs/MultidropTransient/tran_Rline=820m_Lline=79.p_Cline=220f_Cdrp=1.0p_Lenline=1.0_Vout.csv'
p63
s((g13
g7
g8
tF1
g9
g10
I10
F5
tp64
S'transmission_line_10_dropoffs/MultidropTransient/tran_Rline=1.6_Lline=3.2n_Cline=17.p_Cdrp=1.0p_Lenline=5.0_Vout.csv'
p65
s((g59
g3
(g5
S'\xe2\xe5\x89\x9bc\xe0>>'
tRp66
g3
(g5
S'Zn{V\xa8Q\x94='
tRp67
tF2
S'Vout'
S'trans'
I10
F3
tp68
S'transmission_line_10_dropoffs/MultidropTransient/tran_Rline=820m_Lline=7.2n_Cline=4.6p_Cdrp=2.0p_Lenline=3.0_Vout.csv'
p69
s((g26
g66
g41
tF1
S'Vout'
S'trans'
I10
F3
tp70
S'transmission_line_10_dropoffs/MultidropTransient/tran_Rline=1.0_Lline=7.2n_Cline=15.p_Cdrp=1.0p_Lenline=3.0_Vout.csv'
p71
s((g29
g7
g8
tF1
g9
g10
I10
F5
tp72
S'transmission_line_10_dropoffs/MultidropTransient/tran_Rline=620m_Lline=3.2n_Cline=17.p_Cdrp=1.0p_Lenline=5.0_Vout.csv'
p73
s((g59
g7
g35
tF1
g36
g37
I10
F1
tp74
S'transmission_line_10_dropoffs/MultidropTransient/tran_Rline=820m_Lline=3.2n_Cline=6.8p_Cdrp=1.0p_Lenline=1.0_Vout.csv'
p75
s((g59
g7
g8
tF1
g9
g10
I10
F5
tp76
S'transmission_line_10_dropoffs/MultidropTransient/tran_Rline=820m_Lline=3.2n_Cline=17.p_Cdrp=1.0p_Lenline=5.0_Vout.csv'
p77
s((g34
g51
g52
tF1
g60
g61
I10
F1
tp78
S'transmission_line_10_dropoffs/MultidropTransient/tran_Rline=420m_Lline=79.p_Cline=220f_Cdrp=1.0p_Lenline=1.0_Vout.csv'
p79
s((g13
g51
g52
tF1
g60
g61
I10
F1
tp80
S'transmission_line_10_dropoffs/MultidropTransient/tran_Rline=1.6_Lline=79.p_Cline=220f_Cdrp=1.0p_Lenline=1.0_Vout.csv'
p81
s((g3
(g5
S'\x86\xebQ\xb8\x1e\x85\xf3?'
tRp82
g51
g52
tF1
g60
g61
I10
F1
tp83
S'transmission_line_10_dropoffs/MultidropTransient/tran_Rline=1.2_Lline=79.p_Cline=220f_Cdrp=1.0p_Lenline=1.0_Vout.csv'
p84
s((g13
g7
g35
tF1
g36
g37
I10
F1
tp85
S'transmission_line_10_dropoffs/MultidropTransient/tran_Rline=1.6_Lline=3.2n_Cline=6.8p_Cdrp=1.0p_Lenline=1.0_Vout.csv'
p86
s((g82
g7
g35
tF1
g36
g37
I10
F1
tp87
S'transmission_line_10_dropoffs/MultidropTransient/tran_Rline=1.2_Lline=3.2n_Cline=6.8p_Cdrp=1.0p_Lenline=1.0_Vout.csv'
p88
s((g34
g7
g8
tF1
g9
g10
I10
F5
tp89
S'transmission_line_10_dropoffs/MultidropTransient/tran_Rline=420m_Lline=3.2n_Cline=17.p_Cdrp=1.0p_Lenline=5.0_Vout.csv'
p90
s((g82
g14
g15
tF1
g9
g10
I10
F5
tp91
S'transmission_line_10_dropoffs/MultidropTransient/tran_Rline=1.2_Lline=2.4n_Cline=20.p_Cdrp=1.0p_Lenline=5.0_Vout.csv'
p92
s((g26
g51
g52
tF1
g60
g61
I10
F1
tp93
S'transmission_line_10_dropoffs/MultidropTransient/tran_Rline=1.0_Lline=79.p_Cline=220f_Cdrp=1.0p_Lenline=1.0_Vout.csv'
p94
s((g29
g7
g35
tF1
g36
g37
I10
F1
tp95
S'transmission_line_10_dropoffs/MultidropTransient/tran_Rline=620m_Lline=3.2n_Cline=6.8p_Cdrp=1.0p_Lenline=1.0_Vout.csv'
p96
s((g18
g51
g52
tF1
g60
g61
I10
F1
tp97
S'transmission_line_10_dropoffs/MultidropTransient/tran_Rline=220m_Lline=79.p_Cline=220f_Cdrp=1.0p_Lenline=1.0_Vout.csv'
p98
s((g26
g7
g8
tF1
g9
g10
I10
F5
tp99
S'transmission_line_10_dropoffs/MultidropTransient/tran_Rline=1.0_Lline=3.2n_Cline=17.p_Cdrp=1.0p_Lenline=5.0_Vout.csv'
p100
s((g29
g51
g52
tF1
g60
g61
I10
F1
tp101
S'transmission_line_10_dropoffs/MultidropTransient/tran_Rline=620m_Lline=79.p_Cline=220f_Cdrp=1.0p_Lenline=1.0_Vout.csv'
p102
s((g48
g7
g8
tF1
g9
g10
I10
F5
tp103
S'transmission_line_10_dropoffs/MultidropTransient/tran_Rline=20.m_Lline=3.2n_Cline=17.p_Cdrp=1.0p_Lenline=5.0_Vout.csv'
p104
s((g6
g51
g52
tF1
g60
g61
I10
F1
tp105
S'transmission_line_10_dropoffs/MultidropTransient/tran_Rline=1.8_Lline=79.p_Cline=220f_Cdrp=1.0p_Lenline=1.0_Vout.csv'
p106
s((g26
g66
g15
tF1
S'Vout'
S'trans'
I10
F1
tp107
S'transmission_line_10_dropoffs/MultidropTransient/tran_Rline=1.0_Lline=7.2n_Cline=20.p_Cdrp=1.0p_Lenline=1.0_Vout.csv'
p108
s((g59
g14
g15
tF1
g9
g10
I10
F5
tp109
S'transmission_line_10_dropoffs/MultidropTransient/tran_Rline=820m_Lline=2.4n_Cline=20.p_Cdrp=1.0p_Lenline=5.0_Vout.csv'
p110
s((g48
g51
g52
tF1
g60
g61
I10
F1
tp111
S'transmission_line_10_dropoffs/MultidropTransient/tran_Rline=20.m_Lline=79.p_Cline=220f_Cdrp=1.0p_Lenline=1.0_Vout.csv'
p112
s((g48
g7
g35
tF1
g36
g37
I10
F1
tp113
S'transmission_line_10_dropoffs/MultidropTransient/tran_Rline=20.m_Lline=3.2n_Cline=6.8p_Cdrp=1.0p_Lenline=1.0_Vout.csv'
p114
s((g82
g7
g8
tF1
g9
g10
I10
F5
tp115
S'transmission_line_10_dropoffs/MultidropTransient/tran_Rline=1.2_Lline=3.2n_Cline=17.p_Cdrp=1.0p_Lenline=5.0_Vout.csv'
p116
s((g26
g7
g35
tF1
g36
g37
I10
F1
tp117
S'transmission_line_10_dropoffs/MultidropTransient/tran_Rline=1.0_Lline=3.2n_Cline=6.8p_Cdrp=1.0p_Lenline=1.0_Vout.csv'
p118
s((g18
g7
g35
tF1
g36
g37
I10
F1
tp119
S'transmission_line_10_dropoffs/MultidropTransient/tran_Rline=220m_Lline=3.2n_Cline=6.8p_Cdrp=1.0p_Lenline=1.0_Vout.csv'
p120
s((g23
g51
g52
tF1
g60
g61
I10
F1
tp121
S'transmission_line_10_dropoffs/MultidropTransient/tran_Rline=1.4_Lline=79.p_Cline=220f_Cdrp=1.0p_Lenline=1.0_Vout.csv'
p122
sa(lp123
g48
ag18
ag34
ag29
ag59
ag26
ag82
ag23
ag13
ag6
aa(lp124
g51
ag3
(g5
S'\xc7m\xc0\t\xce\xdb\r>'
tRp125
ag3
(g5
S'\xf8"\t\xf2[\x80\x1c>'
tRp126
ag14
ag7
ag40
ag3
(g5
S'\xd34\xab\xe9\x8b\xb24>'
tRp127
ag3
(g5
S'\xd8o\xf5$)\x178>'
tRp128
ag3
(g5
S'\xdd\xaa?`\xc6{;>'
tRp129
ag66
aa(lp130
g52
ag3
(g5
S'9[D\x05[I\x85='
tRp131
ag67
ag35
ag3
(g5
S'\xea\xf7\x16\xff\xce\xd5\xa3='
tRp132
ag3
(g5
S'H\x98\x03iL\xac\xa8='
tRp133
ag3
(g5
S'\xa78\xf0\xd2\xc9\x82\xad='
tRp134
ag41
ag8
ag15
aa.