(lp1
(dp2
((S'11.'
S'79.p'
S'220f'
tS'1.0p'
S'Vout'
p3
S'tran'
p4
I10
S'1.0'
tp5
S'../data\\tran_Rline=11._Lline=79.p_Cline=220f_Cdrp=1.0p_Lenline=1.0_Vout.csv'
p6
s((S'420m'
S'5.6n'
S'9.0p'
tS'1.0p'
g3
g4
I10
S'1.0'
tp7
S'../data\\tran_Rline=420m_Lline=5.6n_Cline=9.0p_Cdrp=1.0p_Lenline=1.0_Vout.csv'
p8
s((S'420m'
S'869p'
S'9.0p'
tS'1.0p'
g3
g4
I10
S'1.0'
tp9
S'../data\\tran_Rline=420m_Lline=869p_Cline=9.0p_Cdrp=1.0p_Lenline=1.0_Vout.csv'
p10
s((S'220m'
S'2.4n'
S'20.p'
tS'1.0p'
g3
g4
I10
S'5.0'
tp11
S'../data\\tran_Rline=220m_Lline=2.4n_Cline=20.p_Cdrp=1.0p_Lenline=5.0_Vout.csv'
p12
s((S'420m'
S'1.7n'
S'9.0p'
tS'1.0p'
g3
g4
I10
S'1.0'
tp13
S'../data\\tran_Rline=420m_Lline=1.7n_Cline=9.0p_Cdrp=1.0p_Lenline=1.0_Vout.csv'
p14
s((S'1.8'
S'7.2n'
S'17.p'
tS'1.0p'
g3
g4
I10
S'1.0'
tp15
S'../data\\tran_Rline=1.8_Lline=7.2n_Cline=17.p_Cdrp=1.0p_Lenline=1.0_Vout.csv'
p16
s((S'220m'
S'79.p'
S'220f'
tS'1.0p'
g3
g4
I10
S'1.0'
tp17
S'../data\\tran_Rline=220m_Lline=79.p_Cline=220f_Cdrp=1.0p_Lenline=1.0_Vout.csv'
p18
s((S'16.'
S'79.p'
S'220f'
tS'1.0p'
g3
S'ac'
p19
I10
S'1.0'
tp20
S'../data\\ac_Rline=16._Lline=79.p_Cline=220f_Cdrp=1.0p_Lenline=1.0_Vout.csv'
p21
s((S'5.0'
S'79.p'
S'220f'
tS'1.0p'
g3
g4
I10
S'1.0'
tp22
S'../data\\tran_Rline=5.0_Lline=79.p_Cline=220f_Cdrp=1.0p_Lenline=1.0_Vout.csv'
p23
s((S'20.m'
S'16.n'
S'66.p'
tS'1.0p'
g3
g4
I10
S'5.0'
tp24
S'../data\\tran_Rline=20.m_Lline=16.n_Cline=66.p_Cdrp=1.0p_Lenline=5.0_Vout.csv'
p25
s((S'10.'
S'79.p'
S'220f'
tS'1.0p'
g3
g19
I10
S'1.0'
tp26
S'../data\\ac_Rline=10._Lline=79.p_Cline=220f_Cdrp=1.0p_Lenline=1.0_Vout.csv'
p27
s((S'420m'
S'7.2n'
S'9.0p'
tS'1.0p'
g3
g19
I10
S'1.0'
tp28
S'../data\\ac_Rline=420m_Lline=7.2n_Cline=9.0p_Cdrp=1.0p_Lenline=1.0_Vout.csv'
p29
s((S'6.0'
S'79.p'
S'220f'
tS'1.0p'
g3
g4
I10
S'1.0'
tp30
S'../data\\tran_Rline=6.0_Lline=79.p_Cline=220f_Cdrp=1.0p_Lenline=1.0_Vout.csv'
p31
s((S'1.8'
S'79.p'
S'11.p'
tS'1.0p'
g3
g4
I10
S'1.0'
tp32
S'../data\\tran_Rline=1.8_Lline=79.p_Cline=11.p_Cdrp=1.0p_Lenline=1.0_Vout.csv'
p33
s((S'7.0'
S'79.p'
S'220f'
tS'1.0p'
g3
g19
I10
S'1.0'
tp34
S'../data\\ac_Rline=7.0_Lline=79.p_Cline=220f_Cdrp=1.0p_Lenline=1.0_Vout.csv'
p35
s((S'1.0'
S'79.p'
S'220f'
tS'1.0p'
g3
g4
I10
S'1.0'
tp36
S'../data\\tran_Rline=1.0_Lline=79.p_Cline=220f_Cdrp=1.0p_Lenline=1.0_Vout.csv'
p37
s((S'420m'
S'2.4n'
S'20.p'
tS'1.0p'
g3
g4
I10
S'5.0'
tp38
S'../data\\tran_Rline=420m_Lline=2.4n_Cline=20.p_Cdrp=1.0p_Lenline=5.0_Vout.csv'
p39
s((S'1.8'
S'79.p'
S'220f'
tS'1.0p'
g3
g4
I10
S'1.0'
tp40
S'../data\\tran_Rline=1.8_Lline=79.p_Cline=220f_Cdrp=1.0p_Lenline=1.0_Vout.csv'
p41
s((S'1.4'
S'2.4n'
S'20.p'
tS'1.0p'
g3
g4
I10
S'5.0'
tp42
S'../data\\tran_Rline=1.4_Lline=2.4n_Cline=20.p_Cdrp=1.0p_Lenline=5.0_Vout.csv'
p43
s((S'20.m'
S'79.p'
S'220f'
tS'1.0p'
g3
g19
I10
S'1.0'
tp44
S'../data\\ac_Rline=20.m_Lline=79.p_Cline=220f_Cdrp=1.0p_Lenline=1.0_Vout.csv'
p45
s((S'15.'
S'79.p'
S'220f'
tS'1.0p'
g3
g19
I10
S'1.0'
tp46
S'../data\\ac_Rline=15._Lline=79.p_Cline=220f_Cdrp=1.0p_Lenline=1.0_Vout.csv'
p47
s((S'1.0'
S'79.p'
S'220f'
tS'1.0p'
g3
g19
I10
S'1.0'
tp48
S'../data\\ac_Rline=1.0_Lline=79.p_Cline=220f_Cdrp=1.0p_Lenline=1.0_Vout.csv'
p49
s((S'4.0'
S'79.p'
S'220f'
tS'1.0p'
g3
g19
I10
S'1.0'
tp50
S'../data\\ac_Rline=4.0_Lline=79.p_Cline=220f_Cdrp=1.0p_Lenline=1.0_Vout.csv'
p51
s((S'420m'
S'4.0n'
S'9.0p'
tS'1.0p'
g3
g4
I10
S'1.0'
tp52
S'../data\\tran_Rline=420m_Lline=4.0n_Cline=9.0p_Cdrp=1.0p_Lenline=1.0_Vout.csv'
p53
s((S'420m'
S'2.4n'
S'9.0p'
tS'1.0p'
g3
g4
I10
S'1.0'
tp54
S'../data\\tran_Rline=420m_Lline=2.4n_Cline=9.0p_Cdrp=1.0p_Lenline=1.0_Vout.csv'
p55
s((S'19.'
S'79.p'
S'220f'
tS'1.0p'
g3
g19
I10
S'1.0'
tp56
S'../data\\ac_Rline=19._Lline=79.p_Cline=220f_Cdrp=1.0p_Lenline=1.0_Vout.csv'
p57
s((S'16.'
S'79.p'
S'220f'
tS'1.0p'
g3
g4
I10
S'1.0'
tp58
S'../data\\tran_Rline=16._Lline=79.p_Cline=220f_Cdrp=1.0p_Lenline=1.0_Vout.csv'
p59
s((S'1.2'
S'79.p'
S'220f'
tS'1.0p'
g3
g4
I10
S'1.0'
tp60
S'../data\\tran_Rline=1.2_Lline=79.p_Cline=220f_Cdrp=1.0p_Lenline=1.0_Vout.csv'
p61
s((S'1.0'
S'2.4n'
S'11.p'
tS'1.0p'
g3
g19
I10
S'1.0'
tp62
S'../data\\ac_Rline=1.0_Lline=2.4n_Cline=11.p_Cdrp=1.0p_Lenline=1.0_Vout.csv'
p63
s((S'20.m'
S'2.4n'
S'20.p'
tS'1.0p'
g3
g4
I10
S'5.0'
tp64
S'../data\\tran_Rline=20.m_Lline=2.4n_Cline=20.p_Cdrp=1.0p_Lenline=5.0_Vout.csv'
p65
s((S'14.'
S'79.p'
S'220f'
tS'1.0p'
g3
g19
I10
S'1.0'
tp66
S'../data\\ac_Rline=14._Lline=79.p_Cline=220f_Cdrp=1.0p_Lenline=1.0_Vout.csv'
p67
s((S'820m'
S'79.p'
S'220f'
tS'1.0p'
g3
g4
I10
S'1.0'
tp68
S'../data\\tran_Rline=820m_Lline=79.p_Cline=220f_Cdrp=1.0p_Lenline=1.0_Vout.csv'
p69
s((S'620m'
S'79.p'
S'220f'
tS'1.0p'
g3
g19
I10
S'1.0'
tp70
S'../data\\ac_Rline=620m_Lline=79.p_Cline=220f_Cdrp=1.0p_Lenline=1.0_Vout.csv'
p71
s((S'1.0'
S'3.2n'
S'17.p'
tS'1.0p'
g3
g4
I10
S'5.0'
tp72
S'../data\\tran_Rline=1.0_Lline=3.2n_Cline=17.p_Cdrp=1.0p_Lenline=5.0_Vout.csv'
p73
s((S'1.8'
S'3.2n'
S'17.p'
tS'1.0p'
g3
g4
I10
S'5.0'
tp74
S'../data\\tran_Rline=1.8_Lline=3.2n_Cline=17.p_Cdrp=1.0p_Lenline=5.0_Vout.csv'
p75
s((S'220m'
S'3.2n'
S'17.p'
tS'1.0p'
g3
g4
I10
S'5.0'
tp76
S'../data\\tran_Rline=220m_Lline=3.2n_Cline=17.p_Cdrp=1.0p_Lenline=5.0_Vout.csv'
p77
s((S'420m'
S'79.p'
S'220f'
tS'1.0p'
g3
g19
I10
S'1.0'
tp78
S'../data\\ac_Rline=420m_Lline=79.p_Cline=220f_Cdrp=1.0p_Lenline=1.0_Vout.csv'
p79
s((S'1.4'
S'3.2n'
S'17.p'
tS'1.0p'
g3
g4
I10
S'5.0'
tp80
S'../data\\tran_Rline=1.4_Lline=3.2n_Cline=17.p_Cdrp=1.0p_Lenline=5.0_Vout.csv'
p81
s((S'1.2'
S'79.p'
S'220f'
tS'1.0p'
g3
g19
I10
S'1.0'
tp82
S'../data\\ac_Rline=1.2_Lline=79.p_Cline=220f_Cdrp=1.0p_Lenline=1.0_Vout.csv'
p83
s((S'1.6'
S'79.p'
S'220f'
tS'1.0p'
g3
g4
I10
S'1.0'
tp84
S'../data\\tran_Rline=1.6_Lline=79.p_Cline=220f_Cdrp=1.0p_Lenline=1.0_Vout.csv'
p85
s((S'1.4'
S'79.p'
S'220f'
tS'1.0p'
g3
g19
I10
S'1.0'
tp86
S'../data\\ac_Rline=1.4_Lline=79.p_Cline=220f_Cdrp=1.0p_Lenline=1.0_Vout.csv'
p87
s((S'1.4'
S'79.p'
S'220f'
tS'1.0p'
g3
g4
I10
S'1.0'
tp88
S'../data\\tran_Rline=1.4_Lline=79.p_Cline=220f_Cdrp=1.0p_Lenline=1.0_Vout.csv'
p89
s((S'420m'
S'6.4n'
S'9.0p'
tS'1.0p'
g3
g19
I10
S'1.0'
tp90
S'../data\\ac_Rline=420m_Lline=6.4n_Cline=9.0p_Cdrp=1.0p_Lenline=1.0_Vout.csv'
p91
s((S'420m'
S'2.4n'
S'9.0p'
tS'1.0p'
g3
g19
I10
S'1.0'
tp92
S'../data\\ac_Rline=420m_Lline=2.4n_Cline=9.0p_Cdrp=1.0p_Lenline=1.0_Vout.csv'
p93
s((S'1.6'
S'2.4n'
S'20.p'
tS'1.0p'
g3
g4
I10
S'5.0'
tp94
S'../data\\tran_Rline=1.6_Lline=2.4n_Cline=20.p_Cdrp=1.0p_Lenline=5.0_Vout.csv'
p95
s((S'820m'
S'2.4n'
S'20.p'
tS'1.0p'
g3
g4
I10
S'5.0'
tp96
S'../data\\tran_Rline=820m_Lline=2.4n_Cline=20.p_Cdrp=1.0p_Lenline=5.0_Vout.csv'
p97
s((S'1.0'
S'2.4n'
S'11.p'
tS'1.0p'
g3
g4
I10
S'1.0'
tp98
S'../data\\tran_Rline=1.0_Lline=2.4n_Cline=11.p_Cdrp=1.0p_Lenline=1.0_Vout.csv'
p99
s((S'7.0'
S'79.p'
S'220f'
tS'1.0p'
g3
g4
I10
S'1.0'
tp100
S'../data\\tran_Rline=7.0_Lline=79.p_Cline=220f_Cdrp=1.0p_Lenline=1.0_Vout.csv'
p101
s((S'14.'
S'79.p'
S'220f'
tS'1.0p'
g3
g4
I10
S'1.0'
tp102
S'../data\\tran_Rline=14._Lline=79.p_Cline=220f_Cdrp=1.0p_Lenline=1.0_Vout.csv'
p103
s((S'420m'
S'4.0n'
S'9.0p'
tS'1.0p'
g3
g19
I10
S'1.0'
tp104
S'../data\\ac_Rline=420m_Lline=4.0n_Cline=9.0p_Cdrp=1.0p_Lenline=1.0_Vout.csv'
p105
s((S'1.8'
S'79.p'
S'220f'
tS'1.0p'
g3
g19
I10
S'1.0'
tp106
S'../data\\ac_Rline=1.8_Lline=79.p_Cline=220f_Cdrp=1.0p_Lenline=1.0_Vout.csv'
p107
s((S'13.'
S'79.p'
S'220f'
tS'1.0p'
g3
g4
I10
S'1.0'
tp108
S'../data\\tran_Rline=13._Lline=79.p_Cline=220f_Cdrp=1.0p_Lenline=1.0_Vout.csv'
p109
s((S'1.8'
S'2.4n'
S'20.p'
tS'1.0p'
g3
g4
I10
S'5.0'
tp110
S'../data\\tran_Rline=1.8_Lline=2.4n_Cline=20.p_Cdrp=1.0p_Lenline=5.0_Vout.csv'
p111
s((S'20.m'
S'3.2n'
S'17.p'
tS'1.0p'
g3
g4
I10
S'5.0'
tp112
S'../data\\tran_Rline=20.m_Lline=3.2n_Cline=17.p_Cdrp=1.0p_Lenline=5.0_Vout.csv'
p113
s((S'1.2'
S'3.2n'
S'17.p'
tS'1.0p'
g3
g4
I10
S'5.0'
tp114
S'../data\\tran_Rline=1.2_Lline=3.2n_Cline=17.p_Cdrp=1.0p_Lenline=5.0_Vout.csv'
p115
s((S'15.'
S'79.p'
S'220f'
tS'1.0p'
g3
g4
I10
S'1.0'
tp116
S'../data\\tran_Rline=15._Lline=79.p_Cline=220f_Cdrp=1.0p_Lenline=1.0_Vout.csv'
p117
s((S'18.'
S'79.p'
S'220f'
tS'1.0p'
g3
g19
I10
S'1.0'
tp118
S'../data\\ac_Rline=18._Lline=79.p_Cline=220f_Cdrp=1.0p_Lenline=1.0_Vout.csv'
p119
s((S'820m'
S'79.p'
S'220f'
tS'1.0p'
g3
g19
I10
S'1.0'
tp120
S'../data\\ac_Rline=820m_Lline=79.p_Cline=220f_Cdrp=1.0p_Lenline=1.0_Vout.csv'
p121
s((S'420m'
S'3.2n'
S'17.p'
tS'1.0p'
g3
g4
I10
S'5.0'
tp122
S'../data\\tran_Rline=420m_Lline=3.2n_Cline=17.p_Cdrp=1.0p_Lenline=5.0_Vout.csv'
p123
s((S'4.0'
S'79.p'
S'220f'
tS'1.0p'
g3
g4
I10
S'1.0'
tp124
S'../data\\tran_Rline=4.0_Lline=79.p_Cline=220f_Cdrp=1.0p_Lenline=1.0_Vout.csv'
p125
s((S'1.8'
S'7.2n'
S'17.p'
tS'1.0p'
g3
g19
I10
S'1.0'
tp126
S'../data\\ac_Rline=1.8_Lline=7.2n_Cline=17.p_Cdrp=1.0p_Lenline=1.0_Vout.csv'
p127
s((S'18.'
S'79.p'
S'220f'
tS'1.0p'
g3
g4
I10
S'1.0'
tp128
S'../data\\tran_Rline=18._Lline=79.p_Cline=220f_Cdrp=1.0p_Lenline=1.0_Vout.csv'
p129
s((S'420m'
S'79.p'
S'9.0p'
tS'1.0p'
g3
g4
I10
S'1.0'
tp130
S'../data\\tran_Rline=420m_Lline=79.p_Cline=9.0p_Cdrp=1.0p_Lenline=1.0_Vout.csv'
p131
s((S'1.0'
S'2.4n'
S'20.p'
tS'1.0p'
g3
g4
I10
S'5.0'
tp132
S'../data\\tran_Rline=1.0_Lline=2.4n_Cline=20.p_Cdrp=1.0p_Lenline=5.0_Vout.csv'
p133
s((S'11.'
S'79.p'
S'220f'
tS'1.0p'
g3
g19
I10
S'1.0'
tp134
S'../data\\ac_Rline=11._Lline=79.p_Cline=220f_Cdrp=1.0p_Lenline=1.0_Vout.csv'
p135
s((S'12.'
S'79.p'
S'220f'
tS'1.0p'
g3
g4
I10
S'1.0'
tp136
S'../data\\tran_Rline=12._Lline=79.p_Cline=220f_Cdrp=1.0p_Lenline=1.0_Vout.csv'
p137
s((S'420m'
S'79.p'
S'9.0p'
tS'1.0p'
g3
g19
I10
S'1.0'
tp138
S'../data\\ac_Rline=420m_Lline=79.p_Cline=9.0p_Cdrp=1.0p_Lenline=1.0_Vout.csv'
p139
s((S'420m'
S'4.8n'
S'9.0p'
tS'1.0p'
g3
g4
I10
S'1.0'
tp140
S'../data\\tran_Rline=420m_Lline=4.8n_Cline=9.0p_Cdrp=1.0p_Lenline=1.0_Vout.csv'
p141
s((S'420m'
S'5.6n'
S'9.0p'
tS'1.0p'
g3
g19
I10
S'1.0'
tp142
S'../data\\ac_Rline=420m_Lline=5.6n_Cline=9.0p_Cdrp=1.0p_Lenline=1.0_Vout.csv'
p143
s((S'17.'
S'79.p'
S'220f'
tS'1.0p'
g3
g19
I10
S'1.0'
tp144
S'../data\\ac_Rline=17._Lline=79.p_Cline=220f_Cdrp=1.0p_Lenline=1.0_Vout.csv'
p145
s((S'620m'
S'2.4n'
S'20.p'
tS'1.0p'
g3
g4
I10
S'5.0'
tp146
S'../data\\tran_Rline=620m_Lline=2.4n_Cline=20.p_Cdrp=1.0p_Lenline=5.0_Vout.csv'
p147
s((S'6.0'
S'79.p'
S'220f'
tS'1.0p'
g3
g19
I10
S'1.0'
tp148
S'../data\\ac_Rline=6.0_Lline=79.p_Cline=220f_Cdrp=1.0p_Lenline=1.0_Vout.csv'
p149
s((S'19.'
S'79.p'
S'220f'
tS'1.0p'
g3
g4
I10
S'1.0'
tp150
S'../data\\tran_Rline=19._Lline=79.p_Cline=220f_Cdrp=1.0p_Lenline=1.0_Vout.csv'
p151
s((S'420m'
S'4.8n'
S'11.p'
tS'1.0p'
g3
g4
I10
S'1.0'
tp152
S'../data\\tran_Rline=420m_Lline=4.8n_Cline=11.p_Cdrp=1.0p_Lenline=1.0_Vout.csv'
p153
s((S'3.0'
S'79.p'
S'220f'
tS'1.0p'
g3
g19
I10
S'1.0'
tp154
S'../data\\ac_Rline=3.0_Lline=79.p_Cline=220f_Cdrp=1.0p_Lenline=1.0_Vout.csv'
p155
s((S'20.m'
S'79.p'
S'220f'
tS'1.0p'
g3
g4
I10
S'9.0'
tp156
S'../data\\tran_Rline=20.m_Lline=79.p_Cline=220f_Cdrp=1.0p_Lenline=9.0_Vout.csv'
p157
s((S'3.0'
S'79.p'
S'220f'
tS'1.0p'
g3
g4
I10
S'1.0'
tp158
S'../data\\tran_Rline=3.0_Lline=79.p_Cline=220f_Cdrp=1.0p_Lenline=1.0_Vout.csv'
p159
s((S'17.'
S'79.p'
S'220f'
tS'1.0p'
g3
g4
I10
S'1.0'
tp160
S'../data\\tran_Rline=17._Lline=79.p_Cline=220f_Cdrp=1.0p_Lenline=1.0_Vout.csv'
p161
s((S'8.0'
S'79.p'
S'220f'
tS'1.0p'
g3
g19
I10
S'1.0'
tp162
S'../data\\ac_Rline=8.0_Lline=79.p_Cline=220f_Cdrp=1.0p_Lenline=1.0_Vout.csv'
p163
s((S'20.m'
S'79.p'
S'220f'
tS'1.0p'
g3
g4
I10
S'11.'
tp164
S'../data\\tran_Rline=20.m_Lline=79.p_Cline=220f_Cdrp=1.0p_Lenline=11._Vout.csv'
p165
s((S'1.6'
S'3.2n'
S'17.p'
tS'1.0p'
g3
g4
I10
S'5.0'
tp166
S'../data\\tran_Rline=1.6_Lline=3.2n_Cline=17.p_Cdrp=1.0p_Lenline=5.0_Vout.csv'
p167
s((S'13.'
S'79.p'
S'220f'
tS'1.0p'
g3
g19
I10
S'1.0'
tp168
S'../data\\ac_Rline=13._Lline=79.p_Cline=220f_Cdrp=1.0p_Lenline=1.0_Vout.csv'
p169
s((S'420m'
S'79.p'
S'220f'
tS'1.0p'
g3
g4
I10
S'1.0'
tp170
S'../data\\tran_Rline=420m_Lline=79.p_Cline=220f_Cdrp=1.0p_Lenline=1.0_Vout.csv'
p171
s((S'10.'
S'79.p'
S'220f'
tS'1.0p'
g3
g4
I10
S'1.0'
tp172
S'../data\\tran_Rline=10._Lline=79.p_Cline=220f_Cdrp=1.0p_Lenline=1.0_Vout.csv'
p173
s((S'20.m'
S'79.p'
S'220f'
tS'1.0p'
g3
g4
I10
S'1.0'
tp174
S'../data\\tran_Rline=20.m_Lline=79.p_Cline=220f_Cdrp=1.0p_Lenline=1.0_Vout.csv'
p175
s((S'1.2'
S'2.4n'
S'20.p'
tS'1.0p'
g3
g4
I10
S'5.0'
tp176
S'../data\\tran_Rline=1.2_Lline=2.4n_Cline=20.p_Cdrp=1.0p_Lenline=5.0_Vout.csv'
p177
s((S'420m'
S'869p'
S'9.0p'
tS'1.0p'
g3
g19
I10
S'1.0'
tp178
S'../data\\ac_Rline=420m_Lline=869p_Cline=9.0p_Cdrp=1.0p_Lenline=1.0_Vout.csv'
p179
s((S'420m'
S'7.2n'
S'9.0p'
tS'1.0p'
g3
g4
I10
S'1.0'
tp180
S'../data\\tran_Rline=420m_Lline=7.2n_Cline=9.0p_Cdrp=1.0p_Lenline=1.0_Vout.csv'
p181
s((S'420m'
S'3.2n'
S'9.0p'
tS'1.0p'
g3
g19
I10
S'1.0'
tp182
S'../data\\ac_Rline=420m_Lline=3.2n_Cline=9.0p_Cdrp=1.0p_Lenline=1.0_Vout.csv'
p183
s((S'620m'
S'3.2n'
S'17.p'
tS'1.0p'
g3
g4
I10
S'5.0'
tp184
S'../data\\tran_Rline=620m_Lline=3.2n_Cline=17.p_Cdrp=1.0p_Lenline=5.0_Vout.csv'
p185
s((S'420m'
S'6.4n'
S'9.0p'
tS'1.0p'
g3
g4
I10
S'1.0'
tp186
S'../data\\tran_Rline=420m_Lline=6.4n_Cline=9.0p_Cdrp=1.0p_Lenline=1.0_Vout.csv'
p187
s((S'420m'
S'3.2n'
S'9.0p'
tS'1.0p'
g3
g4
I10
S'1.0'
tp188
S'../data\\tran_Rline=420m_Lline=3.2n_Cline=9.0p_Cdrp=1.0p_Lenline=1.0_Vout.csv'
p189
s((S'620m'
S'79.p'
S'220f'
tS'1.0p'
g3
g4
I10
S'1.0'
tp190
S'../data\\tran_Rline=620m_Lline=79.p_Cline=220f_Cdrp=1.0p_Lenline=1.0_Vout.csv'
p191
s((S'9.0'
S'79.p'
S'220f'
tS'1.0p'
g3
g19
I10
S'1.0'
tp192
S'../data\\ac_Rline=9.0_Lline=79.p_Cline=220f_Cdrp=1.0p_Lenline=1.0_Vout.csv'
p193
s((S'420m'
S'4.8n'
S'6.8p'
tS'1.0p'
g3
g4
I10
S'1.0'
tp194
S'../data\\tran_Rline=420m_Lline=4.8n_Cline=6.8p_Cdrp=1.0p_Lenline=1.0_Vout.csv'
p195
s((S'220m'
S'79.p'
S'220f'
tS'1.0p'
g3
g19
I10
S'1.0'
tp196
S'../data\\ac_Rline=220m_Lline=79.p_Cline=220f_Cdrp=1.0p_Lenline=1.0_Vout.csv'
p197
s((S'1.6'
S'79.p'
S'220f'
tS'1.0p'
g3
g19
I10
S'1.0'
tp198
S'../data\\ac_Rline=1.6_Lline=79.p_Cline=220f_Cdrp=1.0p_Lenline=1.0_Vout.csv'
p199
s((S'8.0'
S'79.p'
S'220f'
tS'1.0p'
g3
g4
I10
S'1.0'
tp200
S'../data\\tran_Rline=8.0_Lline=79.p_Cline=220f_Cdrp=1.0p_Lenline=1.0_Vout.csv'
p201
s((S'420m'
S'1.7n'
S'9.0p'
tS'1.0p'
g3
g19
I10
S'1.0'
tp202
S'../data\\ac_Rline=420m_Lline=1.7n_Cline=9.0p_Cdrp=1.0p_Lenline=1.0_Vout.csv'
p203
s((S'9.0'
S'79.p'
S'220f'
tS'1.0p'
g3
g4
I10
S'1.0'
tp204
S'../data\\tran_Rline=9.0_Lline=79.p_Cline=220f_Cdrp=1.0p_Lenline=1.0_Vout.csv'
p205
s((S'5.0'
S'79.p'
S'220f'
tS'1.0p'
g3
g19
I10
S'1.0'
tp206
S'../data\\ac_Rline=5.0_Lline=79.p_Cline=220f_Cdrp=1.0p_Lenline=1.0_Vout.csv'
p207
s((S'420m'
S'4.8n'
S'9.0p'
tS'1.0p'
g3
g19
I10
S'1.0'
tp208
S'../data\\ac_Rline=420m_Lline=4.8n_Cline=9.0p_Cdrp=1.0p_Lenline=1.0_Vout.csv'
p209
s((S'820m'
S'3.2n'
S'17.p'
tS'1.0p'
g3
g4
I10
S'5.0'
tp210
S'../data\\tran_Rline=820m_Lline=3.2n_Cline=17.p_Cdrp=1.0p_Lenline=5.0_Vout.csv'
p211
s((S'12.'
S'79.p'
S'220f'
tS'1.0p'
g3
g19
I10
S'1.0'
tp212
S'../data\\ac_Rline=12._Lline=79.p_Cline=220f_Cdrp=1.0p_Lenline=1.0_Vout.csv'
p213
sa(lp214
F0.02
aF0.22
aF0.41999999999999998
aF0.62
aF0.82000000000000006
aF1
aF1.2
aF1.3999999999999999
aF1.6000000000000001
aF1.8
aa(lp215
F7.8999999999999999e-11
aF8.69e-10
aF1.7000000000000001e-09
aF2.4e-09
aF3.2000000000000005e-09
aF4.0000000000000002e-09
aF4.8e-09
aF5.5999999999999997e-09
aF6.4000000000000011e-09
aF7.2000000000000008e-09
aa(lp216
F2.2000000000000002e-13
aF2.3999999999999999e-12
aF4.5999999999999998e-12
aF6.7999999999999993e-12
aF8.9999999999999996e-12
aF1.1199999999999999e-11
aF1.34e-11
aF1.56e-11
aF1.7799999999999999e-11
aF1.9999999999999999e-11
aa.