(lp1
(dp2
((S'4.0'
S'4.8n'
S'15.6p'
tS'3.0p'
S'Vout'
p3
S'ac'
p4
I10
S'5.0'
S'10101'
tp5
S'../data/transmission_line_10_dropoffs/MultidropBode/ac_Cdrp=3.0p_Rterm=sqrt(Lline_Cline)_Lenline=5.0_Rline=4.0_Lline=4.8n_Cline=15.6p_Vin=1_0_1_0_1_Vout.csv'
p6
s((S'9.0'
S'4.8n'
S'15.6p'
tS'3.0p'
g3
S'tran'
p7
I10
S'5.0'
S'10101'
tp8
S'../data/transmission_line_10_dropoffs/MultidropTransient/tran_Cdrp=3.0p_Rterm=sqrt(Lline_Cline)_Lenline=5.0_Rline=9.0_Lline=4.8n_Cline=15.6p_Vin=1_0_1_0_1_Vout.csv'
p9
s((S'420.0m'
S'4.8n'
S'15.6p'
tS'3.0p'
g3
g7
I10
S'5.0'
S'10101'
tp10
S'../data/transmission_line_10_dropoffs/MultidropTransient/tran_Cdrp=3.0p_Rterm=sqrt(Lline_Cline)_Lenline=5.0_Rline=420.0m_Lline=4.8n_Cline=15.6p_Vin=1_0_1_0_1_Vout.csv'
p11
s((S'8.0'
S'4.8n'
S'15.6p'
tS'3.0p'
g3
g7
I10
S'5.0'
S'10101'
tp12
S'../data/transmission_line_10_dropoffs/MultidropTransient/tran_Cdrp=3.0p_Rterm=sqrt(Lline_Cline)_Lenline=5.0_Rline=8.0_Lline=4.8n_Cline=15.6p_Vin=1_0_1_0_1_Vout.csv'
p13
s((S'1.2'
S'4.8n'
S'15.6p'
tS'3.0p'
g3
g7
I10
S'5.0'
S'10101'
tp14
S'../data/transmission_line_10_dropoffs/MultidropTransient/tran_Cdrp=3.0p_Rterm=sqrt(Lline_Cline)_Lenline=5.0_Rline=1.2_Lline=4.8n_Cline=15.6p_Vin=1_0_1_0_1_Vout.csv'
p15
s((S'14.0'
S'4.8n'
S'15.6p'
tS'3.0p'
g3
g7
I10
S'5.0'
S'10101'
tp16
S'../data/transmission_line_10_dropoffs/MultidropTransient/tran_Cdrp=3.0p_Rterm=sqrt(Lline_Cline)_Lenline=5.0_Rline=14.0_Lline=4.8n_Cline=15.6p_Vin=1_0_1_0_1_Vout.csv'
p17
s((S'15.0'
S'4.8n'
S'15.6p'
tS'3.0p'
g3
g7
I10
S'5.0'
S'10101'
tp18
S'../data/transmission_line_10_dropoffs/MultidropTransient/tran_Cdrp=3.0p_Rterm=sqrt(Lline_Cline)_Lenline=5.0_Rline=15.0_Lline=4.8n_Cline=15.6p_Vin=1_0_1_0_1_Vout.csv'
p19
s((S'10.0'
S'4.8n'
S'15.6p'
tS'3.0p'
g3
g7
I10
S'5.0'
S'10101'
tp20
S'../data/transmission_line_10_dropoffs/MultidropTransient/tran_Cdrp=3.0p_Rterm=sqrt(Lline_Cline)_Lenline=5.0_Rline=10.0_Lline=4.8n_Cline=15.6p_Vin=1_0_1_0_1_Vout.csv'
p21
s((S'8.0'
S'4.8n'
S'15.6p'
tS'3.0p'
g3
g4
I10
S'5.0'
S'10101'
tp22
S'../data/transmission_line_10_dropoffs/MultidropBode/ac_Cdrp=3.0p_Rterm=sqrt(Lline_Cline)_Lenline=5.0_Rline=8.0_Lline=4.8n_Cline=15.6p_Vin=1_0_1_0_1_Vout.csv'
p23
s((S'16.0'
S'4.8n'
S'15.6p'
tS'3.0p'
g3
g4
I10
S'5.0'
S'10101'
tp24
S'../data/transmission_line_10_dropoffs/MultidropBode/ac_Cdrp=3.0p_Rterm=sqrt(Lline_Cline)_Lenline=5.0_Rline=16.0_Lline=4.8n_Cline=15.6p_Vin=1_0_1_0_1_Vout.csv'
p25
s((S'6.0'
S'4.8n'
S'15.6p'
tS'3.0p'
g3
g7
I10
S'5.0'
S'10101'
tp26
S'../data/transmission_line_10_dropoffs/MultidropTransient/tran_Cdrp=3.0p_Rterm=sqrt(Lline_Cline)_Lenline=5.0_Rline=6.0_Lline=4.8n_Cline=15.6p_Vin=1_0_1_0_1_Vout.csv'
p27
s((S'20.0m'
S'4.8n'
S'15.6p'
tS'3.0p'
g3
g4
I10
S'5.0'
S'10101'
tp28
S'../data/transmission_line_10_dropoffs/MultidropBode/ac_Cdrp=3.0p_Rterm=sqrt(Lline_Cline)_Lenline=5.0_Rline=20.0m_Lline=4.8n_Cline=15.6p_Vin=1_0_1_0_1_Vout.csv'
p29
s((S'1.6'
S'4.8n'
S'15.6p'
tS'3.0p'
S'Vf'
p30
g7
I10
S'5.0'
S'10101'
tp31
S'../data/transmission_line_10_dropoffs/MultidropTransient/tran_Cdrp=3.0p_Rterm=sqrt(Lline_Cline)_Lenline=5.0_Rline=1.6_Lline=4.8n_Cline=15.6p_Vin=1_0_1_0_1_Vf.csv'
p32
s((S'19.0'
S'4.8n'
S'15.6p'
tS'3.0p'
g3
g7
I10
S'5.0'
S'10101'
tp33
S'../data/transmission_line_10_dropoffs/MultidropTransient/tran_Cdrp=3.0p_Rterm=sqrt(Lline_Cline)_Lenline=5.0_Rline=19.0_Lline=4.8n_Cline=15.6p_Vin=1_0_1_0_1_Vout.csv'
p34
s((S'3.0'
S'4.8n'
S'15.6p'
tS'3.0p'
g3
g7
I10
S'5.0'
S'10101'
tp35
S'../data/transmission_line_10_dropoffs/MultidropTransient/tran_Cdrp=3.0p_Rterm=sqrt(Lline_Cline)_Lenline=5.0_Rline=3.0_Lline=4.8n_Cline=15.6p_Vin=1_0_1_0_1_Vout.csv'
p36
s((S'20.0m'
S'79.0p'
S'220.0f'
tS'1.0p'
g30
g7
I10
S'1.0'
S'10101'
tp37
S'../data/transmission_line_10_dropoffs/MultidropTransient/tran_Cdrp=1.0p_Rterm=sqrt(Lline_Cline)_Lenline=1.0_Rline=20.0m_Lline=79.0p_Cline=220.0f_Vin=1_0_1_0_1_Vf.csv'
p38
s((S'17.0'
S'4.8n'
S'15.6p'
tS'3.0p'
g3
g7
I10
S'5.0'
S'10101'
tp39
S'../data/transmission_line_10_dropoffs/MultidropTransient/tran_Cdrp=3.0p_Rterm=sqrt(Lline_Cline)_Lenline=5.0_Rline=17.0_Lline=4.8n_Cline=15.6p_Vin=1_0_1_0_1_Vout.csv'
p40
s((S'16.0'
S'4.8n'
S'15.6p'
tS'3.0p'
g3
g7
I10
S'5.0'
S'10101'
tp41
S'../data/transmission_line_10_dropoffs/MultidropTransient/tran_Cdrp=3.0p_Rterm=sqrt(Lline_Cline)_Lenline=5.0_Rline=16.0_Lline=4.8n_Cline=15.6p_Vin=1_0_1_0_1_Vout.csv'
p42
s((S'1.2'
S'4.8n'
S'15.6p'
tS'3.0p'
g3
g4
I10
S'5.0'
S'10101'
tp43
S'../data/transmission_line_10_dropoffs/MultidropBode/ac_Cdrp=3.0p_Rterm=sqrt(Lline_Cline)_Lenline=5.0_Rline=1.2_Lline=4.8n_Cline=15.6p_Vin=1_0_1_0_1_Vout.csv'
p44
s((S'220.0m'
S'4.8n'
S'15.6p'
tS'3.0p'
g3
g7
I10
S'5.0'
S'10101'
tp45
S'../data/transmission_line_10_dropoffs/MultidropTransient/tran_Cdrp=3.0p_Rterm=sqrt(Lline_Cline)_Lenline=5.0_Rline=220.0m_Lline=4.8n_Cline=15.6p_Vin=1_0_1_0_1_Vout.csv'
p46
s((S'1.8'
S'4.8n'
S'15.6p'
tS'3.0p'
g3
g4
I10
S'5.0'
S'10101'
tp47
S'../data/transmission_line_10_dropoffs/MultidropBode/ac_Cdrp=3.0p_Rterm=sqrt(Lline_Cline)_Lenline=5.0_Rline=1.8_Lline=4.8n_Cline=15.6p_Vin=1_0_1_0_1_Vout.csv'
p48
s((S'18.0'
S'4.8n'
S'15.6p'
tS'3.0p'
g3
g7
I10
S'5.0'
S'10101'
tp49
S'../data/transmission_line_10_dropoffs/MultidropTransient/tran_Cdrp=3.0p_Rterm=sqrt(Lline_Cline)_Lenline=5.0_Rline=18.0_Lline=4.8n_Cline=15.6p_Vin=1_0_1_0_1_Vout.csv'
p50
s((S'820.0m'
S'3.2n'
S'9.0p'
tS'2.0p'
g3
g4
I10
S'5.0'
S'10000'
tp51
S'../data/transmission_line_10_dropoffs/MultidropBode/ac_Cdrp=2.0p_Rterm=sqrt(Lline_Cline)_Lenline=5.0_Rline=820.0m_Lline=3.2n_Cline=9.0p_Vin=1_0_0_0_0_Vout.csv'
p52
s((S'5.0'
S'4.8n'
S'15.6p'
tS'3.0p'
g3
g4
I10
S'5.0'
S'10101'
tp53
S'../data/transmission_line_10_dropoffs/MultidropBode/ac_Cdrp=3.0p_Rterm=sqrt(Lline_Cline)_Lenline=5.0_Rline=5.0_Lline=4.8n_Cline=15.6p_Vin=1_0_1_0_1_Vout.csv'
p54
s((S'1.4'
S'4.8n'
S'15.6p'
tS'3.0p'
g3
g7
I10
S'5.0'
S'10101'
tp55
S'../data/transmission_line_10_dropoffs/MultidropTransient/tran_Cdrp=3.0p_Rterm=sqrt(Lline_Cline)_Lenline=5.0_Rline=1.4_Lline=4.8n_Cline=15.6p_Vin=1_0_1_0_1_Vout.csv'
p56
s((S'420.0m'
S'4.8n'
S'15.6p'
tS'3.0p'
g3
g4
I10
S'5.0'
S'10101'
tp57
S'../data/transmission_line_10_dropoffs/MultidropBode/ac_Cdrp=3.0p_Rterm=sqrt(Lline_Cline)_Lenline=5.0_Rline=420.0m_Lline=4.8n_Cline=15.6p_Vin=1_0_1_0_1_Vout.csv'
p58
s((S'14.0'
S'4.8n'
S'15.6p'
tS'3.0p'
g3
g4
I10
S'5.0'
S'10101'
tp59
S'../data/transmission_line_10_dropoffs/MultidropBode/ac_Cdrp=3.0p_Rterm=sqrt(Lline_Cline)_Lenline=5.0_Rline=14.0_Lline=4.8n_Cline=15.6p_Vin=1_0_1_0_1_Vout.csv'
p60
s((S'20.0m'
S'4.8n'
S'15.6p'
tS'3.0p'
g3
g7
I10
S'5.0'
S'10101'
tp61
S'../data/transmission_line_10_dropoffs/MultidropTransient/tran_Cdrp=3.0p_Rterm=sqrt(Lline_Cline)_Lenline=5.0_Rline=20.0m_Lline=4.8n_Cline=15.6p_Vin=1_0_1_0_1_Vout.csv'
p62
s((S'13.0'
S'4.8n'
S'15.6p'
tS'3.0p'
g3
g7
I10
S'5.0'
S'10101'
tp63
S'../data/transmission_line_10_dropoffs/MultidropTransient/tran_Cdrp=3.0p_Rterm=sqrt(Lline_Cline)_Lenline=5.0_Rline=13.0_Lline=4.8n_Cline=15.6p_Vin=1_0_1_0_1_Vout.csv'
p64
s((S'820.0m'
S'4.8n'
S'15.6p'
tS'3.0p'
g3
g7
I10
S'5.0'
S'10101'
tp65
S'../data/transmission_line_10_dropoffs/MultidropTransient/tran_Cdrp=3.0p_Rterm=sqrt(Lline_Cline)_Lenline=5.0_Rline=820.0m_Lline=4.8n_Cline=15.6p_Vin=1_0_1_0_1_Vout.csv'
p66
s((S'11.0'
S'4.8n'
S'15.6p'
tS'3.0p'
g3
g4
I10
S'5.0'
S'10101'
tp67
S'../data/transmission_line_10_dropoffs/MultidropBode/ac_Cdrp=3.0p_Rterm=sqrt(Lline_Cline)_Lenline=5.0_Rline=11.0_Lline=4.8n_Cline=15.6p_Vin=1_0_1_0_1_Vout.csv'
p68
s((S'4.0'
S'4.8n'
S'15.6p'
tS'3.0p'
g3
g7
I10
S'5.0'
S'10101'
tp69
S'../data/transmission_line_10_dropoffs/MultidropTransient/tran_Cdrp=3.0p_Rterm=sqrt(Lline_Cline)_Lenline=5.0_Rline=4.0_Lline=4.8n_Cline=15.6p_Vin=1_0_1_0_1_Vout.csv'
p70
s((S'1.0'
S'4.8n'
S'15.6p'
tS'3.0p'
g3
g7
I10
S'5.0'
S'10101'
tp71
S'../data/transmission_line_10_dropoffs/MultidropTransient/tran_Cdrp=3.0p_Rterm=sqrt(Lline_Cline)_Lenline=5.0_Rline=1.0_Lline=4.8n_Cline=15.6p_Vin=1_0_1_0_1_Vout.csv'
p72
s((S'10.0'
S'4.8n'
S'15.6p'
tS'3.0p'
g3
g4
I10
S'5.0'
S'10101'
tp73
S'../data/transmission_line_10_dropoffs/MultidropBode/ac_Cdrp=3.0p_Rterm=sqrt(Lline_Cline)_Lenline=5.0_Rline=10.0_Lline=4.8n_Cline=15.6p_Vin=1_0_1_0_1_Vout.csv'
p74
s((S'1.4'
S'4.8n'
S'15.6p'
tS'3.0p'
g3
g4
I10
S'5.0'
S'10101'
tp75
S'../data/transmission_line_10_dropoffs/MultidropBode/ac_Cdrp=3.0p_Rterm=sqrt(Lline_Cline)_Lenline=5.0_Rline=1.4_Lline=4.8n_Cline=15.6p_Vin=1_0_1_0_1_Vout.csv'
p76
s((S'1.8'
S'4.8n'
S'15.6p'
tS'3.0p'
g3
g7
I10
S'5.0'
S'10101'
tp77
S'../data/transmission_line_10_dropoffs/MultidropTransient/tran_Cdrp=3.0p_Rterm=sqrt(Lline_Cline)_Lenline=5.0_Rline=1.8_Lline=4.8n_Cline=15.6p_Vin=1_0_1_0_1_Vout.csv'
p78
s((S'820.0m'
S'3.2n'
S'9.0p'
tS'3.0p'
g3
g4
I10
S'5.0'
S'10101'
tp79
S'../data/transmission_line_10_dropoffs/MultidropBode/ac_Cdrp=3.0p_Rterm=sqrt(Lline_Cline)_Lenline=5.0_Rline=820.0m_Lline=3.2n_Cline=9.0p_Vin=1_0_1_0_1_Vout.csv'
p80
s((S'1.6'
S'4.8n'
S'15.6p'
tS'3.0p'
g3
g7
I10
S'5.0'
S'10101'
tp81
S'../data/transmission_line_10_dropoffs/MultidropTransient/tran_Cdrp=3.0p_Rterm=sqrt(Lline_Cline)_Lenline=5.0_Rline=1.6_Lline=4.8n_Cline=15.6p_Vin=1_0_1_0_1_Vout.csv'
p82
s((S'3.0p'
S'sqrt(Lline'
S'1.0'
tS'20.0'
S'Vin'
p83
g7
I10
S'7.9n'
S'11'
tp84
S'../data/transmission_line_10_dropoffs/MultidropTransient\\tran_Cdrp=3.0p_Rterm=sqrt(Lline_Cline)_Lenline=1.0_Rline=20.0_Lline=7.9n_Cline=22.0p_Vin=0_1_0_1_1_Vout.csv'
p85
s((S'5.0'
S'4.8n'
S'15.6p'
tS'3.0p'
g3
g7
I10
S'5.0'
S'10101'
tp86
S'../data/transmission_line_10_dropoffs/MultidropTransient/tran_Cdrp=3.0p_Rterm=sqrt(Lline_Cline)_Lenline=5.0_Rline=5.0_Lline=4.8n_Cline=15.6p_Vin=1_0_1_0_1_Vout.csv'
p87
s((S'20.0m'
S'79.0p'
S'220.0f'
tS'1.0p'
g3
g7
I10
S'1.0'
S'10101'
tp88
S'../data/transmission_line_10_dropoffs/MultidropTransient/tran_Cdrp=1.0p_Rterm=sqrt(Lline_Cline)_Lenline=1.0_Rline=20.0m_Lline=79.0p_Cline=220.0f_Vin=1_0_1_0_1_Vout.csv'
p89
s((S'9.0'
S'4.8n'
S'15.6p'
tS'3.0p'
g3
g4
I10
S'5.0'
S'10101'
tp90
S'../data/transmission_line_10_dropoffs/MultidropBode/ac_Cdrp=3.0p_Rterm=sqrt(Lline_Cline)_Lenline=5.0_Rline=9.0_Lline=4.8n_Cline=15.6p_Vin=1_0_1_0_1_Vout.csv'
p91
s((S'220.0m'
S'4.8n'
S'15.6p'
tS'3.0p'
g3
g4
I10
S'5.0'
S'10101'
tp92
S'../data/transmission_line_10_dropoffs/MultidropBode/ac_Cdrp=3.0p_Rterm=sqrt(Lline_Cline)_Lenline=5.0_Rline=220.0m_Lline=4.8n_Cline=15.6p_Vin=1_0_1_0_1_Vout.csv'
p93
s((S'17.0'
S'4.8n'
S'15.6p'
tS'3.0p'
g3
g4
I10
S'5.0'
S'10101'
tp94
S'../data/transmission_line_10_dropoffs/MultidropBode/ac_Cdrp=3.0p_Rterm=sqrt(Lline_Cline)_Lenline=5.0_Rline=17.0_Lline=4.8n_Cline=15.6p_Vin=1_0_1_0_1_Vout.csv'
p95
s((S'19.0'
S'4.8n'
S'15.6p'
tS'3.0p'
g3
g4
I10
S'5.0'
S'10101'
tp96
S'../data/transmission_line_10_dropoffs/MultidropBode/ac_Cdrp=3.0p_Rterm=sqrt(Lline_Cline)_Lenline=5.0_Rline=19.0_Lline=4.8n_Cline=15.6p_Vin=1_0_1_0_1_Vout.csv'
p97
s((S'620.0m'
S'4.8n'
S'15.6p'
tS'3.0p'
g3
g4
I10
S'5.0'
S'10101'
tp98
S'../data/transmission_line_10_dropoffs/MultidropBode/ac_Cdrp=3.0p_Rterm=sqrt(Lline_Cline)_Lenline=5.0_Rline=620.0m_Lline=4.8n_Cline=15.6p_Vin=1_0_1_0_1_Vout.csv'
p99
s((S'12.0'
S'4.8n'
S'15.6p'
tS'3.0p'
g3
g4
I10
S'5.0'
S'10101'
tp100
S'../data/transmission_line_10_dropoffs/MultidropBode/ac_Cdrp=3.0p_Rterm=sqrt(Lline_Cline)_Lenline=5.0_Rline=12.0_Lline=4.8n_Cline=15.6p_Vin=1_0_1_0_1_Vout.csv'
p101
s((S'7.0'
S'4.8n'
S'15.6p'
tS'3.0p'
g3
g7
I10
S'5.0'
S'10101'
tp102
S'../data/transmission_line_10_dropoffs/MultidropTransient/tran_Cdrp=3.0p_Rterm=sqrt(Lline_Cline)_Lenline=5.0_Rline=7.0_Lline=4.8n_Cline=15.6p_Vin=1_0_1_0_1_Vout.csv'
p103
s((S'820.0m'
S'3.2n'
S'9.0p'
tS'2.0p'
g3
g4
I10
S'5.0'
S'10101'
tp104
S'../data/transmission_line_10_dropoffs/MultidropBode/ac_Cdrp=2.0p_Rterm=sqrt(Lline_Cline)_Lenline=5.0_Rline=820.0m_Lline=3.2n_Cline=9.0p_Vin=1_0_1_0_1_Vout.csv'
p105
s((S'18.0'
S'4.8n'
S'15.6p'
tS'3.0p'
g3
g4
I10
S'5.0'
S'10101'
tp106
S'../data/transmission_line_10_dropoffs/MultidropBode/ac_Cdrp=3.0p_Rterm=sqrt(Lline_Cline)_Lenline=5.0_Rline=18.0_Lline=4.8n_Cline=15.6p_Vin=1_0_1_0_1_Vout.csv'
p107
s((S'620.0m'
S'4.8n'
S'15.6p'
tS'3.0p'
g3
g7
I10
S'5.0'
S'10101'
tp108
S'../data/transmission_line_10_dropoffs/MultidropTransient/tran_Cdrp=3.0p_Rterm=sqrt(Lline_Cline)_Lenline=5.0_Rline=620.0m_Lline=4.8n_Cline=15.6p_Vin=1_0_1_0_1_Vout.csv'
p109
s((S'1.6'
S'4.8n'
S'15.6p'
tS'3.0p'
g3
g4
I10
S'5.0'
S'10101'
tp110
S'../data/transmission_line_10_dropoffs/MultidropBode/ac_Cdrp=3.0p_Rterm=sqrt(Lline_Cline)_Lenline=5.0_Rline=1.6_Lline=4.8n_Cline=15.6p_Vin=1_0_1_0_1_Vout.csv'
p111
s((S'15.0'
S'4.8n'
S'15.6p'
tS'3.0p'
g3
g4
I10
S'5.0'
S'10101'
tp112
S'../data/transmission_line_10_dropoffs/MultidropBode/ac_Cdrp=3.0p_Rterm=sqrt(Lline_Cline)_Lenline=5.0_Rline=15.0_Lline=4.8n_Cline=15.6p_Vin=1_0_1_0_1_Vout.csv'
p113
s((S'3.0'
S'4.8n'
S'15.6p'
tS'3.0p'
g3
g4
I10
S'5.0'
S'10101'
tp114
S'../data/transmission_line_10_dropoffs/MultidropBode/ac_Cdrp=3.0p_Rterm=sqrt(Lline_Cline)_Lenline=5.0_Rline=3.0_Lline=4.8n_Cline=15.6p_Vin=1_0_1_0_1_Vout.csv'
p115
s((S'11.0'
S'4.8n'
S'15.6p'
tS'3.0p'
g3
g7
I10
S'5.0'
S'10101'
tp116
S'../data/transmission_line_10_dropoffs/MultidropTransient/tran_Cdrp=3.0p_Rterm=sqrt(Lline_Cline)_Lenline=5.0_Rline=11.0_Lline=4.8n_Cline=15.6p_Vin=1_0_1_0_1_Vout.csv'
p117
s((S'6.0'
S'4.8n'
S'15.6p'
tS'3.0p'
g3
g4
I10
S'5.0'
S'10101'
tp118
S'../data/transmission_line_10_dropoffs/MultidropBode/ac_Cdrp=3.0p_Rterm=sqrt(Lline_Cline)_Lenline=5.0_Rline=6.0_Lline=4.8n_Cline=15.6p_Vin=1_0_1_0_1_Vout.csv'
p119
s((S'1.0'
S'4.8n'
S'15.6p'
tS'3.0p'
g3
g4
I10
S'5.0'
S'10101'
tp120
S'../data/transmission_line_10_dropoffs/MultidropBode/ac_Cdrp=3.0p_Rterm=sqrt(Lline_Cline)_Lenline=5.0_Rline=1.0_Lline=4.8n_Cline=15.6p_Vin=1_0_1_0_1_Vout.csv'
p121
s((S'12.0'
S'4.8n'
S'15.6p'
tS'3.0p'
g3
g7
I10
S'5.0'
S'10101'
tp122
S'../data/transmission_line_10_dropoffs/MultidropTransient/tran_Cdrp=3.0p_Rterm=sqrt(Lline_Cline)_Lenline=5.0_Rline=12.0_Lline=4.8n_Cline=15.6p_Vin=1_0_1_0_1_Vout.csv'
p123
s((S'13.0'
S'4.8n'
S'15.6p'
tS'3.0p'
g3
g4
I10
S'5.0'
S'10101'
tp124
S'../data/transmission_line_10_dropoffs/MultidropBode/ac_Cdrp=3.0p_Rterm=sqrt(Lline_Cline)_Lenline=5.0_Rline=13.0_Lline=4.8n_Cline=15.6p_Vin=1_0_1_0_1_Vout.csv'
p125
s((S'7.0'
S'4.8n'
S'15.6p'
tS'3.0p'
g3
g4
I10
S'5.0'
S'10101'
tp126
S'../data/transmission_line_10_dropoffs/MultidropBode/ac_Cdrp=3.0p_Rterm=sqrt(Lline_Cline)_Lenline=5.0_Rline=7.0_Lline=4.8n_Cline=15.6p_Vin=1_0_1_0_1_Vout.csv'
p127
s((S'820.0m'
S'4.8n'
S'15.6p'
tS'3.0p'
g3
g4
I10
S'5.0'
S'10101'
tp128
S'../data/transmission_line_10_dropoffs/MultidropBode/ac_Cdrp=3.0p_Rterm=sqrt(Lline_Cline)_Lenline=5.0_Rline=820.0m_Lline=4.8n_Cline=15.6p_Vin=1_0_1_0_1_Vout.csv'
p129
sa(lp130
cnumpy.core.multiarray
scalar
p131
(cnumpy
dtype
p132
(S'f8'
I0
I1
tRp133
(I3
S'<'
NNNI-1
I-1
I0
tbS'{\x14\xaeG\xe1z\x94?'
tRp134
ag131
(g133
S')\\\x8f\xc2\xf5(\xcc?'
tRp135
ag131
(g133
S'\xe2z\x14\xaeG\xe1\xda?'
tRp136
ag131
(g133
S'\xd8\xa3p=\n\xd7\xe3?'
tRp137
ag131
(g133
S'>\n\xd7\xa3p=\xea?'
tRp138
ag131
(g133
S'R\xb8\x1e\x85\xebQ\xf0?'
tRp139
ag131
(g133
S'\x86\xebQ\xb8\x1e\x85\xf3?'
tRp140
ag131
(g133
S'\xb9\x1e\x85\xebQ\xb8\xf6?'
tRp141
ag131
(g133
S'\xecQ\xb8\x1e\x85\xeb\xf9?'
tRp142
ag131
(g133
S'\x1f\x85\xebQ\xb8\x1e\xfd?'
tRp143
ag131
(g133
S'\x00\x00\x00\x00\x00\x00\x08@'
tRp144
ag131
(g133
S'\x00\x00\x00\x00\x00\x00\x10@'
tRp145
ag131
(g133
S'\x00\x00\x00\x00\x00\x00\x14@'
tRp146
ag131
(g133
S'\x00\x00\x00\x00\x00\x00\x18@'
tRp147
ag131
(g133
S'\x00\x00\x00\x00\x00\x00\x1c@'
tRp148
ag131
(g133
S'\x00\x00\x00\x00\x00\x00 @'
tRp149
ag131
(g133
S'\x00\x00\x00\x00\x00\x00"@'
tRp150
ag131
(g133
S'\x00\x00\x00\x00\x00\x00$@'
tRp151
ag131
(g133
S'\x00\x00\x00\x00\x00\x00&@'
tRp152
ag131
(g133
S'\x00\x00\x00\x00\x00\x00(@'
tRp153
ag131
(g133
S'\x00\x00\x00\x00\x00\x00*@'
tRp154
ag131
(g133
S'\x00\x00\x00\x00\x00\x00,@'
tRp155
ag131
(g133
S'\x00\x00\x00\x00\x00\x00.@'
tRp156
ag131
(g133
S'\x00\x00\x00\x00\x00\x000@'
tRp157
ag131
(g133
S'\x00\x00\x00\x00\x00\x001@'
tRp158
ag131
(g133
S'\x00\x00\x00\x00\x00\x002@'
tRp159
ag131
(g133
S'\x00\x00\x00\x00\x00\x003@'
tRp160
aa(lp161
g131
(g133
S'\xee\xact{!\xb7\xd5='
tRp162
ag131
(g133
S'\xc7m\xc0\t\xce\xdb\r>'
tRp163
ag131
(g133
S'\xf8"\t\xf2[\x80\x1c>'
tRp164
ag131
(g133
S'\x86\x07\x99oh\t%>'
tRp165
ag131
(g133
S'\x90}-\xe6\xa2\xd2+>'
tRp166
ag131
(g133
S'\xce\xf9`\xae\xeeM1>'
tRp167
ag131
(g133
S'\xd34\xab\xe9\x8b\xb24>'
tRp168
ag131
(g133
S'\xd8o\xf5$)\x178>'
tRp169
ag131
(g133
S'\xdd\xaa?`\xc6{;>'
tRp170
ag131
(g133
S'\xe2\xe5\x89\x9bc\xe0>>'
tRp171
aa(lp172
g131
(g133
S'\xf5\x9b\x1d\xd9U\xf6N='
tRp173
ag131
(g133
S'9[D\x05[I\x85='
tRp174
ag131
(g133
S'Zn{V\xa8Q\x94='
tRp175
ag131
(g133
S'\x17\xafT*\xa3\xfe\x9d='
tRp176
ag131
(g133
S'\xea\xf7\x16\xff\xce\xd5\xa3='
tRp177
ag131
(g133
S'H\x98\x03iL\xac\xa8='
tRp178
ag131
(g133
S'\xa78\xf0\xd2\xc9\x82\xad='
tRp179
ag131
(g133
S'\x83ln\x9e\xa3,\xb1='
tRp180
ag131
(g133
S'\xb2\xbcdS\xe2\x97\xb3='
tRp181
ag131
(g133
S'\xe1\x0c[\x08!\x03\xb6='
tRp182
aa.