(lp1
(dp2
((S'6.0'
S'2.4n'
S'4.6p'
tS'1.0p'
S'Vout'
p3
S'tran'
p4
I10
S'5.0'
S'10100'
tp5
S'../data/transmission_line_10_dropoffs/MultidropTransient\\tran_Cdrp=1.0p_Rterm=sqrt(Lline_Cline)_Lenline=5.0_Rline=6.0_Lline=2.4n_Cline=4.6p_Vin=1_0_1_0_0_Vout.csv'
p6
s((S'6.0'
S'4.0n'
S'9.0p'
tS'3.0p'
g3
g4
I10
S'5.0'
S'10101'
tp7
S'../data/transmission_line_10_dropoffs/MultidropTransient\\tran_Cdrp=3.0p_Rterm=sqrt(Lline_Cline)_Lenline=5.0_Rline=6.0_Lline=4.0n_Cline=9.0p_Vin=1_0_1_0_1_Vout.csv'
p8
s((S'5.0'
S'2.4n'
S'220.0f'
tS'3.0p'
g3
S'ac'
p9
I10
S'5.0'
S'10100'
tp10
S'../data/transmission_line_10_dropoffs/MultidropBode\\ac_Cdrp=3.0p_Rterm=sqrt(Lline_Cline)_Lenline=5.0_Rline=5.0_Lline=2.4n_Cline=220.0f_Vin=1_0_1_0_0_Vout.csv'
p11
s((S'15.0'
S'2.4n'
S'4.6p'
tS'3.0p'
g3
g9
I10
S'5.0'
S'10101'
tp12
S'../data/transmission_line_10_dropoffs/MultidropBode\\ac_Cdrp=3.0p_Rterm=sqrt(Lline_Cline)_Lenline=5.0_Rline=15.0_Lline=2.4n_Cline=4.6p_Vin=1_0_1_0_1_Vout.csv'
p13
s((S'9.0'
S'2.4n'
S'220.0f'
tS'3.0p'
g3
g9
I10
S'5.0'
S'10100'
tp14
S'../data/transmission_line_10_dropoffs/MultidropBode\\ac_Cdrp=3.0p_Rterm=sqrt(Lline_Cline)_Lenline=5.0_Rline=9.0_Lline=2.4n_Cline=220.0f_Vin=1_0_1_0_0_Vout.csv'
p15
s((S'14.0'
S'3.5n'
S'5.8p'
tS'3.0p'
g3
g9
I10
S'5.0'
S'10100'
tp16
S'../data/transmission_line_10_dropoffs/MultidropBode\\ac_Cdrp=3.0p_Rterm=sqrt(Lline_Cline)_Lenline=5.0_Rline=14.0_Lline=3.5n_Cline=5.8p_Vin=1_0_1_0_0_Vout.csv'
p17
s((S'220.0m'
S'2.4n'
S'220.0f'
tS'3.0p'
g3
g9
I10
S'5.0'
S'10100'
tp18
S'../data/transmission_line_10_dropoffs/MultidropBode\\ac_Cdrp=3.0p_Rterm=sqrt(Lline_Cline)_Lenline=5.0_Rline=220.0m_Lline=2.4n_Cline=220.0f_Vin=1_0_1_0_0_Vout.csv'
p19
s((S'19.0'
S'2.4n'
S'4.6p'
tS'1.0p'
g3
g9
I10
S'5.0'
S'10100'
tp20
S'../data/transmission_line_10_dropoffs/MultidropBode\\ac_Cdrp=1.0p_Rterm=sqrt(Lline_Cline)_Lenline=5.0_Rline=19.0_Lline=2.4n_Cline=4.6p_Vin=1_0_1_0_0_Vout.csv'
p21
s((S'9.0'
S'79.0p'
S'220.0f'
tS'3.0p'
g3
g9
I10
S'5.0'
S'10101'
tp22
S'../data/transmission_line_10_dropoffs/MultidropBode\\ac_Cdrp=3.0p_Rterm=sqrt(Lline_Cline)_Lenline=5.0_Rline=9.0_Lline=79.0p_Cline=220.0f_Vin=1_0_1_0_1_Vout.csv'
p23
s((S'220.0m'
S'79.0p'
S'220.0f'
tS'3.0p'
g3
g9
I10
S'5.0'
S'10101'
tp24
S'../data/transmission_line_10_dropoffs/MultidropBode\\ac_Cdrp=3.0p_Rterm=sqrt(Lline_Cline)_Lenline=5.0_Rline=220.0m_Lline=79.0p_Cline=220.0f_Vin=1_0_1_0_1_Vout.csv'
p25
s((S'16.0'
S'79.0p'
S'220.0f'
tS'3.0p'
g3
g9
I10
S'5.0'
S'10101'
tp26
S'../data/transmission_line_10_dropoffs/MultidropBode\\ac_Cdrp=3.0p_Rterm=sqrt(Lline_Cline)_Lenline=5.0_Rline=16.0_Lline=79.0p_Cline=220.0f_Vin=1_0_1_0_1_Vout.csv'
p27
s((S'420.0m'
S'4.0n'
S'11.2p'
tS'3.0p'
g3
g4
I10
S'5.0'
S'10101'
tp28
S'../data/transmission_line_10_dropoffs/MultidropTransient\\tran_Cdrp=3.0p_Rterm=sqrt(Lline_Cline)_Lenline=5.0_Rline=420.0m_Lline=4.0n_Cline=11.2p_Vin=1_0_1_0_1_Vout.csv'
p29
s((S'1.6'
S'2.4n'
S'4.6p'
tS'1.0p'
g3
g9
I10
S'5.0'
S'10100'
tp30
S'../data/transmission_line_10_dropoffs/MultidropBode\\ac_Cdrp=1.0p_Rterm=sqrt(Lline_Cline)_Lenline=5.0_Rline=1.6_Lline=2.4n_Cline=4.6p_Vin=1_0_1_0_0_Vout.csv'
p31
s((S'1.8'
S'2.4n'
S'4.6p'
tS'1.0p'
g3
g9
I10
S'5.0'
S'10100'
tp32
S'../data/transmission_line_10_dropoffs/MultidropBode\\ac_Cdrp=1.0p_Rterm=sqrt(Lline_Cline)_Lenline=5.0_Rline=1.8_Lline=2.4n_Cline=4.6p_Vin=1_0_1_0_0_Vout.csv'
p33
s((S'9.0'
S'3.5n'
S'5.8p'
tS'3.0p'
g3
g9
I10
S'5.0'
S'10100'
tp34
S'../data/transmission_line_10_dropoffs/MultidropBode\\ac_Cdrp=3.0p_Rterm=sqrt(Lline_Cline)_Lenline=5.0_Rline=9.0_Lline=3.5n_Cline=5.8p_Vin=1_0_1_0_0_Vout.csv'
p35
s((S'11.0'
S'3.5n'
S'5.8p'
tS'3.0p'
g3
g4
I10
S'5.0'
S'10100'
tp36
S'../data/transmission_line_10_dropoffs/MultidropTransient\\tran_Cdrp=3.0p_Rterm=sqrt(Lline_Cline)_Lenline=5.0_Rline=11.0_Lline=3.5n_Cline=5.8p_Vin=1_0_1_0_0_Vout.csv'
p37
s((S'620.0m'
S'2.4n'
S'4.6p'
tS'3.0p'
g3
g4
I10
S'5.0'
S'10101'
tp38
S'../data/transmission_line_10_dropoffs/MultidropTransient\\tran_Cdrp=3.0p_Rterm=sqrt(Lline_Cline)_Lenline=5.0_Rline=620.0m_Lline=2.4n_Cline=4.6p_Vin=1_0_1_0_1_Vout.csv'
p39
s((S'13.0'
S'79.0p'
S'220.0f'
tS'3.0p'
g3
g4
I10
S'5.0'
S'10101'
tp40
S'../data/transmission_line_10_dropoffs/MultidropTransient\\tran_Cdrp=3.0p_Rterm=sqrt(Lline_Cline)_Lenline=5.0_Rline=13.0_Lline=79.0p_Cline=220.0f_Vin=1_0_1_0_1_Vout.csv'
p41
s((S'19.0'
S'3.5n'
S'5.8p'
tS'3.0p'
g3
g9
I10
S'5.0'
S'10100'
tp42
S'../data/transmission_line_10_dropoffs/MultidropBode\\ac_Cdrp=3.0p_Rterm=sqrt(Lline_Cline)_Lenline=5.0_Rline=19.0_Lline=3.5n_Cline=5.8p_Vin=1_0_1_0_0_Vout.csv'
p43
s((S'220.0m'
S'2.4n'
S'4.6p'
tS'3.0p'
g3
g9
I10
S'5.0'
S'10100'
tp44
S'../data/transmission_line_10_dropoffs/MultidropBode\\ac_Cdrp=3.0p_Rterm=sqrt(Lline_Cline)_Lenline=5.0_Rline=220.0m_Lline=2.4n_Cline=4.6p_Vin=1_0_1_0_0_Vout.csv'
p45
s((S'1.8'
S'4.0n'
S'9.0p'
tS'3.0p'
g3
g4
I10
S'5.0'
S'10101'
tp46
S'../data/transmission_line_10_dropoffs/MultidropTransient\\tran_Cdrp=3.0p_Rterm=sqrt(Lline_Cline)_Lenline=5.0_Rline=1.8_Lline=4.0n_Cline=9.0p_Vin=1_0_1_0_1_Vout.csv'
p47
s((S'19.0'
S'79.0p'
S'220.0f'
tS'3.0p'
g3
g4
I10
S'5.0'
S'10101'
tp48
S'../data/transmission_line_10_dropoffs/MultidropTransient\\tran_Cdrp=3.0p_Rterm=sqrt(Lline_Cline)_Lenline=5.0_Rline=19.0_Lline=79.0p_Cline=220.0f_Vin=1_0_1_0_1_Vout.csv'
p49
s((S'6.0'
S'2.4n'
S'220.0f'
tS'3.0p'
g3
g4
I10
S'5.0'
S'10100'
tp50
S'../data/transmission_line_10_dropoffs/MultidropTransient\\tran_Cdrp=3.0p_Rterm=sqrt(Lline_Cline)_Lenline=5.0_Rline=6.0_Lline=2.4n_Cline=220.0f_Vin=1_0_1_0_0_Vout.csv'
p51
s((S'7.0'
S'4.0n'
S'9.0p'
tS'3.0p'
g3
g9
I10
S'5.0'
S'10101'
tp52
S'../data/transmission_line_10_dropoffs/MultidropBode\\ac_Cdrp=3.0p_Rterm=sqrt(Lline_Cline)_Lenline=5.0_Rline=7.0_Lline=4.0n_Cline=9.0p_Vin=1_0_1_0_1_Vout.csv'
p53
s((S'8.0'
S'2.4n'
S'4.6p'
tS'1.0p'
g3
g4
I10
S'5.0'
S'10100'
tp54
S'../data/transmission_line_10_dropoffs/MultidropTransient\\tran_Cdrp=1.0p_Rterm=sqrt(Lline_Cline)_Lenline=5.0_Rline=8.0_Lline=2.4n_Cline=4.6p_Vin=1_0_1_0_0_Vout.csv'
p55
s((S'3.0'
S'3.5n'
S'5.8p'
tS'3.0p'
g3
g4
I10
S'5.0'
S'10100'
tp56
S'../data/transmission_line_10_dropoffs/MultidropTransient\\tran_Cdrp=3.0p_Rterm=sqrt(Lline_Cline)_Lenline=5.0_Rline=3.0_Lline=3.5n_Cline=5.8p_Vin=1_0_1_0_0_Vout.csv'
p57
s((S'15.0'
S'2.4n'
S'220.0f'
tS'3.0p'
g3
g9
I10
S'5.0'
S'10100'
tp58
S'../data/transmission_line_10_dropoffs/MultidropBode\\ac_Cdrp=3.0p_Rterm=sqrt(Lline_Cline)_Lenline=5.0_Rline=15.0_Lline=2.4n_Cline=220.0f_Vin=1_0_1_0_0_Vout.csv'
p59
s((S'20.0m'
S'2.4n'
S'220.0f'
tS'3.0p'
g3
g4
I10
S'5.0'
S'10100'
tp60
S'../data/transmission_line_10_dropoffs/MultidropTransient\\tran_Cdrp=3.0p_Rterm=sqrt(Lline_Cline)_Lenline=5.0_Rline=20.0m_Lline=2.4n_Cline=220.0f_Vin=1_0_1_0_0_Vout.csv'
p61
s((S'11.0'
S'79.0p'
S'220.0f'
tS'1.0p'
g3
g9
I10
S'1.0'
S'10000'
tp62
S'../data/transmission_line_10_dropoffs/MultidropBode\\ac_Cdrp=1.0p_Rterm=sqrt(Lline_Cline)_Lenline=1.0_Rline=11.0_Lline=79.0p_Cline=220.0f_Vin=1_0_0_0_0_Vout.csv'
p63
s((S'19.0'
S'79.0p'
S'220.0f'
tS'1.0p'
g3
g9
I10
S'1.0'
S'10000'
tp64
S'../data/transmission_line_10_dropoffs/MultidropBode\\ac_Cdrp=1.0p_Rterm=sqrt(Lline_Cline)_Lenline=1.0_Rline=19.0_Lline=79.0p_Cline=220.0f_Vin=1_0_0_0_0_Vout.csv'
p65
s((S'4.0'
S'79.0p'
S'220.0f'
tS'3.0p'
g3
g4
I10
S'5.0'
S'10101'
tp66
S'../data/transmission_line_10_dropoffs/MultidropTransient\\tran_Cdrp=3.0p_Rterm=sqrt(Lline_Cline)_Lenline=5.0_Rline=4.0_Lline=79.0p_Cline=220.0f_Vin=1_0_1_0_1_Vout.csv'
p67
s((S'420.0m'
S'4.8n'
S'11.2p'
tS'3.0p'
g3
g4
I10
S'5.0'
S'01111'
tp68
S'../data/transmission_line_10_dropoffs/MultidropTransient\\tran_Cdrp=3.0p_Rterm=sqrt(Lline_Cline)_Lenline=5.0_Rline=420.0m_Lline=4.8n_Cline=11.2p_Vin=0_1_1_1_1_Vout.csv'
p69
s((S'420.0m'
S'79.0p'
S'220.0f'
tS'3.0p'
g3
g9
I10
S'5.0'
S'10101'
tp70
S'../data/transmission_line_10_dropoffs/MultidropBode\\ac_Cdrp=3.0p_Rterm=sqrt(Lline_Cline)_Lenline=5.0_Rline=420.0m_Lline=79.0p_Cline=220.0f_Vin=1_0_1_0_1_Vout.csv'
p71
s((S'820.0m'
S'2.4n'
S'4.6p'
tS'1.0p'
g3
g4
I10
S'5.0'
S'10100'
tp72
S'../data/transmission_line_10_dropoffs/MultidropTransient\\tran_Cdrp=1.0p_Rterm=sqrt(Lline_Cline)_Lenline=5.0_Rline=820.0m_Lline=2.4n_Cline=4.6p_Vin=1_0_1_0_0_Vout.csv'
p73
s((S'8.0'
S'2.4n'
S'4.6p'
tS'3.0p'
g3
g9
I10
S'5.0'
S'10101'
tp74
S'../data/transmission_line_10_dropoffs/MultidropBode\\ac_Cdrp=3.0p_Rterm=sqrt(Lline_Cline)_Lenline=5.0_Rline=8.0_Lline=2.4n_Cline=4.6p_Vin=1_0_1_0_1_Vout.csv'
p75
s((S'20.0m'
S'79.0p'
S'220.0f'
tS'1.0p'
g3
g9
I10
S'1.0'
S'10000'
tp76
S'../data/transmission_line_10_dropoffs/MultidropBode\\ac_Cdrp=1.0p_Rterm=sqrt(Lline_Cline)_Lenline=1.0_Rline=20.0m_Lline=79.0p_Cline=220.0f_Vin=1_0_0_0_0_Vout.csv'
p77
s((S'1.4'
S'2.4n'
S'4.6p'
tS'3.0p'
g3
g4
I10
S'5.0'
S'10100'
tp78
S'../data/transmission_line_10_dropoffs/MultidropTransient\\tran_Cdrp=3.0p_Rterm=sqrt(Lline_Cline)_Lenline=5.0_Rline=1.4_Lline=2.4n_Cline=4.6p_Vin=1_0_1_0_0_Vout.csv'
p79
s((S'15.0'
S'2.4n'
S'4.6p'
tS'3.0p'
g3
g9
I10
S'5.0'
S'10100'
tp80
S'../data/transmission_line_10_dropoffs/MultidropBode\\ac_Cdrp=3.0p_Rterm=sqrt(Lline_Cline)_Lenline=5.0_Rline=15.0_Lline=2.4n_Cline=4.6p_Vin=1_0_1_0_0_Vout.csv'
p81
s((S'19.0'
S'4.0n'
S'9.0p'
tS'3.0p'
g3
g9
I10
S'5.0'
S'10101'
tp82
S'../data/transmission_line_10_dropoffs/MultidropBode\\ac_Cdrp=3.0p_Rterm=sqrt(Lline_Cline)_Lenline=5.0_Rline=19.0_Lline=4.0n_Cline=9.0p_Vin=1_0_1_0_1_Vout.csv'
p83
s((S'10.0'
S'3.5n'
S'5.8p'
tS'3.0p'
g3
g4
I10
S'5.0'
S'10100'
tp84
S'../data/transmission_line_10_dropoffs/MultidropTransient\\tran_Cdrp=3.0p_Rterm=sqrt(Lline_Cline)_Lenline=5.0_Rline=10.0_Lline=3.5n_Cline=5.8p_Vin=1_0_1_0_0_Vout.csv'
p85
s((S'1.6'
S'2.4n'
S'220.0f'
tS'3.0p'
g3
g9
I10
S'5.0'
S'10100'
tp86
S'../data/transmission_line_10_dropoffs/MultidropBode\\ac_Cdrp=3.0p_Rterm=sqrt(Lline_Cline)_Lenline=5.0_Rline=1.6_Lline=2.4n_Cline=220.0f_Vin=1_0_1_0_0_Vout.csv'
p87
s((S'11.0'
S'2.4n'
S'220.0f'
tS'3.0p'
g3
g9
I10
S'5.0'
S'10100'
tp88
S'../data/transmission_line_10_dropoffs/MultidropBode\\ac_Cdrp=3.0p_Rterm=sqrt(Lline_Cline)_Lenline=5.0_Rline=11.0_Lline=2.4n_Cline=220.0f_Vin=1_0_1_0_0_Vout.csv'
p89
s((S'10.0'
S'2.4n'
S'4.6p'
tS'3.0p'
g3
g9
I10
S'5.0'
S'10100'
tp90
S'../data/transmission_line_10_dropoffs/MultidropBode\\ac_Cdrp=3.0p_Rterm=sqrt(Lline_Cline)_Lenline=5.0_Rline=10.0_Lline=2.4n_Cline=4.6p_Vin=1_0_1_0_0_Vout.csv'
p91
s((S'19.0'
S'79.0p'
S'220.0f'
tS'1.0p'
g3
g4
I10
S'1.0'
S'10000'
tp92
S'../data/transmission_line_10_dropoffs/MultidropTransient\\tran_Cdrp=1.0p_Rterm=sqrt(Lline_Cline)_Lenline=1.0_Rline=19.0_Lline=79.0p_Cline=220.0f_Vin=1_0_0_0_0_Vout.csv'
p93
s((S'7.0'
S'79.0p'
S'220.0f'
tS'1.0p'
g3
g4
I10
S'1.0'
S'10000'
tp94
S'../data/transmission_line_10_dropoffs/MultidropTransient\\tran_Cdrp=1.0p_Rterm=sqrt(Lline_Cline)_Lenline=1.0_Rline=7.0_Lline=79.0p_Cline=220.0f_Vin=1_0_0_0_0_Vout.csv'
p95
s((S'420.0m'
S'1.0n'
S'2.3p'
tS'2.0p'
g3
g9
I14
S'4.0'
S'00000'
tp96
S'../data/transmission_line_14_dropoffs/MultidropBode\\ac_Cdrp=2.0p_Rterm=sqrt(Lline_Cline)_Lenline=4.0_Rline=420.0m_Lline=1.0n_Cline=2.3p_Vin=0_0_0_0_0_Vout.csv'
p97
s((S'420.0m'
S'4.0n'
S'9.0p'
tS'3.0p'
g3
g4
I10
S'5.0'
S'10101'
tp98
S'../data/transmission_line_10_dropoffs/MultidropTransient\\tran_Cdrp=3.0p_Rterm=sqrt(Lline_Cline)_Lenline=5.0_Rline=420.0m_Lline=4.0n_Cline=9.0p_Vin=1_0_1_0_1_Vout.csv'
p99
s((S'10.0'
S'3.5n'
S'5.8p'
tS'3.0p'
g3
g9
I10
S'5.0'
S'10100'
tp100
S'../data/transmission_line_10_dropoffs/MultidropBode\\ac_Cdrp=3.0p_Rterm=sqrt(Lline_Cline)_Lenline=5.0_Rline=10.0_Lline=3.5n_Cline=5.8p_Vin=1_0_1_0_0_Vout.csv'
p101
s((S'19.0'
S'4.0n'
S'9.0p'
tS'3.0p'
g3
g4
I10
S'5.0'
S'10101'
tp102
S'../data/transmission_line_10_dropoffs/MultidropTransient\\tran_Cdrp=3.0p_Rterm=sqrt(Lline_Cline)_Lenline=5.0_Rline=19.0_Lline=4.0n_Cline=9.0p_Vin=1_0_1_0_1_Vout.csv'
p103
s((S'12.0'
S'2.4n'
S'220.0f'
tS'3.0p'
g3
g9
I10
S'5.0'
S'10100'
tp104
S'../data/transmission_line_10_dropoffs/MultidropBode\\ac_Cdrp=3.0p_Rterm=sqrt(Lline_Cline)_Lenline=5.0_Rline=12.0_Lline=2.4n_Cline=220.0f_Vin=1_0_1_0_0_Vout.csv'
p105
s((S'220.0m'
S'2.4n'
S'4.6p'
tS'3.0p'
g3
g9
I10
S'5.0'
S'10101'
tp106
S'../data/transmission_line_10_dropoffs/MultidropBode\\ac_Cdrp=3.0p_Rterm=sqrt(Lline_Cline)_Lenline=5.0_Rline=220.0m_Lline=2.4n_Cline=4.6p_Vin=1_0_1_0_1_Vout.csv'
p107
s((S'820.0m'
S'2.4n'
S'4.6p'
tS'1.0p'
g3
g9
I10
S'5.0'
S'10100'
tp108
S'../data/transmission_line_10_dropoffs/MultidropBode\\ac_Cdrp=1.0p_Rterm=sqrt(Lline_Cline)_Lenline=5.0_Rline=820.0m_Lline=2.4n_Cline=4.6p_Vin=1_0_1_0_0_Vout.csv'
p109
s((S'1.8'
S'7.2n'
S'20.0p'
tS'2.0p'
g3
g4
I10
S'1.0'
S'01000'
tp110
S'../data/transmission_line_10_dropoffs/MultidropTransient\\tran_Cdrp=2.0p_Rterm=sqrt(Lline_Cline)_Lenline=1.0_Rline=1.8_Lline=7.2n_Cline=20.0p_Vin=0_1_0_0_0_Vout.csv'
p111
s((S'3.0'
S'2.4n'
S'220.0f'
tS'3.0p'
g3
g9
I10
S'5.0'
S'10100'
tp112
S'../data/transmission_line_10_dropoffs/MultidropBode\\ac_Cdrp=3.0p_Rterm=sqrt(Lline_Cline)_Lenline=5.0_Rline=3.0_Lline=2.4n_Cline=220.0f_Vin=1_0_1_0_0_Vout.csv'
p113
s((S'10.0'
S'4.0n'
S'9.0p'
tS'3.0p'
g3
g9
I10
S'5.0'
S'10101'
tp114
S'../data/transmission_line_10_dropoffs/MultidropBode\\ac_Cdrp=3.0p_Rterm=sqrt(Lline_Cline)_Lenline=5.0_Rline=10.0_Lline=4.0n_Cline=9.0p_Vin=1_0_1_0_1_Vout.csv'
p115
s((S'1.8'
S'79.0p'
S'220.0f'
tS'3.0p'
g3
g9
I10
S'5.0'
S'10101'
tp116
S'../data/transmission_line_10_dropoffs/MultidropBode\\ac_Cdrp=3.0p_Rterm=sqrt(Lline_Cline)_Lenline=5.0_Rline=1.8_Lline=79.0p_Cline=220.0f_Vin=1_0_1_0_1_Vout.csv'
p117
s((S'17.0'
S'2.4n'
S'220.0f'
tS'3.0p'
g3
g4
I10
S'5.0'
S'10100'
tp118
S'../data/transmission_line_10_dropoffs/MultidropTransient\\tran_Cdrp=3.0p_Rterm=sqrt(Lline_Cline)_Lenline=5.0_Rline=17.0_Lline=2.4n_Cline=220.0f_Vin=1_0_1_0_0_Vout.csv'
p119
s((S'10.0'
S'2.4n'
S'4.6p'
tS'1.0p'
g3
g9
I10
S'5.0'
S'10100'
tp120
S'../data/transmission_line_10_dropoffs/MultidropBode\\ac_Cdrp=1.0p_Rterm=sqrt(Lline_Cline)_Lenline=5.0_Rline=10.0_Lline=2.4n_Cline=4.6p_Vin=1_0_1_0_0_Vout.csv'
p121
s((S'1.4'
S'2.4n'
S'4.6p'
tS'3.0p'
g3
g4
I10
S'5.0'
S'10101'
tp122
S'../data/transmission_line_10_dropoffs/MultidropTransient\\tran_Cdrp=3.0p_Rterm=sqrt(Lline_Cline)_Lenline=5.0_Rline=1.4_Lline=2.4n_Cline=4.6p_Vin=1_0_1_0_1_Vout.csv'
p123
s((S'220.0m'
S'2.4n'
S'220.0f'
tS'3.0p'
g3
g4
I10
S'5.0'
S'10100'
tp124
S'../data/transmission_line_10_dropoffs/MultidropTransient\\tran_Cdrp=3.0p_Rterm=sqrt(Lline_Cline)_Lenline=5.0_Rline=220.0m_Lline=2.4n_Cline=220.0f_Vin=1_0_1_0_0_Vout.csv'
p125
s((S'1.2'
S'4.0n'
S'9.0p'
tS'3.0p'
g3
g4
I10
S'5.0'
S'10101'
tp126
S'../data/transmission_line_10_dropoffs/MultidropTransient\\tran_Cdrp=3.0p_Rterm=sqrt(Lline_Cline)_Lenline=5.0_Rline=1.2_Lline=4.0n_Cline=9.0p_Vin=1_0_1_0_1_Vout.csv'
p127
s((S'10.0'
S'2.4n'
S'4.6p'
tS'3.0p'
g3
g9
I10
S'5.0'
S'10101'
tp128
S'../data/transmission_line_10_dropoffs/MultidropBode\\ac_Cdrp=3.0p_Rterm=sqrt(Lline_Cline)_Lenline=5.0_Rline=10.0_Lline=2.4n_Cline=4.6p_Vin=1_0_1_0_1_Vout.csv'
p129
s((S'17.0'
S'2.4n'
S'4.6p'
tS'3.0p'
g3
g4
I10
S'5.0'
S'10100'
tp130
S'../data/transmission_line_10_dropoffs/MultidropTransient\\tran_Cdrp=3.0p_Rterm=sqrt(Lline_Cline)_Lenline=5.0_Rline=17.0_Lline=2.4n_Cline=4.6p_Vin=1_0_1_0_0_Vout.csv'
p131
s((S'19.0'
S'3.5n'
S'5.8p'
tS'3.0p'
g3
g4
I10
S'5.0'
S'10100'
tp132
S'../data/transmission_line_10_dropoffs/MultidropTransient\\tran_Cdrp=3.0p_Rterm=sqrt(Lline_Cline)_Lenline=5.0_Rline=19.0_Lline=3.5n_Cline=5.8p_Vin=1_0_1_0_0_Vout.csv'
p133
s((S'14.0'
S'79.0p'
S'220.0f'
tS'1.0p'
g3
g4
I10
S'1.0'
S'10000'
tp134
S'../data/transmission_line_10_dropoffs/MultidropTransient\\tran_Cdrp=1.0p_Rterm=sqrt(Lline_Cline)_Lenline=1.0_Rline=14.0_Lline=79.0p_Cline=220.0f_Vin=1_0_0_0_0_Vout.csv'
p135
s((S'13.0'
S'2.4n'
S'220.0f'
tS'3.0p'
g3
g9
I10
S'5.0'
S'10100'
tp136
S'../data/transmission_line_10_dropoffs/MultidropBode\\ac_Cdrp=3.0p_Rterm=sqrt(Lline_Cline)_Lenline=5.0_Rline=13.0_Lline=2.4n_Cline=220.0f_Vin=1_0_1_0_0_Vout.csv'
p137
s((S'420.0m'
S'6.4n'
S'11.2p'
tS'3.0p'
g3
g4
I10
S'5.0'
S'10101'
tp138
S'../data/transmission_line_10_dropoffs/MultidropTransient\\tran_Cdrp=3.0p_Rterm=sqrt(Lline_Cline)_Lenline=5.0_Rline=420.0m_Lline=6.4n_Cline=11.2p_Vin=1_0_1_0_1_Vout.csv'
p139
s((S'9.0'
S'4.0n'
S'9.0p'
tS'3.0p'
g3
g4
I10
S'5.0'
S'10101'
tp140
S'../data/transmission_line_10_dropoffs/MultidropTransient\\tran_Cdrp=3.0p_Rterm=sqrt(Lline_Cline)_Lenline=5.0_Rline=9.0_Lline=4.0n_Cline=9.0p_Vin=1_0_1_0_1_Vout.csv'
p141
s((S'14.0'
S'2.4n'
S'220.0f'
tS'3.0p'
g3
g9
I10
S'5.0'
S'10100'
tp142
S'../data/transmission_line_10_dropoffs/MultidropBode\\ac_Cdrp=3.0p_Rterm=sqrt(Lline_Cline)_Lenline=5.0_Rline=14.0_Lline=2.4n_Cline=220.0f_Vin=1_0_1_0_0_Vout.csv'
p143
s((S'15.0'
S'3.5n'
S'5.8p'
tS'3.0p'
g3
g9
I10
S'5.0'
S'10100'
tp144
S'../data/transmission_line_10_dropoffs/MultidropBode\\ac_Cdrp=3.0p_Rterm=sqrt(Lline_Cline)_Lenline=5.0_Rline=15.0_Lline=3.5n_Cline=5.8p_Vin=1_0_1_0_0_Vout.csv'
p145
s((S'15.0'
S'4.0n'
S'9.0p'
tS'3.0p'
g3
g9
I10
S'5.0'
S'10101'
tp146
S'../data/transmission_line_10_dropoffs/MultidropBode\\ac_Cdrp=3.0p_Rterm=sqrt(Lline_Cline)_Lenline=5.0_Rline=15.0_Lline=4.0n_Cline=9.0p_Vin=1_0_1_0_1_Vout.csv'
p147
s((S'16.0'
S'4.0n'
S'9.0p'
tS'3.0p'
g3
g9
I10
S'5.0'
S'10101'
tp148
S'../data/transmission_line_10_dropoffs/MultidropBode\\ac_Cdrp=3.0p_Rterm=sqrt(Lline_Cline)_Lenline=5.0_Rline=16.0_Lline=4.0n_Cline=9.0p_Vin=1_0_1_0_1_Vout.csv'
p149
s((S'10.0'
S'2.4n'
S'4.6p'
tS'3.0p'
g3
g4
I10
S'5.0'
S'10101'
tp150
S'../data/transmission_line_10_dropoffs/MultidropTransient\\tran_Cdrp=3.0p_Rterm=sqrt(Lline_Cline)_Lenline=5.0_Rline=10.0_Lline=2.4n_Cline=4.6p_Vin=1_0_1_0_1_Vout.csv'
p151
s((S'2.0'
S'3.5n'
S'5.8p'
tS'3.0p'
g3
g9
I10
S'5.0'
S'10100'
tp152
S'../data/transmission_line_10_dropoffs/MultidropBode\\ac_Cdrp=3.0p_Rterm=sqrt(Lline_Cline)_Lenline=5.0_Rline=2.0_Lline=3.5n_Cline=5.8p_Vin=1_0_1_0_0_Vout.csv'
p153
s((S'420.0m'
S'7.2n'
S'11.2p'
tS'3.0p'
g3
g4
I10
S'5.0'
S'01111'
tp154
S'../data/transmission_line_10_dropoffs/MultidropTransient\\tran_Cdrp=3.0p_Rterm=sqrt(Lline_Cline)_Lenline=5.0_Rline=420.0m_Lline=7.2n_Cline=11.2p_Vin=0_1_1_1_1_Vout.csv'
p155
s((S'620.0m'
S'4.0n'
S'9.0p'
tS'3.0p'
g3
g4
I10
S'5.0'
S'10101'
tp156
S'../data/transmission_line_10_dropoffs/MultidropTransient\\tran_Cdrp=3.0p_Rterm=sqrt(Lline_Cline)_Lenline=5.0_Rline=620.0m_Lline=4.0n_Cline=9.0p_Vin=1_0_1_0_1_Vout.csv'
p157
s((S'1.6'
S'79.0p'
S'220.0f'
tS'3.0p'
g3
g9
I10
S'5.0'
S'10101'
tp158
S'../data/transmission_line_10_dropoffs/MultidropBode\\ac_Cdrp=3.0p_Rterm=sqrt(Lline_Cline)_Lenline=5.0_Rline=1.6_Lline=79.0p_Cline=220.0f_Vin=1_0_1_0_1_Vout.csv'
p159
s((S'2.0'
S'3.5n'
S'5.8p'
tS'3.0p'
g3
g4
I10
S'5.0'
S'10100'
tp160
S'../data/transmission_line_10_dropoffs/MultidropTransient\\tran_Cdrp=3.0p_Rterm=sqrt(Lline_Cline)_Lenline=5.0_Rline=2.0_Lline=3.5n_Cline=5.8p_Vin=1_0_1_0_0_Vout.csv'
p161
s((S'6.0'
S'2.4n'
S'4.6p'
tS'1.0p'
g3
g9
I10
S'5.0'
S'10100'
tp162
S'../data/transmission_line_10_dropoffs/MultidropBode\\ac_Cdrp=1.0p_Rterm=sqrt(Lline_Cline)_Lenline=5.0_Rline=6.0_Lline=2.4n_Cline=4.6p_Vin=1_0_1_0_0_Vout.csv'
p163
s((S'15.0'
S'2.4n'
S'4.6p'
tS'3.0p'
g3
g4
I10
S'5.0'
S'10100'
tp164
S'../data/transmission_line_10_dropoffs/MultidropTransient\\tran_Cdrp=3.0p_Rterm=sqrt(Lline_Cline)_Lenline=5.0_Rline=15.0_Lline=2.4n_Cline=4.6p_Vin=1_0_1_0_0_Vout.csv'
p165
s((S'420.0m'
S'2.4n'
S'11.2p'
tS'3.0p'
g3
g4
I10
S'5.0'
S'10101'
tp166
S'../data/transmission_line_10_dropoffs/MultidropTransient\\tran_Cdrp=3.0p_Rterm=sqrt(Lline_Cline)_Lenline=5.0_Rline=420.0m_Lline=2.4n_Cline=11.2p_Vin=1_0_1_0_1_Vout.csv'
p167
s((S'1.2'
S'2.4n'
S'4.6p'
tS'1.0p'
g3
g9
I10
S'5.0'
S'10100'
tp168
S'../data/transmission_line_10_dropoffs/MultidropBode\\ac_Cdrp=1.0p_Rterm=sqrt(Lline_Cline)_Lenline=5.0_Rline=1.2_Lline=2.4n_Cline=4.6p_Vin=1_0_1_0_0_Vout.csv'
p169
s((S'1.2'
S'4.0n'
S'9.0p'
tS'3.0p'
g3
g9
I10
S'5.0'
S'10101'
tp170
S'../data/transmission_line_10_dropoffs/MultidropBode\\ac_Cdrp=3.0p_Rterm=sqrt(Lline_Cline)_Lenline=5.0_Rline=1.2_Lline=4.0n_Cline=9.0p_Vin=1_0_1_0_1_Vout.csv'
p171
s((S'16.0'
S'3.5n'
S'5.8p'
tS'3.0p'
g3
g4
I10
S'5.0'
S'10100'
tp172
S'../data/transmission_line_10_dropoffs/MultidropTransient\\tran_Cdrp=3.0p_Rterm=sqrt(Lline_Cline)_Lenline=5.0_Rline=16.0_Lline=3.5n_Cline=5.8p_Vin=1_0_1_0_0_Vout.csv'
p173
s((S'12.0'
S'79.0p'
S'220.0f'
tS'3.0p'
g3
g4
I10
S'5.0'
S'10101'
tp174
S'../data/transmission_line_10_dropoffs/MultidropTransient\\tran_Cdrp=3.0p_Rterm=sqrt(Lline_Cline)_Lenline=5.0_Rline=12.0_Lline=79.0p_Cline=220.0f_Vin=1_0_1_0_1_Vout.csv'
p175
s((S'20.0m'
S'79.0p'
S'220.0f'
tS'3.0p'
g3
g4
I10
S'5.0'
S'10101'
tp176
S'../data/transmission_line_10_dropoffs/MultidropTransient\\tran_Cdrp=3.0p_Rterm=sqrt(Lline_Cline)_Lenline=5.0_Rline=20.0m_Lline=79.0p_Cline=220.0f_Vin=1_0_1_0_1_Vout.csv'
p177
s((S'420.0m'
S'5.6n'
S'11.2p'
tS'3.0p'
g3
g4
I10
S'5.0'
S'01111'
tp178
S'../data/transmission_line_10_dropoffs/MultidropTransient\\tran_Cdrp=3.0p_Rterm=sqrt(Lline_Cline)_Lenline=5.0_Rline=420.0m_Lline=5.6n_Cline=11.2p_Vin=0_1_1_1_1_Vout.csv'
p179
s((S'6.0'
S'79.0p'
S'220.0f'
tS'1.0p'
g3
g9
I10
S'1.0'
S'10000'
tp180
S'../data/transmission_line_10_dropoffs/MultidropBode\\ac_Cdrp=1.0p_Rterm=sqrt(Lline_Cline)_Lenline=1.0_Rline=6.0_Lline=79.0p_Cline=220.0f_Vin=1_0_0_0_0_Vout.csv'
p181
s((S'820.0m'
S'2.4n'
S'220.0f'
tS'3.0p'
g3
g4
I10
S'5.0'
S'10100'
tp182
S'../data/transmission_line_10_dropoffs/MultidropTransient\\tran_Cdrp=3.0p_Rterm=sqrt(Lline_Cline)_Lenline=5.0_Rline=820.0m_Lline=2.4n_Cline=220.0f_Vin=1_0_1_0_0_Vout.csv'
p183
s((S'8.0'
S'3.5n'
S'5.8p'
tS'3.0p'
g3
g4
I10
S'5.0'
S'10100'
tp184
S'../data/transmission_line_10_dropoffs/MultidropTransient\\tran_Cdrp=3.0p_Rterm=sqrt(Lline_Cline)_Lenline=5.0_Rline=8.0_Lline=3.5n_Cline=5.8p_Vin=1_0_1_0_0_Vout.csv'
p185
s((S'420.0m'
S'2.4n'
S'11.2p'
tS'3.0p'
g3
g4
I10
S'5.0'
S'01111'
tp186
S'../data/transmission_line_10_dropoffs/MultidropTransient\\tran_Cdrp=3.0p_Rterm=sqrt(Lline_Cline)_Lenline=5.0_Rline=420.0m_Lline=2.4n_Cline=11.2p_Vin=0_1_1_1_1_Vout.csv'
p187
s((S'1.8'
S'79.0p'
S'220.0f'
tS'3.0p'
g3
g4
I10
S'5.0'
S'10101'
tp188
S'../data/transmission_line_10_dropoffs/MultidropTransient\\tran_Cdrp=3.0p_Rterm=sqrt(Lline_Cline)_Lenline=5.0_Rline=1.8_Lline=79.0p_Cline=220.0f_Vin=1_0_1_0_1_Vout.csv'
p189
s((S'17.0'
S'2.4n'
S'4.6p'
tS'3.0p'
g3
g4
I10
S'5.0'
S'10101'
tp190
S'../data/transmission_line_10_dropoffs/MultidropTransient\\tran_Cdrp=3.0p_Rterm=sqrt(Lline_Cline)_Lenline=5.0_Rline=17.0_Lline=2.4n_Cline=4.6p_Vin=1_0_1_0_1_Vout.csv'
p191
s((S'420.0m'
S'79.0p'
S'11.2p'
tS'3.0p'
g3
g4
I10
S'5.0'
S'01111'
tp192
S'../data/transmission_line_10_dropoffs/MultidropTransient\\tran_Cdrp=3.0p_Rterm=sqrt(Lline_Cline)_Lenline=5.0_Rline=420.0m_Lline=79.0p_Cline=11.2p_Vin=0_1_1_1_1_Vout.csv'
p193
s((S'820.0m'
S'79.0p'
S'220.0f'
tS'3.0p'
g3
g4
I10
S'5.0'
S'10101'
tp194
S'../data/transmission_line_10_dropoffs/MultidropTransient\\tran_Cdrp=3.0p_Rterm=sqrt(Lline_Cline)_Lenline=5.0_Rline=820.0m_Lline=79.0p_Cline=220.0f_Vin=1_0_1_0_1_Vout.csv'
p195
s((S'1.4'
S'4.0n'
S'9.0p'
tS'3.0p'
g3
g4
I10
S'5.0'
S'10101'
tp196
S'../data/transmission_line_10_dropoffs/MultidropTransient\\tran_Cdrp=3.0p_Rterm=sqrt(Lline_Cline)_Lenline=5.0_Rline=1.4_Lline=4.0n_Cline=9.0p_Vin=1_0_1_0_1_Vout.csv'
p197
s((S'1.4'
S'2.4n'
S'4.6p'
tS'1.0p'
g3
g4
I10
S'5.0'
S'10100'
tp198
S'../data/transmission_line_10_dropoffs/MultidropTransient\\tran_Cdrp=1.0p_Rterm=sqrt(Lline_Cline)_Lenline=5.0_Rline=1.4_Lline=2.4n_Cline=4.6p_Vin=1_0_1_0_0_Vout.csv'
p199
s((S'17.0'
S'79.0p'
S'220.0f'
tS'3.0p'
g3
g4
I10
S'5.0'
S'10101'
tp200
S'../data/transmission_line_10_dropoffs/MultidropTransient\\tran_Cdrp=3.0p_Rterm=sqrt(Lline_Cline)_Lenline=5.0_Rline=17.0_Lline=79.0p_Cline=220.0f_Vin=1_0_1_0_1_Vout.csv'
p201
s((S'1.8'
S'2.4n'
S'220.0f'
tS'3.0p'
g3
g4
I10
S'5.0'
S'10100'
tp202
S'../data/transmission_line_10_dropoffs/MultidropTransient\\tran_Cdrp=3.0p_Rterm=sqrt(Lline_Cline)_Lenline=5.0_Rline=1.8_Lline=2.4n_Cline=220.0f_Vin=1_0_1_0_0_Vout.csv'
p203
s((S'420.0m'
S'2.4n'
S'220.0f'
tS'3.0p'
g3
g4
I10
S'5.0'
S'10100'
tp204
S'../data/transmission_line_10_dropoffs/MultidropTransient\\tran_Cdrp=3.0p_Rterm=sqrt(Lline_Cline)_Lenline=5.0_Rline=420.0m_Lline=2.4n_Cline=220.0f_Vin=1_0_1_0_0_Vout.csv'
p205
s((S'220.0m'
S'4.0n'
S'9.0p'
tS'3.0p'
g3
g4
I10
S'5.0'
S'10101'
tp206
S'../data/transmission_line_10_dropoffs/MultidropTransient\\tran_Cdrp=3.0p_Rterm=sqrt(Lline_Cline)_Lenline=5.0_Rline=220.0m_Lline=4.0n_Cline=9.0p_Vin=1_0_1_0_1_Vout.csv'
p207
s((S'17.0'
S'2.4n'
S'4.6p'
tS'1.0p'
g3
g9
I10
S'5.0'
S'10100'
tp208
S'../data/transmission_line_10_dropoffs/MultidropBode\\ac_Cdrp=1.0p_Rterm=sqrt(Lline_Cline)_Lenline=5.0_Rline=17.0_Lline=2.4n_Cline=4.6p_Vin=1_0_1_0_0_Vout.csv'
p209
s((S'420.0m'
S'869.0p'
S'11.2p'
tS'3.0p'
g3
g4
I10
S'5.0'
S'01111'
tp210
S'../data/transmission_line_10_dropoffs/MultidropTransient\\tran_Cdrp=3.0p_Rterm=sqrt(Lline_Cline)_Lenline=5.0_Rline=420.0m_Lline=869.0p_Cline=11.2p_Vin=0_1_1_1_1_Vout.csv'
p211
s((S'620.0m'
S'3.5n'
S'5.8p'
tS'3.0p'
g3
g4
I10
S'5.0'
S'10100'
tp212
S'../data/transmission_line_10_dropoffs/MultidropTransient\\tran_Cdrp=3.0p_Rterm=sqrt(Lline_Cline)_Lenline=5.0_Rline=620.0m_Lline=3.5n_Cline=5.8p_Vin=1_0_1_0_0_Vout.csv'
p213
s((S'7.0'
S'2.4n'
S'220.0f'
tS'3.0p'
g3
g9
I10
S'5.0'
S'10100'
tp214
S'../data/transmission_line_10_dropoffs/MultidropBode\\ac_Cdrp=3.0p_Rterm=sqrt(Lline_Cline)_Lenline=5.0_Rline=7.0_Lline=2.4n_Cline=220.0f_Vin=1_0_1_0_0_Vout.csv'
p215
s((S'19.0'
S'2.4n'
S'4.6p'
tS'3.0p'
g3
g9
I10
S'5.0'
S'10100'
tp216
S'../data/transmission_line_10_dropoffs/MultidropBode\\ac_Cdrp=3.0p_Rterm=sqrt(Lline_Cline)_Lenline=5.0_Rline=19.0_Lline=2.4n_Cline=4.6p_Vin=1_0_1_0_0_Vout.csv'
p217
s((S'10.0'
S'2.4n'
S'4.6p'
tS'3.0p'
g3
g4
I10
S'5.0'
S'10100'
tp218
S'../data/transmission_line_10_dropoffs/MultidropTransient\\tran_Cdrp=3.0p_Rterm=sqrt(Lline_Cline)_Lenline=5.0_Rline=10.0_Lline=2.4n_Cline=4.6p_Vin=1_0_1_0_0_Vout.csv'
p219
s((S'15.0'
S'2.4n'
S'4.6p'
tS'3.0p'
g3
g4
I10
S'5.0'
S'10101'
tp220
S'../data/transmission_line_10_dropoffs/MultidropTransient\\tran_Cdrp=3.0p_Rterm=sqrt(Lline_Cline)_Lenline=5.0_Rline=15.0_Lline=2.4n_Cline=4.6p_Vin=1_0_1_0_1_Vout.csv'
p221
s((S'15.0'
S'3.5n'
S'5.8p'
tS'3.0p'
g3
g4
I10
S'5.0'
S'10100'
tp222
S'../data/transmission_line_10_dropoffs/MultidropTransient\\tran_Cdrp=3.0p_Rterm=sqrt(Lline_Cline)_Lenline=5.0_Rline=15.0_Lline=3.5n_Cline=5.8p_Vin=1_0_1_0_0_Vout.csv'
p223
s((S'14.0'
S'2.4n'
S'4.6p'
tS'3.0p'
g3
g4
I10
S'5.0'
S'10100'
tp224
S'../data/transmission_line_10_dropoffs/MultidropTransient\\tran_Cdrp=3.0p_Rterm=sqrt(Lline_Cline)_Lenline=5.0_Rline=14.0_Lline=2.4n_Cline=4.6p_Vin=1_0_1_0_0_Vout.csv'
p225
s((S'19.0'
S'2.4n'
S'4.6p'
tS'1.0p'
g3
g4
I10
S'5.0'
S'10100'
tp226
S'../data/transmission_line_10_dropoffs/MultidropTransient\\tran_Cdrp=1.0p_Rterm=sqrt(Lline_Cline)_Lenline=5.0_Rline=19.0_Lline=2.4n_Cline=4.6p_Vin=1_0_1_0_0_Vout.csv'
p227
s((S'620.0m'
S'79.0p'
S'220.0f'
tS'3.0p'
g3
g4
I10
S'5.0'
S'10101'
tp228
S'../data/transmission_line_10_dropoffs/MultidropTransient\\tran_Cdrp=3.0p_Rterm=sqrt(Lline_Cline)_Lenline=5.0_Rline=620.0m_Lline=79.0p_Cline=220.0f_Vin=1_0_1_0_1_Vout.csv'
p229
s((S'4.0'
S'79.0p'
S'220.0f'
tS'1.0p'
g3
g4
I10
S'1.0'
S'10000'
tp230
S'../data/transmission_line_10_dropoffs/MultidropTransient\\tran_Cdrp=1.0p_Rterm=sqrt(Lline_Cline)_Lenline=1.0_Rline=4.0_Lline=79.0p_Cline=220.0f_Vin=1_0_0_0_0_Vout.csv'
p231
s((S'5.0'
S'4.0n'
S'9.0p'
tS'3.0p'
g3
g4
I10
S'5.0'
S'10101'
tp232
S'../data/transmission_line_10_dropoffs/MultidropTransient\\tran_Cdrp=3.0p_Rterm=sqrt(Lline_Cline)_Lenline=5.0_Rline=5.0_Lline=4.0n_Cline=9.0p_Vin=1_0_1_0_1_Vout.csv'
p233
s((S'1.4'
S'2.4n'
S'4.6p'
tS'1.0p'
g3
g9
I10
S'5.0'
S'10100'
tp234
S'../data/transmission_line_10_dropoffs/MultidropBode\\ac_Cdrp=1.0p_Rterm=sqrt(Lline_Cline)_Lenline=5.0_Rline=1.4_Lline=2.4n_Cline=4.6p_Vin=1_0_1_0_0_Vout.csv'
p235
s((S'1.6'
S'2.4n'
S'4.6p'
tS'1.0p'
g3
g4
I10
S'5.0'
S'10100'
tp236
S'../data/transmission_line_10_dropoffs/MultidropTransient\\tran_Cdrp=1.0p_Rterm=sqrt(Lline_Cline)_Lenline=5.0_Rline=1.6_Lline=2.4n_Cline=4.6p_Vin=1_0_1_0_0_Vout.csv'
p237
s((S'5.0'
S'79.0p'
S'220.0f'
tS'1.0p'
g3
g9
I10
S'1.0'
S'10000'
tp238
S'../data/transmission_line_10_dropoffs/MultidropBode\\ac_Cdrp=1.0p_Rterm=sqrt(Lline_Cline)_Lenline=1.0_Rline=5.0_Lline=79.0p_Cline=220.0f_Vin=1_0_0_0_0_Vout.csv'
p239
s((S'11.0'
S'79.0p'
S'220.0f'
tS'3.0p'
g3
g9
I10
S'5.0'
S'10101'
tp240
S'../data/transmission_line_10_dropoffs/MultidropBode\\ac_Cdrp=3.0p_Rterm=sqrt(Lline_Cline)_Lenline=5.0_Rline=11.0_Lline=79.0p_Cline=220.0f_Vin=1_0_1_0_1_Vout.csv'
p241
s((S'18.0'
S'4.0n'
S'9.0p'
tS'3.0p'
g3
g4
I10
S'5.0'
S'10101'
tp242
S'../data/transmission_line_10_dropoffs/MultidropTransient\\tran_Cdrp=3.0p_Rterm=sqrt(Lline_Cline)_Lenline=5.0_Rline=18.0_Lline=4.0n_Cline=9.0p_Vin=1_0_1_0_1_Vout.csv'
p243
s((S'20.0m'
S'3.5n'
S'5.8p'
tS'3.0p'
g3
g4
I10
S'5.0'
S'10100'
tp244
S'../data/transmission_line_10_dropoffs/MultidropTransient\\tran_Cdrp=3.0p_Rterm=sqrt(Lline_Cline)_Lenline=5.0_Rline=20.0m_Lline=3.5n_Cline=5.8p_Vin=1_0_1_0_0_Vout.csv'
p245
s((S'420.0m'
S'2.4n'
S'4.6p'
tS'1.0p'
g3
g4
I10
S'5.0'
S'10100'
tp246
S'../data/transmission_line_10_dropoffs/MultidropTransient\\tran_Cdrp=1.0p_Rterm=sqrt(Lline_Cline)_Lenline=5.0_Rline=420.0m_Lline=2.4n_Cline=4.6p_Vin=1_0_1_0_0_Vout.csv'
p247
s((S'9.0'
S'3.5n'
S'5.8p'
tS'3.0p'
g3
g4
I10
S'5.0'
S'10100'
tp248
S'../data/transmission_line_10_dropoffs/MultidropTransient\\tran_Cdrp=3.0p_Rterm=sqrt(Lline_Cline)_Lenline=5.0_Rline=9.0_Lline=3.5n_Cline=5.8p_Vin=1_0_1_0_0_Vout.csv'
p249
s((S'420.0m'
S'4.0n'
S'9.0p'
tS'3.0p'
g3
g9
I10
S'5.0'
S'10101'
tp250
S'../data/transmission_line_10_dropoffs/MultidropBode\\ac_Cdrp=3.0p_Rterm=sqrt(Lline_Cline)_Lenline=5.0_Rline=420.0m_Lline=4.0n_Cline=9.0p_Vin=1_0_1_0_1_Vout.csv'
p251
s((S'14.0'
S'79.0p'
S'220.0f'
tS'1.0p'
g3
g9
I10
S'1.0'
S'10000'
tp252
S'../data/transmission_line_10_dropoffs/MultidropBode\\ac_Cdrp=1.0p_Rterm=sqrt(Lline_Cline)_Lenline=1.0_Rline=14.0_Lline=79.0p_Cline=220.0f_Vin=1_0_0_0_0_Vout.csv'
p253
s((S'820.0m'
S'3.5n'
S'5.8p'
tS'3.0p'
g3
g4
I10
S'5.0'
S'10100'
tp254
S'../data/transmission_line_10_dropoffs/MultidropTransient\\tran_Cdrp=3.0p_Rterm=sqrt(Lline_Cline)_Lenline=5.0_Rline=820.0m_Lline=3.5n_Cline=5.8p_Vin=1_0_1_0_0_Vout.csv'
p255
s((S'420.0m'
S'869.0p'
S'11.2p'
tS'3.0p'
g3
g4
I10
S'5.0'
S'10101'
tp256
S'../data/transmission_line_10_dropoffs/MultidropTransient\\tran_Cdrp=3.0p_Rterm=sqrt(Lline_Cline)_Lenline=5.0_Rline=420.0m_Lline=869.0p_Cline=11.2p_Vin=1_0_1_0_1_Vout.csv'
p257
s((S'14.0'
S'2.4n'
S'4.6p'
tS'3.0p'
g3
g9
I10
S'5.0'
S'10100'
tp258
S'../data/transmission_line_10_dropoffs/MultidropBode\\ac_Cdrp=3.0p_Rterm=sqrt(Lline_Cline)_Lenline=5.0_Rline=14.0_Lline=2.4n_Cline=4.6p_Vin=1_0_1_0_0_Vout.csv'
p259
s((S'8.0'
S'79.0p'
S'220.0f'
tS'1.0p'
g3
g4
I10
S'1.0'
S'10000'
tp260
S'../data/transmission_line_10_dropoffs/MultidropTransient\\tran_Cdrp=1.0p_Rterm=sqrt(Lline_Cline)_Lenline=1.0_Rline=8.0_Lline=79.0p_Cline=220.0f_Vin=1_0_0_0_0_Vout.csv'
p261
s((S'12.0'
S'2.4n'
S'4.6p'
tS'3.0p'
g3
g9
I10
S'5.0'
S'10101'
tp262
S'../data/transmission_line_10_dropoffs/MultidropBode\\ac_Cdrp=3.0p_Rterm=sqrt(Lline_Cline)_Lenline=5.0_Rline=12.0_Lline=2.4n_Cline=4.6p_Vin=1_0_1_0_1_Vout.csv'
p263
s((S'17.0'
S'4.0n'
S'9.0p'
tS'3.0p'
g3
g4
I10
S'5.0'
S'10101'
tp264
S'../data/transmission_line_10_dropoffs/MultidropTransient\\tran_Cdrp=3.0p_Rterm=sqrt(Lline_Cline)_Lenline=5.0_Rline=17.0_Lline=4.0n_Cline=9.0p_Vin=1_0_1_0_1_Vout.csv'
p265
s((S'12.0'
S'2.4n'
S'220.0f'
tS'3.0p'
g3
g4
I10
S'5.0'
S'10100'
tp266
S'../data/transmission_line_10_dropoffs/MultidropTransient\\tran_Cdrp=3.0p_Rterm=sqrt(Lline_Cline)_Lenline=5.0_Rline=12.0_Lline=2.4n_Cline=220.0f_Vin=1_0_1_0_0_Vout.csv'
p267
s((S'20.0m'
S'2.4n'
S'4.6p'
tS'3.0p'
g3
g4
I10
S'5.0'
S'10100'
tp268
S'../data/transmission_line_10_dropoffs/MultidropTransient\\tran_Cdrp=3.0p_Rterm=sqrt(Lline_Cline)_Lenline=5.0_Rline=20.0m_Lline=2.4n_Cline=4.6p_Vin=1_0_1_0_0_Vout.csv'
p269
s((S'7.0'
S'2.4n'
S'4.6p'
tS'3.0p'
g3
g9
I10
S'5.0'
S'10101'
tp270
S'../data/transmission_line_10_dropoffs/MultidropBode\\ac_Cdrp=3.0p_Rterm=sqrt(Lline_Cline)_Lenline=5.0_Rline=7.0_Lline=2.4n_Cline=4.6p_Vin=1_0_1_0_1_Vout.csv'
p271
s((S'620.0m'
S'4.0n'
S'9.0p'
tS'3.0p'
g3
g9
I10
S'5.0'
S'10101'
tp272
S'../data/transmission_line_10_dropoffs/MultidropBode\\ac_Cdrp=3.0p_Rterm=sqrt(Lline_Cline)_Lenline=5.0_Rline=620.0m_Lline=4.0n_Cline=9.0p_Vin=1_0_1_0_1_Vout.csv'
p273
s((S'18.0'
S'2.4n'
S'4.6p'
tS'3.0p'
g3
g4
I10
S'5.0'
S'10101'
tp274
S'../data/transmission_line_10_dropoffs/MultidropTransient\\tran_Cdrp=3.0p_Rterm=sqrt(Lline_Cline)_Lenline=5.0_Rline=18.0_Lline=2.4n_Cline=4.6p_Vin=1_0_1_0_1_Vout.csv'
p275
s((S'13.0'
S'2.4n'
S'4.6p'
tS'3.0p'
g3
g9
I10
S'5.0'
S'10101'
tp276
S'../data/transmission_line_10_dropoffs/MultidropBode\\ac_Cdrp=3.0p_Rterm=sqrt(Lline_Cline)_Lenline=5.0_Rline=13.0_Lline=2.4n_Cline=4.6p_Vin=1_0_1_0_1_Vout.csv'
p277
s((S'7.0'
S'3.5n'
S'5.8p'
tS'3.0p'
g3
g9
I10
S'5.0'
S'10100'
tp278
S'../data/transmission_line_10_dropoffs/MultidropBode\\ac_Cdrp=3.0p_Rterm=sqrt(Lline_Cline)_Lenline=5.0_Rline=7.0_Lline=3.5n_Cline=5.8p_Vin=1_0_1_0_0_Vout.csv'
p279
s((S'11.0'
S'2.4n'
S'4.6p'
tS'3.0p'
g3
g4
I10
S'5.0'
S'10100'
tp280
S'../data/transmission_line_10_dropoffs/MultidropTransient\\tran_Cdrp=3.0p_Rterm=sqrt(Lline_Cline)_Lenline=5.0_Rline=11.0_Lline=2.4n_Cline=4.6p_Vin=1_0_1_0_0_Vout.csv'
p281
s((S'220.0m'
S'2.4n'
S'4.6p'
tS'1.0p'
g3
g4
I10
S'5.0'
S'10100'
tp282
S'../data/transmission_line_10_dropoffs/MultidropTransient\\tran_Cdrp=1.0p_Rterm=sqrt(Lline_Cline)_Lenline=5.0_Rline=220.0m_Lline=2.4n_Cline=4.6p_Vin=1_0_1_0_0_Vout.csv'
p283
s((S'620.0m'
S'2.4n'
S'4.6p'
tS'1.0p'
g3
g9
I10
S'5.0'
S'10100'
tp284
S'../data/transmission_line_10_dropoffs/MultidropBode\\ac_Cdrp=1.0p_Rterm=sqrt(Lline_Cline)_Lenline=5.0_Rline=620.0m_Lline=2.4n_Cline=4.6p_Vin=1_0_1_0_0_Vout.csv'
p285
s((S'9.0'
S'79.0p'
S'220.0f'
tS'1.0p'
g3
g4
I10
S'1.0'
S'10000'
tp286
S'../data/transmission_line_10_dropoffs/MultidropTransient\\tran_Cdrp=1.0p_Rterm=sqrt(Lline_Cline)_Lenline=1.0_Rline=9.0_Lline=79.0p_Cline=220.0f_Vin=1_0_0_0_0_Vout.csv'
p287
s((S'14.0'
S'4.0n'
S'9.0p'
tS'3.0p'
g3
g4
I10
S'5.0'
S'10101'
tp288
S'../data/transmission_line_10_dropoffs/MultidropTransient\\tran_Cdrp=3.0p_Rterm=sqrt(Lline_Cline)_Lenline=5.0_Rline=14.0_Lline=4.0n_Cline=9.0p_Vin=1_0_1_0_1_Vout.csv'
p289
s((S'9.0'
S'79.0p'
S'220.0f'
tS'1.0p'
g3
g9
I10
S'1.0'
S'10000'
tp290
S'../data/transmission_line_10_dropoffs/MultidropBode\\ac_Cdrp=1.0p_Rterm=sqrt(Lline_Cline)_Lenline=1.0_Rline=9.0_Lline=79.0p_Cline=220.0f_Vin=1_0_0_0_0_Vout.csv'
p291
s((S'420.0m'
S'1.0n'
S'2.3p'
tS'2.0p'
g3
g4
I28
S'4.0'
S'10000'
tp292
S'../data/transmission_line_28_dropoffs/MultidropTransient\\tran_Cdrp=2.0p_Rterm=sqrt(Lline_Cline)_Lenline=4.0_Rline=420.0m_Lline=1.0n_Cline=2.3p_Vin=1_0_0_0_0_Vout.csv'
p293
s((S'20.0m'
S'500.0p'
S'200.0f'
tS'3.0p'
S'Vmiddle'
p294
g4
I10
S'5.0'
S'0101'
tp295
S'../data/transmission_line_10_dropoffs/MultidropTransient\\tran_Cdrp=3.0p_Rterm=sqrt(Lline_Cline)_Lenline=5.0_Rline=20.0m_Lline=500.0p_Cline=200.0f_Vin=1_0_1_0_1_Vmiddle.csv'
p296
s((S'5.0'
S'2.4n'
S'4.6p'
tS'3.0p'
g3
g4
I10
S'5.0'
S'10100'
tp297
S'../data/transmission_line_10_dropoffs/MultidropTransient\\tran_Cdrp=3.0p_Rterm=sqrt(Lline_Cline)_Lenline=5.0_Rline=5.0_Lline=2.4n_Cline=4.6p_Vin=1_0_1_0_0_Vout.csv'
p298
s((S'20.0'
S'3.5n'
S'5.8p'
tS'3.0p'
g3
g4
I10
S'5.0'
S'10100'
tp299
S'../data/transmission_line_10_dropoffs/MultidropTransient\\tran_Cdrp=3.0p_Rterm=sqrt(Lline_Cline)_Lenline=5.0_Rline=20.0_Lline=3.5n_Cline=5.8p_Vin=1_0_1_0_0_Vout.csv'
p300
s((S'6.0'
S'79.0p'
S'220.0f'
tS'1.0p'
g3
g4
I10
S'1.0'
S'10000'
tp301
S'../data/transmission_line_10_dropoffs/MultidropTransient\\tran_Cdrp=1.0p_Rterm=sqrt(Lline_Cline)_Lenline=1.0_Rline=6.0_Lline=79.0p_Cline=220.0f_Vin=1_0_0_0_0_Vout.csv'
p302
s((S'11.0'
S'4.0n'
S'9.0p'
tS'3.0p'
g3
g4
I10
S'5.0'
S'10101'
tp303
S'../data/transmission_line_10_dropoffs/MultidropTransient\\tran_Cdrp=3.0p_Rterm=sqrt(Lline_Cline)_Lenline=5.0_Rline=11.0_Lline=4.0n_Cline=9.0p_Vin=1_0_1_0_1_Vout.csv'
p304
s((S'9.0'
S'2.4n'
S'4.6p'
tS'3.0p'
g3
g4
I10
S'5.0'
S'10101'
tp305
S'../data/transmission_line_10_dropoffs/MultidropTransient\\tran_Cdrp=3.0p_Rterm=sqrt(Lline_Cline)_Lenline=5.0_Rline=9.0_Lline=2.4n_Cline=4.6p_Vin=1_0_1_0_1_Vout.csv'
p306
s((S'20.0m'
S'79.0p'
S'220.0f'
tS'3.0p'
g3
g4
I10
S'5.0'
S'10100'
tp307
S'../data/transmission_line_10_dropoffs/MultidropTransient\\tran_Cdrp=3.0p_Rterm=sqrt(Lline_Cline)_Lenline=5.0_Rline=20.0m_Lline=79.0p_Cline=220.0f_Vin=1_0_1_0_0_Vout.csv'
p308
s((S'420.0m'
S'3.2n'
S'11.2p'
tS'3.0p'
g3
g4
I10
S'5.0'
S'10101'
tp309
S'../data/transmission_line_10_dropoffs/MultidropTransient\\tran_Cdrp=3.0p_Rterm=sqrt(Lline_Cline)_Lenline=5.0_Rline=420.0m_Lline=3.2n_Cline=11.2p_Vin=1_0_1_0_1_Vout.csv'
p310
s((S'14.0'
S'2.4n'
S'4.6p'
tS'3.0p'
g3
g9
I10
S'5.0'
S'10101'
tp311
S'../data/transmission_line_10_dropoffs/MultidropBode\\ac_Cdrp=3.0p_Rterm=sqrt(Lline_Cline)_Lenline=5.0_Rline=14.0_Lline=2.4n_Cline=4.6p_Vin=1_0_1_0_1_Vout.csv'
p312
s((S'1.8'
S'2.4n'
S'4.6p'
tS'1.0p'
g3
g4
I10
S'5.0'
S'10100'
tp313
S'../data/transmission_line_10_dropoffs/MultidropTransient\\tran_Cdrp=1.0p_Rterm=sqrt(Lline_Cline)_Lenline=5.0_Rline=1.8_Lline=2.4n_Cline=4.6p_Vin=1_0_1_0_0_Vout.csv'
p314
s((S'1.2'
S'2.4n'
S'220.0f'
tS'3.0p'
g3
g4
I10
S'5.0'
S'10100'
tp315
S'../data/transmission_line_10_dropoffs/MultidropTransient\\tran_Cdrp=3.0p_Rterm=sqrt(Lline_Cline)_Lenline=5.0_Rline=1.2_Lline=2.4n_Cline=220.0f_Vin=1_0_1_0_0_Vout.csv'
p316
s((S'4.0'
S'4.0n'
S'9.0p'
tS'3.0p'
g3
g4
I10
S'5.0'
S'10101'
tp317
S'../data/transmission_line_10_dropoffs/MultidropTransient\\tran_Cdrp=3.0p_Rterm=sqrt(Lline_Cline)_Lenline=5.0_Rline=4.0_Lline=4.0n_Cline=9.0p_Vin=1_0_1_0_1_Vout.csv'
p318
s((S'13.0'
S'3.5n'
S'5.8p'
tS'3.0p'
g3
g9
I10
S'5.0'
S'10100'
tp319
S'../data/transmission_line_10_dropoffs/MultidropBode\\ac_Cdrp=3.0p_Rterm=sqrt(Lline_Cline)_Lenline=5.0_Rline=13.0_Lline=3.5n_Cline=5.8p_Vin=1_0_1_0_0_Vout.csv'
p320
s((S'820.0m'
S'2.4n'
S'4.6p'
tS'3.0p'
g3
g9
I10
S'5.0'
S'10100'
tp321
S'../data/transmission_line_10_dropoffs/MultidropBode\\ac_Cdrp=3.0p_Rterm=sqrt(Lline_Cline)_Lenline=5.0_Rline=820.0m_Lline=2.4n_Cline=4.6p_Vin=1_0_1_0_0_Vout.csv'
p322
s((S'20.0m'
S'2.4n'
S'4.6p'
tS'3.0p'
g3
g4
I10
S'5.0'
S'10101'
tp323
S'../data/transmission_line_10_dropoffs/MultidropTransient\\tran_Cdrp=3.0p_Rterm=sqrt(Lline_Cline)_Lenline=5.0_Rline=20.0m_Lline=2.4n_Cline=4.6p_Vin=1_0_1_0_1_Vout.csv'
p324
s((S'20.0m'
S'500.0p'
S'200.0f'
tS'1.0p'
g3
g4
I10
S'1.0'
S'10101'
tp325
S'..\\data\\transmission_line_10_dropoffs\\MultidropTransient\\tran_Cdrp=1.0p_Rterm=sqrt(Lline_Cline)_Lenline=1.0_Rline=20.0m_Lline=500.0p_Cline=200.0f_Vin=1_0_1_0_1_Vout.csv'
p326
s((S'8.0'
S'4.0n'
S'9.0p'
tS'3.0p'
g3
g4
I10
S'5.0'
S'10101'
tp327
S'../data/transmission_line_10_dropoffs/MultidropTransient\\tran_Cdrp=3.0p_Rterm=sqrt(Lline_Cline)_Lenline=5.0_Rline=8.0_Lline=4.0n_Cline=9.0p_Vin=1_0_1_0_1_Vout.csv'
p328
s((S'7.0'
S'2.4n'
S'4.6p'
tS'3.0p'
g3
g9
I10
S'5.0'
S'10100'
tp329
S'../data/transmission_line_10_dropoffs/MultidropBode\\ac_Cdrp=3.0p_Rterm=sqrt(Lline_Cline)_Lenline=5.0_Rline=7.0_Lline=2.4n_Cline=4.6p_Vin=1_0_1_0_0_Vout.csv'
p330
s((S'8.0'
S'79.0p'
S'220.0f'
tS'1.0p'
g3
g9
I10
S'1.0'
S'10000'
tp331
S'../data/transmission_line_10_dropoffs/MultidropBode\\ac_Cdrp=1.0p_Rterm=sqrt(Lline_Cline)_Lenline=1.0_Rline=8.0_Lline=79.0p_Cline=220.0f_Vin=1_0_0_0_0_Vout.csv'
p332
s((S'18.0'
S'2.4n'
S'4.6p'
tS'3.0p'
g3
g4
I10
S'5.0'
S'10100'
tp333
S'../data/transmission_line_10_dropoffs/MultidropTransient\\tran_Cdrp=3.0p_Rterm=sqrt(Lline_Cline)_Lenline=5.0_Rline=18.0_Lline=2.4n_Cline=4.6p_Vin=1_0_1_0_0_Vout.csv'
p334
s((S'13.0'
S'2.4n'
S'4.6p'
tS'3.0p'
g3
g9
I10
S'5.0'
S'10100'
tp335
S'../data/transmission_line_10_dropoffs/MultidropBode\\ac_Cdrp=3.0p_Rterm=sqrt(Lline_Cline)_Lenline=5.0_Rline=13.0_Lline=2.4n_Cline=4.6p_Vin=1_0_1_0_0_Vout.csv'
p336
s((S'3.0'
S'3.5n'
S'5.8p'
tS'3.0p'
g3
g9
I10
S'5.0'
S'10100'
tp337
S'../data/transmission_line_10_dropoffs/MultidropBode\\ac_Cdrp=3.0p_Rterm=sqrt(Lline_Cline)_Lenline=5.0_Rline=3.0_Lline=3.5n_Cline=5.8p_Vin=1_0_1_0_0_Vout.csv'
p338
s((S'11.0'
S'2.4n'
S'4.6p'
tS'3.0p'
g3
g4
I10
S'5.0'
S'10101'
tp339
S'../data/transmission_line_10_dropoffs/MultidropTransient\\tran_Cdrp=3.0p_Rterm=sqrt(Lline_Cline)_Lenline=5.0_Rline=11.0_Lline=2.4n_Cline=4.6p_Vin=1_0_1_0_1_Vout.csv'
p340
s((S'9.0'
S'2.4n'
S'4.6p'
tS'1.0p'
g3
g9
I10
S'5.0'
S'10100'
tp341
S'../data/transmission_line_10_dropoffs/MultidropBode\\ac_Cdrp=1.0p_Rterm=sqrt(Lline_Cline)_Lenline=5.0_Rline=9.0_Lline=2.4n_Cline=4.6p_Vin=1_0_1_0_0_Vout.csv'
p342
s((S'820.0m'
S'2.4n'
S'4.6p'
tS'3.0p'
g3
g4
I10
S'5.0'
S'10100'
tp343
S'../data/transmission_line_10_dropoffs/MultidropTransient\\tran_Cdrp=3.0p_Rterm=sqrt(Lline_Cline)_Lenline=5.0_Rline=820.0m_Lline=2.4n_Cline=4.6p_Vin=1_0_1_0_0_Vout.csv'
p344
s((S'420.0m'
S'79.0p'
S'11.2p'
tS'3.0p'
g3
g4
I10
S'5.0'
S'10101'
tp345
S'../data/transmission_line_10_dropoffs/MultidropTransient\\tran_Cdrp=3.0p_Rterm=sqrt(Lline_Cline)_Lenline=5.0_Rline=420.0m_Lline=79.0p_Cline=11.2p_Vin=1_0_1_0_1_Vout.csv'
p346
s((S'13.0'
S'2.4n'
S'4.6p'
tS'1.0p'
g3
g4
I10
S'5.0'
S'10100'
tp347
S'../data/transmission_line_10_dropoffs/MultidropTransient\\tran_Cdrp=1.0p_Rterm=sqrt(Lline_Cline)_Lenline=5.0_Rline=13.0_Lline=2.4n_Cline=4.6p_Vin=1_0_1_0_0_Vout.csv'
p348
s((S'420.0m'
S'7.2n'
S'11.2p'
tS'3.0p'
g3
g4
I10
S'5.0'
S'10101'
tp349
S'../data/transmission_line_10_dropoffs/MultidropTransient\\tran_Cdrp=3.0p_Rterm=sqrt(Lline_Cline)_Lenline=5.0_Rline=420.0m_Lline=7.2n_Cline=11.2p_Vin=1_0_1_0_1_Vout.csv'
p350
s((S'3.0'
S'2.4n'
S'4.6p'
tS'1.0p'
g3
g9
I10
S'5.0'
S'10100'
tp351
S'../data/transmission_line_10_dropoffs/MultidropBode\\ac_Cdrp=1.0p_Rterm=sqrt(Lline_Cline)_Lenline=5.0_Rline=3.0_Lline=2.4n_Cline=4.6p_Vin=1_0_1_0_0_Vout.csv'
p352
s((S'5.0'
S'2.4n'
S'4.6p'
tS'3.0p'
g3
g4
I10
S'5.0'
S'10101'
tp353
S'../data/transmission_line_10_dropoffs/MultidropTransient\\tran_Cdrp=3.0p_Rterm=sqrt(Lline_Cline)_Lenline=5.0_Rline=5.0_Lline=2.4n_Cline=4.6p_Vin=1_0_1_0_1_Vout.csv'
p354
s((S'9.0'
S'2.4n'
S'4.6p'
tS'3.0p'
g3
g9
I10
S'5.0'
S'10101'
tp355
S'../data/transmission_line_10_dropoffs/MultidropBode\\ac_Cdrp=3.0p_Rterm=sqrt(Lline_Cline)_Lenline=5.0_Rline=9.0_Lline=2.4n_Cline=4.6p_Vin=1_0_1_0_1_Vout.csv'
p356
s((S'12.0'
S'79.0p'
S'220.0f'
tS'1.0p'
g3
g4
I10
S'1.0'
S'10000'
tp357
S'../data/transmission_line_10_dropoffs/MultidropTransient\\tran_Cdrp=1.0p_Rterm=sqrt(Lline_Cline)_Lenline=1.0_Rline=12.0_Lline=79.0p_Cline=220.0f_Vin=1_0_0_0_0_Vout.csv'
p358
s((S'1.2'
S'79.0p'
S'220.0f'
tS'3.0p'
g3
g4
I10
S'5.0'
S'10101'
tp359
S'../data/transmission_line_10_dropoffs/MultidropTransient\\tran_Cdrp=3.0p_Rterm=sqrt(Lline_Cline)_Lenline=5.0_Rline=1.2_Lline=79.0p_Cline=220.0f_Vin=1_0_1_0_1_Vout.csv'
p360
s((S'420.0m'
S'3.2n'
S'11.2p'
tS'3.0p'
g3
g4
I10
S'5.0'
S'01111'
tp361
S'../data/transmission_line_10_dropoffs/MultidropTransient\\tran_Cdrp=3.0p_Rterm=sqrt(Lline_Cline)_Lenline=5.0_Rline=420.0m_Lline=3.2n_Cline=11.2p_Vin=0_1_1_1_1_Vout.csv'
p362
s((S'18.0'
S'2.4n'
S'4.6p'
tS'1.0p'
g3
g9
I10
S'5.0'
S'10100'
tp363
S'../data/transmission_line_10_dropoffs/MultidropBode\\ac_Cdrp=1.0p_Rterm=sqrt(Lline_Cline)_Lenline=5.0_Rline=18.0_Lline=2.4n_Cline=4.6p_Vin=1_0_1_0_0_Vout.csv'
p364
s((S'1.2'
S'2.4n'
S'4.6p'
tS'3.0p'
g3
g9
I10
S'5.0'
S'10101'
tp365
S'../data/transmission_line_10_dropoffs/MultidropBode\\ac_Cdrp=3.0p_Rterm=sqrt(Lline_Cline)_Lenline=5.0_Rline=1.2_Lline=2.4n_Cline=4.6p_Vin=1_0_1_0_1_Vout.csv'
p366
s((S'6.0'
S'2.4n'
S'4.6p'
tS'3.0p'
g3
g4
I10
S'5.0'
S'10101'
tp367
S'../data/transmission_line_10_dropoffs/MultidropTransient\\tran_Cdrp=3.0p_Rterm=sqrt(Lline_Cline)_Lenline=5.0_Rline=6.0_Lline=2.4n_Cline=4.6p_Vin=1_0_1_0_1_Vout.csv'
p368
s((S'20.0m'
S'3.5n'
S'5.8p'
tS'3.0p'
g3
g9
I10
S'5.0'
S'10100'
tp369
S'../data/transmission_line_10_dropoffs/MultidropBode\\ac_Cdrp=3.0p_Rterm=sqrt(Lline_Cline)_Lenline=5.0_Rline=20.0m_Lline=3.5n_Cline=5.8p_Vin=1_0_1_0_0_Vout.csv'
p370
s((S'18.0'
S'4.0n'
S'9.0p'
tS'3.0p'
g3
g9
I10
S'5.0'
S'10101'
tp371
S'../data/transmission_line_10_dropoffs/MultidropBode\\ac_Cdrp=3.0p_Rterm=sqrt(Lline_Cline)_Lenline=5.0_Rline=18.0_Lline=4.0n_Cline=9.0p_Vin=1_0_1_0_1_Vout.csv'
p372
s((S'18.0'
S'79.0p'
S'220.0f'
tS'1.0p'
g3
g4
I10
S'1.0'
S'10000'
tp373
S'../data/transmission_line_10_dropoffs/MultidropTransient\\tran_Cdrp=1.0p_Rterm=sqrt(Lline_Cline)_Lenline=1.0_Rline=18.0_Lline=79.0p_Cline=220.0f_Vin=1_0_0_0_0_Vout.csv'
p374
s((S'15.0'
S'79.0p'
S'220.0f'
tS'1.0p'
g3
g9
I10
S'1.0'
S'10000'
tp375
S'../data/transmission_line_10_dropoffs/MultidropBode\\ac_Cdrp=1.0p_Rterm=sqrt(Lline_Cline)_Lenline=1.0_Rline=15.0_Lline=79.0p_Cline=220.0f_Vin=1_0_0_0_0_Vout.csv'
p376
s((S'6.0'
S'2.4n'
S'4.6p'
tS'3.0p'
g3
g9
I10
S'5.0'
S'10100'
tp377
S'../data/transmission_line_10_dropoffs/MultidropBode\\ac_Cdrp=3.0p_Rterm=sqrt(Lline_Cline)_Lenline=5.0_Rline=6.0_Lline=2.4n_Cline=4.6p_Vin=1_0_1_0_0_Vout.csv'
p378
s((S'10.0'
S'79.0p'
S'220.0f'
tS'1.0p'
g3
g4
I10
S'1.0'
S'10000'
tp379
S'../data/transmission_line_10_dropoffs/MultidropTransient\\tran_Cdrp=1.0p_Rterm=sqrt(Lline_Cline)_Lenline=1.0_Rline=10.0_Lline=79.0p_Cline=220.0f_Vin=1_0_0_0_0_Vout.csv'
p380
s((S'19.0'
S'2.4n'
S'4.6p'
tS'3.0p'
g3
g4
I10
S'5.0'
S'10101'
tp381
S'../data/transmission_line_10_dropoffs/MultidropTransient\\tran_Cdrp=3.0p_Rterm=sqrt(Lline_Cline)_Lenline=5.0_Rline=19.0_Lline=2.4n_Cline=4.6p_Vin=1_0_1_0_1_Vout.csv'
p382
s((S'12.0'
S'4.0n'
S'9.0p'
tS'3.0p'
g3
g4
I10
S'5.0'
S'10101'
tp383
S'../data/transmission_line_10_dropoffs/MultidropTransient\\tran_Cdrp=3.0p_Rterm=sqrt(Lline_Cline)_Lenline=5.0_Rline=12.0_Lline=4.0n_Cline=9.0p_Vin=1_0_1_0_1_Vout.csv'
p384
s((S'16.0'
S'2.4n'
S'220.0f'
tS'3.0p'
g3
g9
I10
S'5.0'
S'10100'
tp385
S'../data/transmission_line_10_dropoffs/MultidropBode\\ac_Cdrp=3.0p_Rterm=sqrt(Lline_Cline)_Lenline=5.0_Rline=16.0_Lline=2.4n_Cline=220.0f_Vin=1_0_1_0_0_Vout.csv'
p386
s((S'10.0'
S'2.4n'
S'4.6p'
tS'1.0p'
g3
g4
I10
S'5.0'
S'10100'
tp387
S'../data/transmission_line_10_dropoffs/MultidropTransient\\tran_Cdrp=1.0p_Rterm=sqrt(Lline_Cline)_Lenline=5.0_Rline=10.0_Lline=2.4n_Cline=4.6p_Vin=1_0_1_0_0_Vout.csv'
p388
s((S'18.0'
S'3.5n'
S'5.8p'
tS'3.0p'
g3
g9
I10
S'5.0'
S'10100'
tp389
S'../data/transmission_line_10_dropoffs/MultidropBode\\ac_Cdrp=3.0p_Rterm=sqrt(Lline_Cline)_Lenline=5.0_Rline=18.0_Lline=3.5n_Cline=5.8p_Vin=1_0_1_0_0_Vout.csv'
p390
s((S'17.0'
S'3.5n'
S'5.8p'
tS'3.0p'
g3
g9
I10
S'5.0'
S'10100'
tp391
S'../data/transmission_line_10_dropoffs/MultidropBode\\ac_Cdrp=3.0p_Rterm=sqrt(Lline_Cline)_Lenline=5.0_Rline=17.0_Lline=3.5n_Cline=5.8p_Vin=1_0_1_0_0_Vout.csv'
p392
s((S'820.0m'
S'2.4n'
S'4.6p'
tS'3.0p'
g3
g9
I10
S'5.0'
S'10101'
tp393
S'../data/transmission_line_10_dropoffs/MultidropBode\\ac_Cdrp=3.0p_Rterm=sqrt(Lline_Cline)_Lenline=5.0_Rline=820.0m_Lline=2.4n_Cline=4.6p_Vin=1_0_1_0_1_Vout.csv'
p394
s((S'220.0m'
S'2.4n'
S'4.6p'
tS'1.0p'
g3
g9
I10
S'5.0'
S'10100'
tp395
S'../data/transmission_line_10_dropoffs/MultidropBode\\ac_Cdrp=1.0p_Rterm=sqrt(Lline_Cline)_Lenline=5.0_Rline=220.0m_Lline=2.4n_Cline=4.6p_Vin=1_0_1_0_0_Vout.csv'
p396
s((S'1.0'
S'2.4n'
S'4.6p'
tS'3.0p'
g3
g4
I10
S'5.0'
S'10100'
tp397
S'../data/transmission_line_10_dropoffs/MultidropTransient\\tran_Cdrp=3.0p_Rterm=sqrt(Lline_Cline)_Lenline=5.0_Rline=1.0_Lline=2.4n_Cline=4.6p_Vin=1_0_1_0_0_Vout.csv'
p398
s((S'20.0m'
S'79.0p'
S'220.0f'
tS'3.0p'
g3
g9
I10
S'5.0'
S'10101'
tp399
S'../data/transmission_line_10_dropoffs/MultidropBode\\ac_Cdrp=3.0p_Rterm=sqrt(Lline_Cline)_Lenline=5.0_Rline=20.0m_Lline=79.0p_Cline=220.0f_Vin=1_0_1_0_1_Vout.csv'
p400
s((S'7.0'
S'2.4n'
S'4.6p'
tS'3.0p'
g3
g4
I10
S'5.0'
S'10100'
tp401
S'../data/transmission_line_10_dropoffs/MultidropTransient\\tran_Cdrp=3.0p_Rterm=sqrt(Lline_Cline)_Lenline=5.0_Rline=7.0_Lline=2.4n_Cline=4.6p_Vin=1_0_1_0_0_Vout.csv'
p402
s((S'4.0'
S'2.4n'
S'4.6p'
tS'3.0p'
g3
g4
I10
S'5.0'
S'10101'
tp403
S'../data/transmission_line_10_dropoffs/MultidropTransient\\tran_Cdrp=3.0p_Rterm=sqrt(Lline_Cline)_Lenline=5.0_Rline=4.0_Lline=2.4n_Cline=4.6p_Vin=1_0_1_0_1_Vout.csv'
p404
s((S'11.0'
S'4.0n'
S'9.0p'
tS'3.0p'
g3
g9
I10
S'5.0'
S'10101'
tp405
S'../data/transmission_line_10_dropoffs/MultidropBode\\ac_Cdrp=3.0p_Rterm=sqrt(Lline_Cline)_Lenline=5.0_Rline=11.0_Lline=4.0n_Cline=9.0p_Vin=1_0_1_0_1_Vout.csv'
p406
s((S'5.0'
S'3.5n'
S'5.8p'
tS'3.0p'
g3
g9
I10
S'5.0'
S'10100'
tp407
S'../data/transmission_line_10_dropoffs/MultidropBode\\ac_Cdrp=3.0p_Rterm=sqrt(Lline_Cline)_Lenline=5.0_Rline=5.0_Lline=3.5n_Cline=5.8p_Vin=1_0_1_0_0_Vout.csv'
p408
s((S'12.0'
S'3.5n'
S'5.8p'
tS'3.0p'
g3
g9
I10
S'5.0'
S'10100'
tp409
S'../data/transmission_line_10_dropoffs/MultidropBode\\ac_Cdrp=3.0p_Rterm=sqrt(Lline_Cline)_Lenline=5.0_Rline=12.0_Lline=3.5n_Cline=5.8p_Vin=1_0_1_0_0_Vout.csv'
p410
s((S'17.0'
S'3.5n'
S'5.8p'
tS'3.0p'
g3
g4
I10
S'5.0'
S'10100'
tp411
S'../data/transmission_line_10_dropoffs/MultidropTransient\\tran_Cdrp=3.0p_Rterm=sqrt(Lline_Cline)_Lenline=5.0_Rline=17.0_Lline=3.5n_Cline=5.8p_Vin=1_0_1_0_0_Vout.csv'
p412
s((S'7.0'
S'2.4n'
S'220.0f'
tS'3.0p'
g3
g4
I10
S'5.0'
S'10100'
tp413
S'../data/transmission_line_10_dropoffs/MultidropTransient\\tran_Cdrp=3.0p_Rterm=sqrt(Lline_Cline)_Lenline=5.0_Rline=7.0_Lline=2.4n_Cline=220.0f_Vin=1_0_1_0_0_Vout.csv'
p414
s((S'620.0m'
S'2.4n'
S'220.0f'
tS'3.0p'
g3
g4
I10
S'5.0'
S'10100'
tp415
S'../data/transmission_line_10_dropoffs/MultidropTransient\\tran_Cdrp=3.0p_Rterm=sqrt(Lline_Cline)_Lenline=5.0_Rline=620.0m_Lline=2.4n_Cline=220.0f_Vin=1_0_1_0_0_Vout.csv'
p416
s((S'8.0'
S'79.0p'
S'220.0f'
tS'3.0p'
g3
g4
I10
S'5.0'
S'10101'
tp417
S'../data/transmission_line_10_dropoffs/MultidropTransient\\tran_Cdrp=3.0p_Rterm=sqrt(Lline_Cline)_Lenline=5.0_Rline=8.0_Lline=79.0p_Cline=220.0f_Vin=1_0_1_0_1_Vout.csv'
p418
s((S'8.0'
S'2.4n'
S'4.6p'
tS'3.0p'
g3
g9
I10
S'5.0'
S'10100'
tp419
S'../data/transmission_line_10_dropoffs/MultidropBode\\ac_Cdrp=3.0p_Rterm=sqrt(Lline_Cline)_Lenline=5.0_Rline=8.0_Lline=2.4n_Cline=4.6p_Vin=1_0_1_0_0_Vout.csv'
p420
s((S'11.0'
S'79.0p'
S'220.0f'
tS'1.0p'
g3
g4
I10
S'1.0'
S'10000'
tp421
S'../data/transmission_line_10_dropoffs/MultidropTransient\\tran_Cdrp=1.0p_Rterm=sqrt(Lline_Cline)_Lenline=1.0_Rline=11.0_Lline=79.0p_Cline=220.0f_Vin=1_0_0_0_0_Vout.csv'
p422
s((S'9.0'
S'2.4n'
S'4.6p'
tS'3.0p'
g3
g9
I10
S'5.0'
S'10100'
tp423
S'../data/transmission_line_10_dropoffs/MultidropBode\\ac_Cdrp=3.0p_Rterm=sqrt(Lline_Cline)_Lenline=5.0_Rline=9.0_Lline=2.4n_Cline=4.6p_Vin=1_0_1_0_0_Vout.csv'
p424
s((S'10.0'
S'2.4n'
S'220.0f'
tS'3.0p'
g3
g9
I10
S'5.0'
S'10100'
tp425
S'../data/transmission_line_10_dropoffs/MultidropBode\\ac_Cdrp=3.0p_Rterm=sqrt(Lline_Cline)_Lenline=5.0_Rline=10.0_Lline=2.4n_Cline=220.0f_Vin=1_0_1_0_0_Vout.csv'
p426
s((S'5.0'
S'3.5n'
S'5.8p'
tS'3.0p'
g3
g4
I10
S'5.0'
S'10100'
tp427
S'../data/transmission_line_10_dropoffs/MultidropTransient\\tran_Cdrp=3.0p_Rterm=sqrt(Lline_Cline)_Lenline=5.0_Rline=5.0_Lline=3.5n_Cline=5.8p_Vin=1_0_1_0_0_Vout.csv'
p428
s((S'14.0'
S'2.4n'
S'4.6p'
tS'1.0p'
g3
g9
I10
S'5.0'
S'10100'
tp429
S'../data/transmission_line_10_dropoffs/MultidropBode\\ac_Cdrp=1.0p_Rterm=sqrt(Lline_Cline)_Lenline=5.0_Rline=14.0_Lline=2.4n_Cline=4.6p_Vin=1_0_1_0_0_Vout.csv'
p430
s((S'1.0'
S'2.4n'
S'4.6p'
tS'1.0p'
g3
g4
I10
S'5.0'
S'10100'
tp431
S'../data/transmission_line_10_dropoffs/MultidropTransient\\tran_Cdrp=1.0p_Rterm=sqrt(Lline_Cline)_Lenline=5.0_Rline=1.0_Lline=2.4n_Cline=4.6p_Vin=1_0_1_0_0_Vout.csv'
p432
s((S'20.0m'
S'79.0p'
S'220.0f'
tS'3.0p'
g3
g4
I10
S'5.0'
S'01111'
tp433
S'../data/transmission_line_10_dropoffs/MultidropTransient\\tran_Cdrp=3.0p_Rterm=sqrt(Lline_Cline)_Lenline=5.0_Rline=20.0m_Lline=79.0p_Cline=220.0f_Vin=0_1_1_1_1_Vout.csv'
p434
s((S'7.0'
S'2.4n'
S'4.6p'
tS'1.0p'
g3
g4
I10
S'5.0'
S'10100'
tp435
S'../data/transmission_line_10_dropoffs/MultidropTransient\\tran_Cdrp=1.0p_Rterm=sqrt(Lline_Cline)_Lenline=5.0_Rline=7.0_Lline=2.4n_Cline=4.6p_Vin=1_0_1_0_0_Vout.csv'
p436
s((S'7.0'
S'79.0p'
S'220.0f'
tS'3.0p'
g3
g4
I10
S'5.0'
S'10101'
tp437
S'../data/transmission_line_10_dropoffs/MultidropTransient\\tran_Cdrp=3.0p_Rterm=sqrt(Lline_Cline)_Lenline=5.0_Rline=7.0_Lline=79.0p_Cline=220.0f_Vin=1_0_1_0_1_Vout.csv'
p438
s((S'6.0'
S'2.4n'
S'4.6p'
tS'3.0p'
g3
g4
I10
S'5.0'
S'10100'
tp439
S'../data/transmission_line_10_dropoffs/MultidropTransient\\tran_Cdrp=3.0p_Rterm=sqrt(Lline_Cline)_Lenline=5.0_Rline=6.0_Lline=2.4n_Cline=4.6p_Vin=1_0_1_0_0_Vout.csv'
p440
s((S'4.0'
S'2.4n'
S'4.6p'
tS'3.0p'
g3
g4
I10
S'5.0'
S'10100'
tp441
S'../data/transmission_line_10_dropoffs/MultidropTransient\\tran_Cdrp=3.0p_Rterm=sqrt(Lline_Cline)_Lenline=5.0_Rline=4.0_Lline=2.4n_Cline=4.6p_Vin=1_0_1_0_0_Vout.csv'
p442
s((S'20.0m'
S'4.0n'
S'9.0p'
tS'3.0p'
g3
g4
I10
S'5.0'
S'10101'
tp443
S'../data/transmission_line_10_dropoffs/MultidropTransient\\tran_Cdrp=3.0p_Rterm=sqrt(Lline_Cline)_Lenline=5.0_Rline=20.0m_Lline=4.0n_Cline=9.0p_Vin=1_0_1_0_1_Vout.csv'
p444
s((S'5.0'
S'2.4n'
S'4.6p'
tS'3.0p'
g3
g9
I10
S'5.0'
S'10101'
tp445
S'../data/transmission_line_10_dropoffs/MultidropBode\\ac_Cdrp=3.0p_Rterm=sqrt(Lline_Cline)_Lenline=5.0_Rline=5.0_Lline=2.4n_Cline=4.6p_Vin=1_0_1_0_1_Vout.csv'
p446
s((S'6.0'
S'2.4n'
S'4.6p'
tS'3.0p'
g3
g9
I10
S'5.0'
S'10101'
tp447
S'../data/transmission_line_10_dropoffs/MultidropBode\\ac_Cdrp=3.0p_Rterm=sqrt(Lline_Cline)_Lenline=5.0_Rline=6.0_Lline=2.4n_Cline=4.6p_Vin=1_0_1_0_1_Vout.csv'
p448
s((S'420.0m'
S'1.7n'
S'11.2p'
tS'3.0p'
g3
g4
I10
S'5.0'
S'01111'
tp449
S'../data/transmission_line_10_dropoffs/MultidropTransient\\tran_Cdrp=3.0p_Rterm=sqrt(Lline_Cline)_Lenline=5.0_Rline=420.0m_Lline=1.7n_Cline=11.2p_Vin=0_1_1_1_1_Vout.csv'
p450
s((S'12.0'
S'79.0p'
S'220.0f'
tS'1.0p'
g3
g9
I10
S'1.0'
S'10000'
tp451
S'../data/transmission_line_10_dropoffs/MultidropBode\\ac_Cdrp=1.0p_Rterm=sqrt(Lline_Cline)_Lenline=1.0_Rline=12.0_Lline=79.0p_Cline=220.0f_Vin=1_0_0_0_0_Vout.csv'
p452
s((S'420.0m'
S'4.0n'
S'11.2p'
tS'3.0p'
g3
g4
I10
S'5.0'
S'01111'
tp453
S'../data/transmission_line_10_dropoffs/MultidropTransient\\tran_Cdrp=3.0p_Rterm=sqrt(Lline_Cline)_Lenline=5.0_Rline=420.0m_Lline=4.0n_Cline=11.2p_Vin=0_1_1_1_1_Vout.csv'
p454
s((S'1.6'
S'4.0n'
S'9.0p'
tS'3.0p'
g3
g4
I10
S'5.0'
S'10101'
tp455
S'../data/transmission_line_10_dropoffs/MultidropTransient\\tran_Cdrp=3.0p_Rterm=sqrt(Lline_Cline)_Lenline=5.0_Rline=1.6_Lline=4.0n_Cline=9.0p_Vin=1_0_1_0_1_Vout.csv'
p456
s((S'420.0m'
S'1.0n'
S'2.3p'
tS'2.0p'
g3
g9
I28
S'4.0'
S'10000'
tp457
S'../data/transmission_line_28_dropoffs/MultidropBode\\ac_Cdrp=2.0p_Rterm=sqrt(Lline_Cline)_Lenline=4.0_Rline=420.0m_Lline=1.0n_Cline=2.3p_Vin=1_0_0_0_0_Vout.csv'
p458
s((S'1.0'
S'2.4n'
S'4.6p'
tS'3.0p'
g3
g4
I10
S'5.0'
S'10101'
tp459
S'../data/transmission_line_10_dropoffs/MultidropTransient\\tran_Cdrp=3.0p_Rterm=sqrt(Lline_Cline)_Lenline=5.0_Rline=1.0_Lline=2.4n_Cline=4.6p_Vin=1_0_1_0_1_Vout.csv'
p460
s((S'13.0'
S'2.4n'
S'4.6p'
tS'1.0p'
g3
g9
I10
S'5.0'
S'10100'
tp461
S'../data/transmission_line_10_dropoffs/MultidropBode\\ac_Cdrp=1.0p_Rterm=sqrt(Lline_Cline)_Lenline=5.0_Rline=13.0_Lline=2.4n_Cline=4.6p_Vin=1_0_1_0_0_Vout.csv'
p462
s((S'8.0'
S'2.4n'
S'4.6p'
tS'1.0p'
g3
g9
I10
S'5.0'
S'10100'
tp463
S'../data/transmission_line_10_dropoffs/MultidropBode\\ac_Cdrp=1.0p_Rterm=sqrt(Lline_Cline)_Lenline=5.0_Rline=8.0_Lline=2.4n_Cline=4.6p_Vin=1_0_1_0_0_Vout.csv'
p464
s((S'11.0'
S'79.0p'
S'220.0f'
tS'3.0p'
g3
g4
I10
S'5.0'
S'10101'
tp465
S'../data/transmission_line_10_dropoffs/MultidropTransient\\tran_Cdrp=3.0p_Rterm=sqrt(Lline_Cline)_Lenline=5.0_Rline=11.0_Lline=79.0p_Cline=220.0f_Vin=1_0_1_0_1_Vout.csv'
p466
s((S'7.0'
S'2.4n'
S'4.6p'
tS'3.0p'
g3
g4
I10
S'5.0'
S'10101'
tp467
S'../data/transmission_line_10_dropoffs/MultidropTransient\\tran_Cdrp=3.0p_Rterm=sqrt(Lline_Cline)_Lenline=5.0_Rline=7.0_Lline=2.4n_Cline=4.6p_Vin=1_0_1_0_1_Vout.csv'
p468
s((S'18.0'
S'3.5n'
S'5.8p'
tS'3.0p'
g3
g4
I10
S'5.0'
S'10100'
tp469
S'../data/transmission_line_10_dropoffs/MultidropTransient\\tran_Cdrp=3.0p_Rterm=sqrt(Lline_Cline)_Lenline=5.0_Rline=18.0_Lline=3.5n_Cline=5.8p_Vin=1_0_1_0_0_Vout.csv'
p470
s((S'15.0'
S'79.0p'
S'220.0f'
tS'1.0p'
g3
g4
I10
S'1.0'
S'10000'
tp471
S'../data/transmission_line_10_dropoffs/MultidropTransient\\tran_Cdrp=1.0p_Rterm=sqrt(Lline_Cline)_Lenline=1.0_Rline=15.0_Lline=79.0p_Cline=220.0f_Vin=1_0_0_0_0_Vout.csv'
p472
s((S'16.0'
S'2.4n'
S'4.6p'
tS'1.0p'
g3
g9
I10
S'5.0'
S'10100'
tp473
S'../data/transmission_line_10_dropoffs/MultidropBode\\ac_Cdrp=1.0p_Rterm=sqrt(Lline_Cline)_Lenline=5.0_Rline=16.0_Lline=2.4n_Cline=4.6p_Vin=1_0_1_0_0_Vout.csv'
p474
s((S'19.0'
S'2.4n'
S'220.0f'
tS'3.0p'
g3
g9
I10
S'5.0'
S'10100'
tp475
S'../data/transmission_line_10_dropoffs/MultidropBode\\ac_Cdrp=3.0p_Rterm=sqrt(Lline_Cline)_Lenline=5.0_Rline=19.0_Lline=2.4n_Cline=220.0f_Vin=1_0_1_0_0_Vout.csv'
p476
s((S'1.0'
S'79.0p'
S'220.0f'
tS'3.0p'
g3
g9
I10
S'5.0'
S'10101'
tp477
S'../data/transmission_line_10_dropoffs/MultidropBode\\ac_Cdrp=3.0p_Rterm=sqrt(Lline_Cline)_Lenline=5.0_Rline=1.0_Lline=79.0p_Cline=220.0f_Vin=1_0_1_0_1_Vout.csv'
p478
s((S'6.0'
S'79.0p'
S'220.0f'
tS'3.0p'
g3
g4
I10
S'5.0'
S'10101'
tp479
S'../data/transmission_line_10_dropoffs/MultidropTransient\\tran_Cdrp=3.0p_Rterm=sqrt(Lline_Cline)_Lenline=5.0_Rline=6.0_Lline=79.0p_Cline=220.0f_Vin=1_0_1_0_1_Vout.csv'
p480
s((S'12.0'
S'3.5n'
S'5.8p'
tS'3.0p'
g3
g4
I10
S'5.0'
S'10100'
tp481
S'../data/transmission_line_10_dropoffs/MultidropTransient\\tran_Cdrp=3.0p_Rterm=sqrt(Lline_Cline)_Lenline=5.0_Rline=12.0_Lline=3.5n_Cline=5.8p_Vin=1_0_1_0_0_Vout.csv'
p482
s((S'5.0'
S'79.0p'
S'220.0f'
tS'3.0p'
g3
g9
I10
S'5.0'
S'10101'
tp483
S'../data/transmission_line_10_dropoffs/MultidropBode\\ac_Cdrp=3.0p_Rterm=sqrt(Lline_Cline)_Lenline=5.0_Rline=5.0_Lline=79.0p_Cline=220.0f_Vin=1_0_1_0_1_Vout.csv'
p484
s((S'16.0'
S'2.4n'
S'4.6p'
tS'3.0p'
g3
g9
I10
S'5.0'
S'10100'
tp485
S'../data/transmission_line_10_dropoffs/MultidropBode\\ac_Cdrp=3.0p_Rterm=sqrt(Lline_Cline)_Lenline=5.0_Rline=16.0_Lline=2.4n_Cline=4.6p_Vin=1_0_1_0_0_Vout.csv'
p486
s((S'420.0m'
S'2.4n'
S'4.6p'
tS'3.0p'
g3
g9
I10
S'5.0'
S'10100'
tp487
S'../data/transmission_line_10_dropoffs/MultidropBode\\ac_Cdrp=3.0p_Rterm=sqrt(Lline_Cline)_Lenline=5.0_Rline=420.0m_Lline=2.4n_Cline=4.6p_Vin=1_0_1_0_0_Vout.csv'
p488
s((S'11.0'
S'2.4n'
S'4.6p'
tS'3.0p'
g3
g9
I10
S'5.0'
S'10101'
tp489
S'../data/transmission_line_10_dropoffs/MultidropBode\\ac_Cdrp=3.0p_Rterm=sqrt(Lline_Cline)_Lenline=5.0_Rline=11.0_Lline=2.4n_Cline=4.6p_Vin=1_0_1_0_1_Vout.csv'
p490
s((S'5.0'
S'79.0p'
S'220.0f'
tS'1.0p'
g3
g4
I10
S'1.0'
S'10000'
tp491
S'../data/transmission_line_10_dropoffs/MultidropTransient\\tran_Cdrp=1.0p_Rterm=sqrt(Lline_Cline)_Lenline=1.0_Rline=5.0_Lline=79.0p_Cline=220.0f_Vin=1_0_0_0_0_Vout.csv'
p492
s((S'5.0'
S'2.4n'
S'4.6p'
tS'3.0p'
g3
g9
I10
S'5.0'
S'10100'
tp493
S'../data/transmission_line_10_dropoffs/MultidropBode\\ac_Cdrp=3.0p_Rterm=sqrt(Lline_Cline)_Lenline=5.0_Rline=5.0_Lline=2.4n_Cline=4.6p_Vin=1_0_1_0_0_Vout.csv'
p494
s((S'20.0m'
S'2.4n'
S'4.6p'
tS'3.0p'
g3
g9
I10
S'5.0'
S'10101'
tp495
S'../data/transmission_line_10_dropoffs/MultidropBode\\ac_Cdrp=3.0p_Rterm=sqrt(Lline_Cline)_Lenline=5.0_Rline=20.0m_Lline=2.4n_Cline=4.6p_Vin=1_0_1_0_1_Vout.csv'
p496
s((S'8.0'
S'79.0p'
S'220.0f'
tS'3.0p'
g3
g9
I10
S'5.0'
S'10101'
tp497
S'../data/transmission_line_10_dropoffs/MultidropBode\\ac_Cdrp=3.0p_Rterm=sqrt(Lline_Cline)_Lenline=5.0_Rline=8.0_Lline=79.0p_Cline=220.0f_Vin=1_0_1_0_1_Vout.csv'
p498
s((S'13.0'
S'3.5n'
S'5.8p'
tS'3.0p'
g3
g4
I10
S'5.0'
S'10100'
tp499
S'../data/transmission_line_10_dropoffs/MultidropTransient\\tran_Cdrp=3.0p_Rterm=sqrt(Lline_Cline)_Lenline=5.0_Rline=13.0_Lline=3.5n_Cline=5.8p_Vin=1_0_1_0_0_Vout.csv'
p500
s((S'17.0'
S'4.0n'
S'9.0p'
tS'3.0p'
g3
g9
I10
S'5.0'
S'10101'
tp501
S'../data/transmission_line_10_dropoffs/MultidropBode\\ac_Cdrp=3.0p_Rterm=sqrt(Lline_Cline)_Lenline=5.0_Rline=17.0_Lline=4.0n_Cline=9.0p_Vin=1_0_1_0_1_Vout.csv'
p502
s((S'1.8'
S'2.4n'
S'4.6p'
tS'3.0p'
g3
g4
I10
S'5.0'
S'10100'
tp503
S'../data/transmission_line_10_dropoffs/MultidropTransient\\tran_Cdrp=3.0p_Rterm=sqrt(Lline_Cline)_Lenline=5.0_Rline=1.8_Lline=2.4n_Cline=4.6p_Vin=1_0_1_0_0_Vout.csv'
p504
s((S'15.0'
S'79.0p'
S'220.0f'
tS'3.0p'
g3
g4
I10
S'5.0'
S'10101'
tp505
S'../data/transmission_line_10_dropoffs/MultidropTransient\\tran_Cdrp=3.0p_Rterm=sqrt(Lline_Cline)_Lenline=5.0_Rline=15.0_Lline=79.0p_Cline=220.0f_Vin=1_0_1_0_1_Vout.csv'
p506
s((S'15.0'
S'79.0p'
S'220.0f'
tS'3.0p'
g3
g9
I10
S'5.0'
S'10101'
tp507
S'../data/transmission_line_10_dropoffs/MultidropBode\\ac_Cdrp=3.0p_Rterm=sqrt(Lline_Cline)_Lenline=5.0_Rline=15.0_Lline=79.0p_Cline=220.0f_Vin=1_0_1_0_1_Vout.csv'
p508
s((S'3.0'
S'2.4n'
S'4.6p'
tS'1.0p'
g3
g4
I10
S'5.0'
S'10100'
tp509
S'../data/transmission_line_10_dropoffs/MultidropTransient\\tran_Cdrp=1.0p_Rterm=sqrt(Lline_Cline)_Lenline=5.0_Rline=3.0_Lline=2.4n_Cline=4.6p_Vin=1_0_1_0_0_Vout.csv'
p510
s((S'12.0'
S'4.0n'
S'9.0p'
tS'3.0p'
g3
g9
I10
S'5.0'
S'10101'
tp511
S'../data/transmission_line_10_dropoffs/MultidropBode\\ac_Cdrp=3.0p_Rterm=sqrt(Lline_Cline)_Lenline=5.0_Rline=12.0_Lline=4.0n_Cline=9.0p_Vin=1_0_1_0_1_Vout.csv'
p512
s((S'220.0m'
S'2.4n'
S'4.6p'
tS'3.0p'
g3
g4
I10
S'5.0'
S'10101'
tp513
S'../data/transmission_line_10_dropoffs/MultidropTransient\\tran_Cdrp=3.0p_Rterm=sqrt(Lline_Cline)_Lenline=5.0_Rline=220.0m_Lline=2.4n_Cline=4.6p_Vin=1_0_1_0_1_Vout.csv'
p514
s((S'4.0'
S'2.4n'
S'220.0f'
tS'3.0p'
g3
g9
I10
S'5.0'
S'10100'
tp515
S'../data/transmission_line_10_dropoffs/MultidropBode\\ac_Cdrp=3.0p_Rterm=sqrt(Lline_Cline)_Lenline=5.0_Rline=4.0_Lline=2.4n_Cline=220.0f_Vin=1_0_1_0_0_Vout.csv'
p516
s((S'17.0'
S'79.0p'
S'220.0f'
tS'3.0p'
g3
g9
I10
S'5.0'
S'10101'
tp517
S'../data/transmission_line_10_dropoffs/MultidropBode\\ac_Cdrp=3.0p_Rterm=sqrt(Lline_Cline)_Lenline=5.0_Rline=17.0_Lline=79.0p_Cline=220.0f_Vin=1_0_1_0_1_Vout.csv'
p518
s((S'20.0'
S'3.5n'
S'5.8p'
tS'3.0p'
g3
g9
I10
S'5.0'
S'10100'
tp519
S'../data/transmission_line_10_dropoffs/MultidropBode\\ac_Cdrp=3.0p_Rterm=sqrt(Lline_Cline)_Lenline=5.0_Rline=20.0_Lline=3.5n_Cline=5.8p_Vin=1_0_1_0_0_Vout.csv'
p520
s((S'4.0'
S'2.4n'
S'4.6p'
tS'3.0p'
g3
g9
I10
S'5.0'
S'10100'
tp521
S'../data/transmission_line_10_dropoffs/MultidropBode\\ac_Cdrp=3.0p_Rterm=sqrt(Lline_Cline)_Lenline=5.0_Rline=4.0_Lline=2.4n_Cline=4.6p_Vin=1_0_1_0_0_Vout.csv'
p522
s((S'420.0m'
S'4.8n'
S'11.2p'
tS'3.0p'
g3
g4
I10
S'5.0'
S'10101'
tp523
S'../data/transmission_line_10_dropoffs/MultidropTransient\\tran_Cdrp=3.0p_Rterm=sqrt(Lline_Cline)_Lenline=5.0_Rline=420.0m_Lline=4.8n_Cline=11.2p_Vin=1_0_1_0_1_Vout.csv'
p524
s((S'7.0'
S'2.4n'
S'4.6p'
tS'1.0p'
g3
g9
I10
S'5.0'
S'10100'
tp525
S'../data/transmission_line_10_dropoffs/MultidropBode\\ac_Cdrp=1.0p_Rterm=sqrt(Lline_Cline)_Lenline=5.0_Rline=7.0_Lline=2.4n_Cline=4.6p_Vin=1_0_1_0_0_Vout.csv'
p526
s((S'13.0'
S'79.0p'
S'220.0f'
tS'1.0p'
g3
g4
I10
S'1.0'
S'10000'
tp527
S'../data/transmission_line_10_dropoffs/MultidropTransient\\tran_Cdrp=1.0p_Rterm=sqrt(Lline_Cline)_Lenline=1.0_Rline=13.0_Lline=79.0p_Cline=220.0f_Vin=1_0_0_0_0_Vout.csv'
p528
s((S'620.0m'
S'2.4n'
S'220.0f'
tS'3.0p'
g3
g9
I10
S'5.0'
S'10100'
tp529
S'../data/transmission_line_10_dropoffs/MultidropBode\\ac_Cdrp=3.0p_Rterm=sqrt(Lline_Cline)_Lenline=5.0_Rline=620.0m_Lline=2.4n_Cline=220.0f_Vin=1_0_1_0_0_Vout.csv'
p530
s((S'5.0'
S'79.0p'
S'220.0f'
tS'3.0p'
g3
g4
I10
S'5.0'
S'10101'
tp531
S'../data/transmission_line_10_dropoffs/MultidropTransient\\tran_Cdrp=3.0p_Rterm=sqrt(Lline_Cline)_Lenline=5.0_Rline=5.0_Lline=79.0p_Cline=220.0f_Vin=1_0_1_0_1_Vout.csv'
p532
s((S'8.0'
S'2.4n'
S'220.0f'
tS'3.0p'
g3
g9
I10
S'5.0'
S'10100'
tp533
S'../data/transmission_line_10_dropoffs/MultidropBode\\ac_Cdrp=3.0p_Rterm=sqrt(Lline_Cline)_Lenline=5.0_Rline=8.0_Lline=2.4n_Cline=220.0f_Vin=1_0_1_0_0_Vout.csv'
p534
s((S'5.0'
S'2.4n'
S'4.6p'
tS'1.0p'
g3
g9
I10
S'5.0'
S'10100'
tp535
S'../data/transmission_line_10_dropoffs/MultidropBode\\ac_Cdrp=1.0p_Rterm=sqrt(Lline_Cline)_Lenline=5.0_Rline=5.0_Lline=2.4n_Cline=4.6p_Vin=1_0_1_0_0_Vout.csv'
p536
s((S'16.0'
S'2.4n'
S'4.6p'
tS'3.0p'
g3
g9
I10
S'5.0'
S'10101'
tp537
S'../data/transmission_line_10_dropoffs/MultidropBode\\ac_Cdrp=3.0p_Rterm=sqrt(Lline_Cline)_Lenline=5.0_Rline=16.0_Lline=2.4n_Cline=4.6p_Vin=1_0_1_0_1_Vout.csv'
p538
s((S'420.0m'
S'2.4n'
S'4.6p'
tS'3.0p'
g3
g9
I10
S'5.0'
S'10101'
tp539
S'../data/transmission_line_10_dropoffs/MultidropBode\\ac_Cdrp=3.0p_Rterm=sqrt(Lline_Cline)_Lenline=5.0_Rline=420.0m_Lline=2.4n_Cline=4.6p_Vin=1_0_1_0_1_Vout.csv'
p540
s((S'220.0m'
S'4.0n'
S'9.0p'
tS'3.0p'
g3
g9
I10
S'5.0'
S'10101'
tp541
S'../data/transmission_line_10_dropoffs/MultidropBode\\ac_Cdrp=3.0p_Rterm=sqrt(Lline_Cline)_Lenline=5.0_Rline=220.0m_Lline=4.0n_Cline=9.0p_Vin=1_0_1_0_1_Vout.csv'
p542
s((S'11.0'
S'2.4n'
S'4.6p'
tS'3.0p'
g3
g9
I10
S'5.0'
S'10100'
tp543
S'../data/transmission_line_10_dropoffs/MultidropBode\\ac_Cdrp=3.0p_Rterm=sqrt(Lline_Cline)_Lenline=5.0_Rline=11.0_Lline=2.4n_Cline=4.6p_Vin=1_0_1_0_0_Vout.csv'
p544
s((S'14.0'
S'79.0p'
S'220.0f'
tS'3.0p'
g3
g4
I10
S'5.0'
S'10101'
tp545
S'../data/transmission_line_10_dropoffs/MultidropTransient\\tran_Cdrp=3.0p_Rterm=sqrt(Lline_Cline)_Lenline=5.0_Rline=14.0_Lline=79.0p_Cline=220.0f_Vin=1_0_1_0_1_Vout.csv'
p546
s((S'20.0m'
S'79.0p'
S'220.0f'
tS'1.0p'
g3
g9
I10
S'1.0'
S'10100'
tp547
S'../data/transmission_line_10_dropoffs/MultidropBode\\ac_Cdrp=1.0p_Rterm=sqrt(Lline_Cline)_Lenline=1.0_Rline=20.0m_Lline=79.0p_Cline=220.0f_Vin=1_0_1_0_0_Vout.csv'
p548
s((S'420.0m'
S'6.4n'
S'11.2p'
tS'3.0p'
g3
g4
I10
S'5.0'
S'01111'
tp549
S'../data/transmission_line_10_dropoffs/MultidropTransient\\tran_Cdrp=3.0p_Rterm=sqrt(Lline_Cline)_Lenline=5.0_Rline=420.0m_Lline=6.4n_Cline=11.2p_Vin=0_1_1_1_1_Vout.csv'
p550
s((S'1.4'
S'79.0p'
S'220.0f'
tS'3.0p'
g3
g4
I10
S'5.0'
S'10101'
tp551
S'../data/transmission_line_10_dropoffs/MultidropTransient\\tran_Cdrp=3.0p_Rterm=sqrt(Lline_Cline)_Lenline=5.0_Rline=1.4_Lline=79.0p_Cline=220.0f_Vin=1_0_1_0_1_Vout.csv'
p552
s((S'20.0m'
S'2.4n'
S'4.6p'
tS'3.0p'
g3
g9
I10
S'5.0'
S'10100'
tp553
S'../data/transmission_line_10_dropoffs/MultidropBode\\ac_Cdrp=3.0p_Rterm=sqrt(Lline_Cline)_Lenline=5.0_Rline=20.0m_Lline=2.4n_Cline=4.6p_Vin=1_0_1_0_0_Vout.csv'
p554
s((S'17.0'
S'2.4n'
S'4.6p'
tS'3.0p'
g3
g9
I10
S'5.0'
S'10101'
tp555
S'../data/transmission_line_10_dropoffs/MultidropBode\\ac_Cdrp=3.0p_Rterm=sqrt(Lline_Cline)_Lenline=5.0_Rline=17.0_Lline=2.4n_Cline=4.6p_Vin=1_0_1_0_1_Vout.csv'
p556
s((S'820.0m'
S'2.4n'
S'220.0f'
tS'3.0p'
g3
g9
I10
S'5.0'
S'10100'
tp557
S'../data/transmission_line_10_dropoffs/MultidropBode\\ac_Cdrp=3.0p_Rterm=sqrt(Lline_Cline)_Lenline=5.0_Rline=820.0m_Lline=2.4n_Cline=220.0f_Vin=1_0_1_0_0_Vout.csv'
p558
s((S'1.8'
S'2.4n'
S'4.6p'
tS'3.0p'
g3
g4
I10
S'5.0'
S'10101'
tp559
S'../data/transmission_line_10_dropoffs/MultidropTransient\\tran_Cdrp=3.0p_Rterm=sqrt(Lline_Cline)_Lenline=5.0_Rline=1.8_Lline=2.4n_Cline=4.6p_Vin=1_0_1_0_1_Vout.csv'
p560
s((S'3.0'
S'2.4n'
S'4.6p'
tS'3.0p'
g3
g4
I10
S'5.0'
S'10100'
tp561
S'../data/transmission_line_10_dropoffs/MultidropTransient\\tran_Cdrp=3.0p_Rterm=sqrt(Lline_Cline)_Lenline=5.0_Rline=3.0_Lline=2.4n_Cline=4.6p_Vin=1_0_1_0_0_Vout.csv'
p562
s((S'17.0'
S'2.4n'
S'220.0f'
tS'3.0p'
g3
g9
I10
S'5.0'
S'10100'
tp563
S'../data/transmission_line_10_dropoffs/MultidropBode\\ac_Cdrp=3.0p_Rterm=sqrt(Lline_Cline)_Lenline=5.0_Rline=17.0_Lline=2.4n_Cline=220.0f_Vin=1_0_1_0_0_Vout.csv'
p564
s((S'15.0'
S'2.4n'
S'4.6p'
tS'1.0p'
g3
g9
I10
S'5.0'
S'10100'
tp565
S'../data/transmission_line_10_dropoffs/MultidropBode\\ac_Cdrp=1.0p_Rterm=sqrt(Lline_Cline)_Lenline=5.0_Rline=15.0_Lline=2.4n_Cline=4.6p_Vin=1_0_1_0_0_Vout.csv'
p566
s((S'1.4'
S'2.4n'
S'4.6p'
tS'3.0p'
g3
g9
I10
S'5.0'
S'10101'
tp567
S'../data/transmission_line_10_dropoffs/MultidropBode\\ac_Cdrp=3.0p_Rterm=sqrt(Lline_Cline)_Lenline=5.0_Rline=1.4_Lline=2.4n_Cline=4.6p_Vin=1_0_1_0_1_Vout.csv'
p568
s((S'1.6'
S'4.0n'
S'9.0p'
tS'3.0p'
g3
g9
I10
S'5.0'
S'10101'
tp569
S'../data/transmission_line_10_dropoffs/MultidropBode\\ac_Cdrp=3.0p_Rterm=sqrt(Lline_Cline)_Lenline=5.0_Rline=1.6_Lline=4.0n_Cline=9.0p_Vin=1_0_1_0_1_Vout.csv'
p570
s((S'1.8'
S'2.4n'
S'220.0f'
tS'3.0p'
g3
g9
I10
S'5.0'
S'10100'
tp571
S'../data/transmission_line_10_dropoffs/MultidropBode\\ac_Cdrp=3.0p_Rterm=sqrt(Lline_Cline)_Lenline=5.0_Rline=1.8_Lline=2.4n_Cline=220.0f_Vin=1_0_1_0_0_Vout.csv'
p572
s((S'420.0m'
S'2.4n'
S'220.0f'
tS'3.0p'
g3
g9
I10
S'5.0'
S'10100'
tp573
S'../data/transmission_line_10_dropoffs/MultidropBode\\ac_Cdrp=3.0p_Rterm=sqrt(Lline_Cline)_Lenline=5.0_Rline=420.0m_Lline=2.4n_Cline=220.0f_Vin=1_0_1_0_0_Vout.csv'
p574
s((S'20.0m'
S'2.4n'
S'220.0f'
tS'3.0p'
g3
g9
I10
S'5.0'
S'10100'
tp575
S'../data/transmission_line_10_dropoffs/MultidropBode\\ac_Cdrp=3.0p_Rterm=sqrt(Lline_Cline)_Lenline=5.0_Rline=20.0m_Lline=2.4n_Cline=220.0f_Vin=1_0_1_0_0_Vout.csv'
p576
s((S'420.0m'
S'2.4n'
S'4.6p'
tS'1.0p'
g3
g9
I10
S'5.0'
S'10100'
tp577
S'../data/transmission_line_10_dropoffs/MultidropBode\\ac_Cdrp=1.0p_Rterm=sqrt(Lline_Cline)_Lenline=5.0_Rline=420.0m_Lline=2.4n_Cline=4.6p_Vin=1_0_1_0_0_Vout.csv'
p578
s((S'5.0'
S'4.0n'
S'9.0p'
tS'3.0p'
g3
g9
I10
S'5.0'
S'10101'
tp579
S'../data/transmission_line_10_dropoffs/MultidropBode\\ac_Cdrp=3.0p_Rterm=sqrt(Lline_Cline)_Lenline=5.0_Rline=5.0_Lline=4.0n_Cline=9.0p_Vin=1_0_1_0_1_Vout.csv'
p580
s((S'11.0'
S'3.5n'
S'5.8p'
tS'3.0p'
g3
g9
I10
S'5.0'
S'10100'
tp581
S'../data/transmission_line_10_dropoffs/MultidropBode\\ac_Cdrp=3.0p_Rterm=sqrt(Lline_Cline)_Lenline=5.0_Rline=11.0_Lline=3.5n_Cline=5.8p_Vin=1_0_1_0_0_Vout.csv'
p582
s((S'4.0'
S'2.4n'
S'4.6p'
tS'3.0p'
g3
g9
I10
S'5.0'
S'10101'
tp583
S'../data/transmission_line_10_dropoffs/MultidropBode\\ac_Cdrp=3.0p_Rterm=sqrt(Lline_Cline)_Lenline=5.0_Rline=4.0_Lline=2.4n_Cline=4.6p_Vin=1_0_1_0_1_Vout.csv'
p584
s((S'9.0'
S'2.4n'
S'4.6p'
tS'3.0p'
g3
g4
I10
S'5.0'
S'10100'
tp585
S'../data/transmission_line_10_dropoffs/MultidropTransient\\tran_Cdrp=3.0p_Rterm=sqrt(Lline_Cline)_Lenline=5.0_Rline=9.0_Lline=2.4n_Cline=4.6p_Vin=1_0_1_0_0_Vout.csv'
p586
s((S'16.0'
S'3.5n'
S'5.8p'
tS'3.0p'
g3
g9
I10
S'5.0'
S'10100'
tp587
S'../data/transmission_line_10_dropoffs/MultidropBode\\ac_Cdrp=3.0p_Rterm=sqrt(Lline_Cline)_Lenline=5.0_Rline=16.0_Lline=3.5n_Cline=5.8p_Vin=1_0_1_0_0_Vout.csv'
p588
s((S'4.0'
S'3.5n'
S'5.8p'
tS'3.0p'
g3
g4
I10
S'5.0'
S'10100'
tp589
S'../data/transmission_line_10_dropoffs/MultidropTransient\\tran_Cdrp=3.0p_Rterm=sqrt(Lline_Cline)_Lenline=5.0_Rline=4.0_Lline=3.5n_Cline=5.8p_Vin=1_0_1_0_0_Vout.csv'
p590
s((S'6.0'
S'2.4n'
S'220.0f'
tS'3.0p'
g3
g9
I10
S'5.0'
S'10100'
tp591
S'../data/transmission_line_10_dropoffs/MultidropBode\\ac_Cdrp=3.0p_Rterm=sqrt(Lline_Cline)_Lenline=5.0_Rline=6.0_Lline=2.4n_Cline=220.0f_Vin=1_0_1_0_0_Vout.csv'
p592
s((S'420.0m'
S'2.4n'
S'4.6p'
tS'3.0p'
g3
g4
I10
S'5.0'
S'10101'
tp593
S'../data/transmission_line_10_dropoffs/MultidropTransient\\tran_Cdrp=3.0p_Rterm=sqrt(Lline_Cline)_Lenline=5.0_Rline=420.0m_Lline=2.4n_Cline=4.6p_Vin=1_0_1_0_1_Vout.csv'
p594
s((S'16.0'
S'79.0p'
S'220.0f'
tS'1.0p'
g3
g4
I10
S'1.0'
S'10000'
tp595
S'../data/transmission_line_10_dropoffs/MultidropTransient\\tran_Cdrp=1.0p_Rterm=sqrt(Lline_Cline)_Lenline=1.0_Rline=16.0_Lline=79.0p_Cline=220.0f_Vin=1_0_0_0_0_Vout.csv'
p596
s((S'620.0m'
S'3.5n'
S'5.8p'
tS'3.0p'
g3
g9
I10
S'5.0'
S'10100'
tp597
S'../data/transmission_line_10_dropoffs/MultidropBode\\ac_Cdrp=3.0p_Rterm=sqrt(Lline_Cline)_Lenline=5.0_Rline=620.0m_Lline=3.5n_Cline=5.8p_Vin=1_0_1_0_0_Vout.csv'
p598
s((S'4.0'
S'2.4n'
S'4.6p'
tS'1.0p'
g3
g4
I10
S'5.0'
S'10100'
tp599
S'../data/transmission_line_10_dropoffs/MultidropTransient\\tran_Cdrp=1.0p_Rterm=sqrt(Lline_Cline)_Lenline=5.0_Rline=4.0_Lline=2.4n_Cline=4.6p_Vin=1_0_1_0_0_Vout.csv'
p600
s((S'17.0'
S'2.4n'
S'4.6p'
tS'3.0p'
g3
g9
I10
S'5.0'
S'10100'
tp601
S'../data/transmission_line_10_dropoffs/MultidropBode\\ac_Cdrp=3.0p_Rterm=sqrt(Lline_Cline)_Lenline=5.0_Rline=17.0_Lline=2.4n_Cline=4.6p_Vin=1_0_1_0_0_Vout.csv'
p602
s((S'10.0'
S'79.0p'
S'220.0f'
tS'3.0p'
g3
g9
I10
S'5.0'
S'10101'
tp603
S'../data/transmission_line_10_dropoffs/MultidropBode\\ac_Cdrp=3.0p_Rterm=sqrt(Lline_Cline)_Lenline=5.0_Rline=10.0_Lline=79.0p_Cline=220.0f_Vin=1_0_1_0_1_Vout.csv'
p604
s((S'3.0'
S'2.4n'
S'4.6p'
tS'3.0p'
g3
g9
I10
S'5.0'
S'10101'
tp605
S'../data/transmission_line_10_dropoffs/MultidropBode\\ac_Cdrp=3.0p_Rterm=sqrt(Lline_Cline)_Lenline=5.0_Rline=3.0_Lline=2.4n_Cline=4.6p_Vin=1_0_1_0_1_Vout.csv'
p606
s((S'820.0m'
S'3.5n'
S'5.8p'
tS'3.0p'
g3
g9
I10
S'5.0'
S'10100'
tp607
S'../data/transmission_line_10_dropoffs/MultidropBode\\ac_Cdrp=3.0p_Rterm=sqrt(Lline_Cline)_Lenline=5.0_Rline=820.0m_Lline=3.5n_Cline=5.8p_Vin=1_0_1_0_0_Vout.csv'
p608
s((S'3.0'
S'2.4n'
S'4.6p'
tS'3.0p'
g3
g4
I10
S'5.0'
S'10101'
tp609
S'../data/transmission_line_10_dropoffs/MultidropTransient\\tran_Cdrp=3.0p_Rterm=sqrt(Lline_Cline)_Lenline=5.0_Rline=3.0_Lline=2.4n_Cline=4.6p_Vin=1_0_1_0_1_Vout.csv'
p610
s((S'19.0'
S'2.4n'
S'220.0f'
tS'3.0p'
g3
g4
I10
S'5.0'
S'10100'
tp611
S'../data/transmission_line_10_dropoffs/MultidropTransient\\tran_Cdrp=3.0p_Rterm=sqrt(Lline_Cline)_Lenline=5.0_Rline=19.0_Lline=2.4n_Cline=220.0f_Vin=1_0_1_0_0_Vout.csv'
p612
s((S'16.0'
S'2.4n'
S'4.6p'
tS'1.0p'
g3
g4
I10
S'5.0'
S'10100'
tp613
S'../data/transmission_line_10_dropoffs/MultidropTransient\\tran_Cdrp=1.0p_Rterm=sqrt(Lline_Cline)_Lenline=5.0_Rline=16.0_Lline=2.4n_Cline=4.6p_Vin=1_0_1_0_0_Vout.csv'
p614
s((S'1.4'
S'2.4n'
S'4.6p'
tS'3.0p'
g3
g9
I10
S'5.0'
S'10100'
tp615
S'../data/transmission_line_10_dropoffs/MultidropBode\\ac_Cdrp=3.0p_Rterm=sqrt(Lline_Cline)_Lenline=5.0_Rline=1.4_Lline=2.4n_Cline=4.6p_Vin=1_0_1_0_0_Vout.csv'
p616
s((S'19.0'
S'2.4n'
S'4.6p'
tS'3.0p'
g3
g4
I10
S'5.0'
S'10100'
tp617
S'../data/transmission_line_10_dropoffs/MultidropTransient\\tran_Cdrp=3.0p_Rterm=sqrt(Lline_Cline)_Lenline=5.0_Rline=19.0_Lline=2.4n_Cline=4.6p_Vin=1_0_1_0_0_Vout.csv'
p618
s((S'420.0m'
S'3.5n'
S'5.8p'
tS'3.0p'
g3
g9
I10
S'5.0'
S'10100'
tp619
S'../data/transmission_line_10_dropoffs/MultidropBode\\ac_Cdrp=3.0p_Rterm=sqrt(Lline_Cline)_Lenline=5.0_Rline=420.0m_Lline=3.5n_Cline=5.8p_Vin=1_0_1_0_0_Vout.csv'
p620
s((S'20.0m'
S'4.0n'
S'9.0p'
tS'3.0p'
g3
g9
I10
S'5.0'
S'10101'
tp621
S'../data/transmission_line_10_dropoffs/MultidropBode\\ac_Cdrp=3.0p_Rterm=sqrt(Lline_Cline)_Lenline=5.0_Rline=20.0m_Lline=4.0n_Cline=9.0p_Vin=1_0_1_0_1_Vout.csv'
p622
s((S'7.0'
S'79.0p'
S'220.0f'
tS'1.0p'
g3
g9
I10
S'1.0'
S'10000'
tp623
S'../data/transmission_line_10_dropoffs/MultidropBode\\ac_Cdrp=1.0p_Rterm=sqrt(Lline_Cline)_Lenline=1.0_Rline=7.0_Lline=79.0p_Cline=220.0f_Vin=1_0_0_0_0_Vout.csv'
p624
s((S'420.0m'
S'79.0p'
S'220.0f'
tS'3.0p'
g3
g4
I10
S'5.0'
S'10101'
tp625
S'../data/transmission_line_10_dropoffs/MultidropTransient\\tran_Cdrp=3.0p_Rterm=sqrt(Lline_Cline)_Lenline=5.0_Rline=420.0m_Lline=79.0p_Cline=220.0f_Vin=1_0_1_0_1_Vout.csv'
p626
s((S'18.0'
S'2.4n'
S'220.0f'
tS'3.0p'
g3
g4
I10
S'5.0'
S'10100'
tp627
S'../data/transmission_line_10_dropoffs/MultidropTransient\\tran_Cdrp=3.0p_Rterm=sqrt(Lline_Cline)_Lenline=5.0_Rline=18.0_Lline=2.4n_Cline=220.0f_Vin=1_0_1_0_0_Vout.csv'
p628
s((S'420.0m'
S'2.4n'
S'4.6p'
tS'3.0p'
g3
g4
I10
S'5.0'
S'10100'
tp629
S'../data/transmission_line_10_dropoffs/MultidropTransient\\tran_Cdrp=3.0p_Rterm=sqrt(Lline_Cline)_Lenline=5.0_Rline=420.0m_Lline=2.4n_Cline=4.6p_Vin=1_0_1_0_0_Vout.csv'
p630
s((S'11.0'
S'2.4n'
S'220.0f'
tS'3.0p'
g3
g4
I10
S'5.0'
S'10100'
tp631
S'../data/transmission_line_10_dropoffs/MultidropTransient\\tran_Cdrp=3.0p_Rterm=sqrt(Lline_Cline)_Lenline=5.0_Rline=11.0_Lline=2.4n_Cline=220.0f_Vin=1_0_1_0_0_Vout.csv'
p632
s((S'3.0'
S'2.4n'
S'220.0f'
tS'3.0p'
g3
g4
I10
S'5.0'
S'10100'
tp633
S'../data/transmission_line_10_dropoffs/MultidropTransient\\tran_Cdrp=3.0p_Rterm=sqrt(Lline_Cline)_Lenline=5.0_Rline=3.0_Lline=2.4n_Cline=220.0f_Vin=1_0_1_0_0_Vout.csv'
p634
s((S'420.0m'
S'3.5n'
S'5.8p'
tS'3.0p'
g3
g4
I10
S'5.0'
S'10100'
tp635
S'../data/transmission_line_10_dropoffs/MultidropTransient\\tran_Cdrp=3.0p_Rterm=sqrt(Lline_Cline)_Lenline=5.0_Rline=420.0m_Lline=3.5n_Cline=5.8p_Vin=1_0_1_0_0_Vout.csv'
p636
s((S'12.0'
S'2.4n'
S'4.6p'
tS'1.0p'
g3
g4
I10
S'5.0'
S'10100'
tp637
S'../data/transmission_line_10_dropoffs/MultidropTransient\\tran_Cdrp=1.0p_Rterm=sqrt(Lline_Cline)_Lenline=5.0_Rline=12.0_Lline=2.4n_Cline=4.6p_Vin=1_0_1_0_0_Vout.csv'
p638
s((S'15.0'
S'4.0n'
S'9.0p'
tS'3.0p'
g3
g4
I10
S'5.0'
S'10101'
tp639
S'../data/transmission_line_10_dropoffs/MultidropTransient\\tran_Cdrp=3.0p_Rterm=sqrt(Lline_Cline)_Lenline=5.0_Rline=15.0_Lline=4.0n_Cline=9.0p_Vin=1_0_1_0_1_Vout.csv'
p640
s((S'8.0'
S'2.4n'
S'4.6p'
tS'3.0p'
g3
g4
I10
S'5.0'
S'10101'
tp641
S'../data/transmission_line_10_dropoffs/MultidropTransient\\tran_Cdrp=3.0p_Rterm=sqrt(Lline_Cline)_Lenline=5.0_Rline=8.0_Lline=2.4n_Cline=4.6p_Vin=1_0_1_0_1_Vout.csv'
p642
s((S'3.0'
S'2.4n'
S'4.6p'
tS'3.0p'
g3
g9
I10
S'5.0'
S'10100'
tp643
S'../data/transmission_line_10_dropoffs/MultidropBode\\ac_Cdrp=3.0p_Rterm=sqrt(Lline_Cline)_Lenline=5.0_Rline=3.0_Lline=2.4n_Cline=4.6p_Vin=1_0_1_0_0_Vout.csv'
p644
s((S'220.0m'
S'2.4n'
S'4.6p'
tS'3.0p'
g3
g4
I10
S'5.0'
S'10100'
tp645
S'../data/transmission_line_10_dropoffs/MultidropTransient\\tran_Cdrp=3.0p_Rterm=sqrt(Lline_Cline)_Lenline=5.0_Rline=220.0m_Lline=2.4n_Cline=4.6p_Vin=1_0_1_0_0_Vout.csv'
p646
s((S'8.0'
S'4.0n'
S'9.0p'
tS'3.0p'
g3
g9
I10
S'5.0'
S'10101'
tp647
S'../data/transmission_line_10_dropoffs/MultidropBode\\ac_Cdrp=3.0p_Rterm=sqrt(Lline_Cline)_Lenline=5.0_Rline=8.0_Lline=4.0n_Cline=9.0p_Vin=1_0_1_0_1_Vout.csv'
p648
s((S'620.0m'
S'2.4n'
S'4.6p'
tS'3.0p'
g3
g4
I10
S'5.0'
S'10100'
tp649
S'../data/transmission_line_10_dropoffs/MultidropTransient\\tran_Cdrp=3.0p_Rterm=sqrt(Lline_Cline)_Lenline=5.0_Rline=620.0m_Lline=2.4n_Cline=4.6p_Vin=1_0_1_0_0_Vout.csv'
p650
s((S'16.0'
S'2.4n'
S'4.6p'
tS'3.0p'
g3
g4
I10
S'5.0'
S'10101'
tp651
S'../data/transmission_line_10_dropoffs/MultidropTransient\\tran_Cdrp=3.0p_Rterm=sqrt(Lline_Cline)_Lenline=5.0_Rline=16.0_Lline=2.4n_Cline=4.6p_Vin=1_0_1_0_1_Vout.csv'
p652
s((S'12.0'
S'79.0p'
S'220.0f'
tS'3.0p'
g3
g9
I10
S'5.0'
S'10101'
tp653
S'../data/transmission_line_10_dropoffs/MultidropBode\\ac_Cdrp=3.0p_Rterm=sqrt(Lline_Cline)_Lenline=5.0_Rline=12.0_Lline=79.0p_Cline=220.0f_Vin=1_0_1_0_1_Vout.csv'
p654
s((S'16.0'
S'4.0n'
S'9.0p'
tS'3.0p'
g3
g4
I10
S'5.0'
S'10101'
tp655
S'../data/transmission_line_10_dropoffs/MultidropTransient\\tran_Cdrp=3.0p_Rterm=sqrt(Lline_Cline)_Lenline=5.0_Rline=16.0_Lline=4.0n_Cline=9.0p_Vin=1_0_1_0_1_Vout.csv'
p656
s((S'4.0'
S'2.4n'
S'4.6p'
tS'1.0p'
g3
g9
I10
S'5.0'
S'10100'
tp657
S'../data/transmission_line_10_dropoffs/MultidropBode\\ac_Cdrp=1.0p_Rterm=sqrt(Lline_Cline)_Lenline=5.0_Rline=4.0_Lline=2.4n_Cline=4.6p_Vin=1_0_1_0_0_Vout.csv'
p658
s((S'1.4'
S'4.0n'
S'9.0p'
tS'3.0p'
g3
g9
I10
S'5.0'
S'10101'
tp659
S'../data/transmission_line_10_dropoffs/MultidropBode\\ac_Cdrp=3.0p_Rterm=sqrt(Lline_Cline)_Lenline=5.0_Rline=1.4_Lline=4.0n_Cline=9.0p_Vin=1_0_1_0_1_Vout.csv'
p660
s((S'18.0'
S'2.4n'
S'220.0f'
tS'3.0p'
g3
g9
I10
S'5.0'
S'10100'
tp661
S'../data/transmission_line_10_dropoffs/MultidropBode\\ac_Cdrp=3.0p_Rterm=sqrt(Lline_Cline)_Lenline=5.0_Rline=18.0_Lline=2.4n_Cline=220.0f_Vin=1_0_1_0_0_Vout.csv'
p662
s((S'10.0'
S'79.0p'
S'220.0f'
tS'1.0p'
g3
g9
I10
S'1.0'
S'10000'
tp663
S'../data/transmission_line_10_dropoffs/MultidropBode\\ac_Cdrp=1.0p_Rterm=sqrt(Lline_Cline)_Lenline=1.0_Rline=10.0_Lline=79.0p_Cline=220.0f_Vin=1_0_0_0_0_Vout.csv'
p664
s((S'18.0'
S'79.0p'
S'220.0f'
tS'3.0p'
g3
g4
I10
S'5.0'
S'10101'
tp665
S'../data/transmission_line_10_dropoffs/MultidropTransient\\tran_Cdrp=3.0p_Rterm=sqrt(Lline_Cline)_Lenline=5.0_Rline=18.0_Lline=79.0p_Cline=220.0f_Vin=1_0_1_0_1_Vout.csv'
p666
s((S'7.0'
S'3.5n'
S'5.8p'
tS'3.0p'
g3
g4
I10
S'5.0'
S'10100'
tp667
S'../data/transmission_line_10_dropoffs/MultidropTransient\\tran_Cdrp=3.0p_Rterm=sqrt(Lline_Cline)_Lenline=5.0_Rline=7.0_Lline=3.5n_Cline=5.8p_Vin=1_0_1_0_0_Vout.csv'
p668
s((S'1.0'
S'2.4n'
S'220.0f'
tS'3.0p'
g3
g9
I10
S'5.0'
S'10100'
tp669
S'../data/transmission_line_10_dropoffs/MultidropBode\\ac_Cdrp=3.0p_Rterm=sqrt(Lline_Cline)_Lenline=5.0_Rline=1.0_Lline=2.4n_Cline=220.0f_Vin=1_0_1_0_0_Vout.csv'
p670
s((S'19.0'
S'79.0p'
S'220.0f'
tS'3.0p'
g3
g9
I10
S'5.0'
S'10101'
tp671
S'../data/transmission_line_10_dropoffs/MultidropBode\\ac_Cdrp=3.0p_Rterm=sqrt(Lline_Cline)_Lenline=5.0_Rline=19.0_Lline=79.0p_Cline=220.0f_Vin=1_0_1_0_1_Vout.csv'
p672
s((S'17.0'
S'2.4n'
S'4.6p'
tS'1.0p'
g3
g4
I10
S'5.0'
S'10100'
tp673
S'../data/transmission_line_10_dropoffs/MultidropTransient\\tran_Cdrp=1.0p_Rterm=sqrt(Lline_Cline)_Lenline=5.0_Rline=17.0_Lline=2.4n_Cline=4.6p_Vin=1_0_1_0_0_Vout.csv'
p674
s((S'1.0'
S'2.4n'
S'4.6p'
tS'1.0p'
g3
g9
I10
S'5.0'
S'10100'
tp675
S'../data/transmission_line_10_dropoffs/MultidropBode\\ac_Cdrp=1.0p_Rterm=sqrt(Lline_Cline)_Lenline=5.0_Rline=1.0_Lline=2.4n_Cline=4.6p_Vin=1_0_1_0_0_Vout.csv'
p676
s((S'16.0'
S'79.0p'
S'220.0f'
tS'1.0p'
g3
g9
I10
S'1.0'
S'10000'
tp677
S'../data/transmission_line_10_dropoffs/MultidropBode\\ac_Cdrp=1.0p_Rterm=sqrt(Lline_Cline)_Lenline=1.0_Rline=16.0_Lline=79.0p_Cline=220.0f_Vin=1_0_0_0_0_Vout.csv'
p678
s((S'6.0'
S'4.0n'
S'9.0p'
tS'3.0p'
g3
g9
I10
S'5.0'
S'10101'
tp679
S'../data/transmission_line_10_dropoffs/MultidropBode\\ac_Cdrp=3.0p_Rterm=sqrt(Lline_Cline)_Lenline=5.0_Rline=6.0_Lline=4.0n_Cline=9.0p_Vin=1_0_1_0_1_Vout.csv'
p680
s((S'17.0'
S'79.0p'
S'220.0f'
tS'1.0p'
g3
g9
I10
S'1.0'
S'10000'
tp681
S'../data/transmission_line_10_dropoffs/MultidropBode\\ac_Cdrp=1.0p_Rterm=sqrt(Lline_Cline)_Lenline=1.0_Rline=17.0_Lline=79.0p_Cline=220.0f_Vin=1_0_0_0_0_Vout.csv'
p682
s((S'13.0'
S'4.0n'
S'9.0p'
tS'3.0p'
g3
g9
I10
S'5.0'
S'10101'
tp683
S'../data/transmission_line_10_dropoffs/MultidropBode\\ac_Cdrp=3.0p_Rterm=sqrt(Lline_Cline)_Lenline=5.0_Rline=13.0_Lline=4.0n_Cline=9.0p_Vin=1_0_1_0_1_Vout.csv'
p684
s((S'1.6'
S'2.4n'
S'4.6p'
tS'3.0p'
g3
g9
I10
S'5.0'
S'10101'
tp685
S'../data/transmission_line_10_dropoffs/MultidropBode\\ac_Cdrp=3.0p_Rterm=sqrt(Lline_Cline)_Lenline=5.0_Rline=1.6_Lline=2.4n_Cline=4.6p_Vin=1_0_1_0_1_Vout.csv'
p686
s((S'8.0'
S'2.4n'
S'220.0f'
tS'3.0p'
g3
g4
I10
S'5.0'
S'10100'
tp687
S'../data/transmission_line_10_dropoffs/MultidropTransient\\tran_Cdrp=3.0p_Rterm=sqrt(Lline_Cline)_Lenline=5.0_Rline=8.0_Lline=2.4n_Cline=220.0f_Vin=1_0_1_0_0_Vout.csv'
p688
s((S'15.0'
S'2.4n'
S'4.6p'
tS'1.0p'
g3
g4
I10
S'5.0'
S'10100'
tp689
S'../data/transmission_line_10_dropoffs/MultidropTransient\\tran_Cdrp=1.0p_Rterm=sqrt(Lline_Cline)_Lenline=5.0_Rline=15.0_Lline=2.4n_Cline=4.6p_Vin=1_0_1_0_0_Vout.csv'
p690
s((S'1.0'
S'79.0p'
S'220.0f'
tS'3.0p'
g3
g4
I10
S'5.0'
S'10101'
tp691
S'../data/transmission_line_10_dropoffs/MultidropTransient\\tran_Cdrp=3.0p_Rterm=sqrt(Lline_Cline)_Lenline=5.0_Rline=1.0_Lline=79.0p_Cline=220.0f_Vin=1_0_1_0_1_Vout.csv'
p692
s((S'1.8'
S'2.4n'
S'4.6p'
tS'3.0p'
g3
g9
I10
S'5.0'
S'10101'
tp693
S'../data/transmission_line_10_dropoffs/MultidropBode\\ac_Cdrp=3.0p_Rterm=sqrt(Lline_Cline)_Lenline=5.0_Rline=1.8_Lline=2.4n_Cline=4.6p_Vin=1_0_1_0_1_Vout.csv'
p694
s((S'18.0'
S'79.0p'
S'220.0f'
tS'3.0p'
g3
g9
I10
S'5.0'
S'10101'
tp695
S'../data/transmission_line_10_dropoffs/MultidropBode\\ac_Cdrp=3.0p_Rterm=sqrt(Lline_Cline)_Lenline=5.0_Rline=18.0_Lline=79.0p_Cline=220.0f_Vin=1_0_1_0_1_Vout.csv'
p696
s((S'9.0'
S'2.4n'
S'220.0f'
tS'3.0p'
g3
g4
I10
S'5.0'
S'10100'
tp697
S'../data/transmission_line_10_dropoffs/MultidropTransient\\tran_Cdrp=3.0p_Rterm=sqrt(Lline_Cline)_Lenline=5.0_Rline=9.0_Lline=2.4n_Cline=220.0f_Vin=1_0_1_0_0_Vout.csv'
p698
s((S'16.0'
S'2.4n'
S'4.6p'
tS'3.0p'
g3
g4
I10
S'5.0'
S'10100'
tp699
S'../data/transmission_line_10_dropoffs/MultidropTransient\\tran_Cdrp=3.0p_Rterm=sqrt(Lline_Cline)_Lenline=5.0_Rline=16.0_Lline=2.4n_Cline=4.6p_Vin=1_0_1_0_0_Vout.csv'
p700
s((S'1.2'
S'2.4n'
S'4.6p'
tS'3.0p'
g3
g9
I10
S'5.0'
S'10100'
tp701
S'../data/transmission_line_10_dropoffs/MultidropBode\\ac_Cdrp=3.0p_Rterm=sqrt(Lline_Cline)_Lenline=5.0_Rline=1.2_Lline=2.4n_Cline=4.6p_Vin=1_0_1_0_0_Vout.csv'
p702
s((S'20.0m'
S'79.0p'
S'220.0f'
tS'1.0p'
g3
g4
I10
S'1.0'
S'00000'
tp703
S'../data/transmission_line_10_dropoffs/MultidropTransient\\tran_Cdrp=1.0p_Rterm=sqrt(Lline_Cline)_Lenline=1.0_Rline=20.0m_Lline=79.0p_Cline=220.0f_Vin=0_0_0_0_0_Vout.csv'
p704
s((S'9.0'
S'2.4n'
S'4.6p'
tS'1.0p'
g3
g4
I10
S'5.0'
S'10100'
tp705
S'../data/transmission_line_10_dropoffs/MultidropTransient\\tran_Cdrp=1.0p_Rterm=sqrt(Lline_Cline)_Lenline=5.0_Rline=9.0_Lline=2.4n_Cline=4.6p_Vin=1_0_1_0_0_Vout.csv'
p706
s((S'3.0'
S'4.0n'
S'9.0p'
tS'3.0p'
g3
g4
I10
S'5.0'
S'10101'
tp707
S'../data/transmission_line_10_dropoffs/MultidropTransient\\tran_Cdrp=3.0p_Rterm=sqrt(Lline_Cline)_Lenline=5.0_Rline=3.0_Lline=4.0n_Cline=9.0p_Vin=1_0_1_0_1_Vout.csv'
p708
s((S'1.2'
S'2.4n'
S'4.6p'
tS'3.0p'
g3
g4
I10
S'5.0'
S'10100'
tp709
S'../data/transmission_line_10_dropoffs/MultidropTransient\\tran_Cdrp=3.0p_Rterm=sqrt(Lline_Cline)_Lenline=5.0_Rline=1.2_Lline=2.4n_Cline=4.6p_Vin=1_0_1_0_0_Vout.csv'
p710
s((S'8.0'
S'3.5n'
S'5.8p'
tS'3.0p'
g3
g9
I10
S'5.0'
S'10100'
tp711
S'../data/transmission_line_10_dropoffs/MultidropBode\\ac_Cdrp=3.0p_Rterm=sqrt(Lline_Cline)_Lenline=5.0_Rline=8.0_Lline=3.5n_Cline=5.8p_Vin=1_0_1_0_0_Vout.csv'
p712
s((S'420.0m'
S'1.0n'
S'2.3p'
tS'2.0p'
g3
g4
I14
S'4.0'
S'00000'
tp713
S'../data/transmission_line_14_dropoffs/MultidropTransient\\tran_Cdrp=2.0p_Rterm=sqrt(Lline_Cline)_Lenline=4.0_Rline=420.0m_Lline=1.0n_Cline=2.3p_Vin=0_0_0_0_0_Vout.csv'
p714
s((S'1.6'
S'79.0p'
S'220.0f'
tS'3.0p'
g3
g4
I10
S'5.0'
S'10101'
tp715
S'../data/transmission_line_10_dropoffs/MultidropTransient\\tran_Cdrp=3.0p_Rterm=sqrt(Lline_Cline)_Lenline=5.0_Rline=1.6_Lline=79.0p_Cline=220.0f_Vin=1_0_1_0_1_Vout.csv'
p716
s((S'14.0'
S'2.4n'
S'4.6p'
tS'3.0p'
g3
g4
I10
S'5.0'
S'10101'
tp717
S'../data/transmission_line_10_dropoffs/MultidropTransient\\tran_Cdrp=3.0p_Rterm=sqrt(Lline_Cline)_Lenline=5.0_Rline=14.0_Lline=2.4n_Cline=4.6p_Vin=1_0_1_0_1_Vout.csv'
p718
s((S'5.0'
S'2.4n'
S'4.6p'
tS'1.0p'
g3
g4
I10
S'5.0'
S'10100'
tp719
S'../data/transmission_line_10_dropoffs/MultidropTransient\\tran_Cdrp=1.0p_Rterm=sqrt(Lline_Cline)_Lenline=5.0_Rline=5.0_Lline=2.4n_Cline=4.6p_Vin=1_0_1_0_0_Vout.csv'
p720
s((S'14.0'
S'2.4n'
S'4.6p'
tS'1.0p'
g3
g4
I10
S'5.0'
S'10100'
tp721
S'../data/transmission_line_10_dropoffs/MultidropTransient\\tran_Cdrp=1.0p_Rterm=sqrt(Lline_Cline)_Lenline=5.0_Rline=14.0_Lline=2.4n_Cline=4.6p_Vin=1_0_1_0_0_Vout.csv'
p722
s((S'1.6'
S'2.4n'
S'4.6p'
tS'3.0p'
g3
g4
I10
S'5.0'
S'10100'
tp723
S'../data/transmission_line_10_dropoffs/MultidropTransient\\tran_Cdrp=3.0p_Rterm=sqrt(Lline_Cline)_Lenline=5.0_Rline=1.6_Lline=2.4n_Cline=4.6p_Vin=1_0_1_0_0_Vout.csv'
p724
s((S'1.0'
S'4.0n'
S'9.0p'
tS'3.0p'
g3
g9
I10
S'5.0'
S'10101'
tp725
S'../data/transmission_line_10_dropoffs/MultidropBode\\ac_Cdrp=3.0p_Rterm=sqrt(Lline_Cline)_Lenline=5.0_Rline=1.0_Lline=4.0n_Cline=9.0p_Vin=1_0_1_0_1_Vout.csv'
p726
s((S'12.0'
S'2.4n'
S'4.6p'
tS'1.0p'
g3
g9
I10
S'5.0'
S'10100'
tp727
S'../data/transmission_line_10_dropoffs/MultidropBode\\ac_Cdrp=1.0p_Rterm=sqrt(Lline_Cline)_Lenline=5.0_Rline=12.0_Lline=2.4n_Cline=4.6p_Vin=1_0_1_0_0_Vout.csv'
p728
s((S'9.0'
S'4.0n'
S'9.0p'
tS'3.0p'
g3
g9
I10
S'5.0'
S'10101'
tp729
S'../data/transmission_line_10_dropoffs/MultidropBode\\ac_Cdrp=3.0p_Rterm=sqrt(Lline_Cline)_Lenline=5.0_Rline=9.0_Lline=4.0n_Cline=9.0p_Vin=1_0_1_0_1_Vout.csv'
p730
s((S'10.0'
S'79.0p'
S'220.0f'
tS'3.0p'
g3
g4
I10
S'5.0'
S'10101'
tp731
S'../data/transmission_line_10_dropoffs/MultidropTransient\\tran_Cdrp=3.0p_Rterm=sqrt(Lline_Cline)_Lenline=5.0_Rline=10.0_Lline=79.0p_Cline=220.0f_Vin=1_0_1_0_1_Vout.csv'
p732
s((S'420.0m'
S'1.7n'
S'11.2p'
tS'3.0p'
g3
g4
I10
S'5.0'
S'10101'
tp733
S'../data/transmission_line_10_dropoffs/MultidropTransient\\tran_Cdrp=3.0p_Rterm=sqrt(Lline_Cline)_Lenline=5.0_Rline=420.0m_Lline=1.7n_Cline=11.2p_Vin=1_0_1_0_1_Vout.csv'
p734
s((S'20.0m'
S'2.4n'
S'4.6p'
tS'1.0p'
g3
g4
I10
S'5.0'
S'10100'
tp735
S'../data/transmission_line_10_dropoffs/MultidropTransient\\tran_Cdrp=1.0p_Rterm=sqrt(Lline_Cline)_Lenline=5.0_Rline=20.0m_Lline=2.4n_Cline=4.6p_Vin=1_0_1_0_0_Vout.csv'
p736
s((S'13.0'
S'4.0n'
S'9.0p'
tS'3.0p'
g3
g4
I10
S'5.0'
S'10101'
tp737
S'../data/transmission_line_10_dropoffs/MultidropTransient\\tran_Cdrp=3.0p_Rterm=sqrt(Lline_Cline)_Lenline=5.0_Rline=13.0_Lline=4.0n_Cline=9.0p_Vin=1_0_1_0_1_Vout.csv'
p738
s((S'4.0'
S'2.4n'
S'220.0f'
tS'3.0p'
g3
g4
I10
S'5.0'
S'10100'
tp739
S'../data/transmission_line_10_dropoffs/MultidropTransient\\tran_Cdrp=3.0p_Rterm=sqrt(Lline_Cline)_Lenline=5.0_Rline=4.0_Lline=2.4n_Cline=220.0f_Vin=1_0_1_0_0_Vout.csv'
p740
s((S'18.0'
S'79.0p'
S'220.0f'
tS'1.0p'
g3
g9
I10
S'1.0'
S'10000'
tp741
S'../data/transmission_line_10_dropoffs/MultidropBode\\ac_Cdrp=1.0p_Rterm=sqrt(Lline_Cline)_Lenline=1.0_Rline=18.0_Lline=79.0p_Cline=220.0f_Vin=1_0_0_0_0_Vout.csv'
p742
s((S'1.6'
S'2.4n'
S'4.6p'
tS'3.0p'
g3
g9
I10
S'5.0'
S'10100'
tp743
S'../data/transmission_line_10_dropoffs/MultidropBode\\ac_Cdrp=3.0p_Rterm=sqrt(Lline_Cline)_Lenline=5.0_Rline=1.6_Lline=2.4n_Cline=4.6p_Vin=1_0_1_0_0_Vout.csv'
p744
s((S'1.0'
S'4.0n'
S'9.0p'
tS'3.0p'
g3
g4
I10
S'5.0'
S'10101'
tp745
S'../data/transmission_line_10_dropoffs/MultidropTransient\\tran_Cdrp=3.0p_Rterm=sqrt(Lline_Cline)_Lenline=5.0_Rline=1.0_Lline=4.0n_Cline=9.0p_Vin=1_0_1_0_1_Vout.csv'
p746
s((S'13.0'
S'79.0p'
S'220.0f'
tS'3.0p'
g3
g9
I10
S'5.0'
S'10101'
tp747
S'../data/transmission_line_10_dropoffs/MultidropBode\\ac_Cdrp=3.0p_Rterm=sqrt(Lline_Cline)_Lenline=5.0_Rline=13.0_Lline=79.0p_Cline=220.0f_Vin=1_0_1_0_1_Vout.csv'
p748
s((S'8.0'
S'2.4n'
S'4.6p'
tS'3.0p'
g3
g4
I10
S'5.0'
S'10100'
tp749
S'../data/transmission_line_10_dropoffs/MultidropTransient\\tran_Cdrp=3.0p_Rterm=sqrt(Lline_Cline)_Lenline=5.0_Rline=8.0_Lline=2.4n_Cline=4.6p_Vin=1_0_1_0_0_Vout.csv'
p750
s((S'12.0'
S'2.4n'
S'4.6p'
tS'3.0p'
g3
g4
I10
S'5.0'
S'10101'
tp751
S'../data/transmission_line_10_dropoffs/MultidropTransient\\tran_Cdrp=3.0p_Rterm=sqrt(Lline_Cline)_Lenline=5.0_Rline=12.0_Lline=2.4n_Cline=4.6p_Vin=1_0_1_0_1_Vout.csv'
p752
s((S'4.0'
S'3.5n'
S'5.8p'
tS'3.0p'
g3
g9
I10
S'5.0'
S'10100'
tp753
S'../data/transmission_line_10_dropoffs/MultidropBode\\ac_Cdrp=3.0p_Rterm=sqrt(Lline_Cline)_Lenline=5.0_Rline=4.0_Lline=3.5n_Cline=5.8p_Vin=1_0_1_0_0_Vout.csv'
p754
s((S'1.8'
S'2.4n'
S'4.6p'
tS'3.0p'
g3
g9
I10
S'5.0'
S'10100'
tp755
S'../data/transmission_line_10_dropoffs/MultidropBode\\ac_Cdrp=3.0p_Rterm=sqrt(Lline_Cline)_Lenline=5.0_Rline=1.8_Lline=2.4n_Cline=4.6p_Vin=1_0_1_0_0_Vout.csv'
p756
s((S'1.2'
S'2.4n'
S'4.6p'
tS'1.0p'
g3
g4
I10
S'5.0'
S'10100'
tp757
S'../data/transmission_line_10_dropoffs/MultidropTransient\\tran_Cdrp=1.0p_Rterm=sqrt(Lline_Cline)_Lenline=5.0_Rline=1.2_Lline=2.4n_Cline=4.6p_Vin=1_0_1_0_0_Vout.csv'
p758
s((S'4.0'
S'79.0p'
S'220.0f'
tS'3.0p'
g3
g9
I10
S'5.0'
S'10101'
tp759
S'../data/transmission_line_10_dropoffs/MultidropBode\\ac_Cdrp=3.0p_Rterm=sqrt(Lline_Cline)_Lenline=5.0_Rline=4.0_Lline=79.0p_Cline=220.0f_Vin=1_0_1_0_1_Vout.csv'
p760
s((S'6.0'
S'3.5n'
S'5.8p'
tS'3.0p'
g3
g4
I10
S'5.0'
S'10100'
tp761
S'../data/transmission_line_10_dropoffs/MultidropTransient\\tran_Cdrp=3.0p_Rterm=sqrt(Lline_Cline)_Lenline=5.0_Rline=6.0_Lline=3.5n_Cline=5.8p_Vin=1_0_1_0_0_Vout.csv'
p762
s((S'1.8'
S'4.0n'
S'9.0p'
tS'3.0p'
g3
g9
I10
S'5.0'
S'10101'
tp763
S'../data/transmission_line_10_dropoffs/MultidropBode\\ac_Cdrp=3.0p_Rterm=sqrt(Lline_Cline)_Lenline=5.0_Rline=1.8_Lline=4.0n_Cline=9.0p_Vin=1_0_1_0_1_Vout.csv'
p764
s((S'1.2'
S'2.4n'
S'4.6p'
tS'3.0p'
g3
g4
I10
S'5.0'
S'10101'
tp765
S'../data/transmission_line_10_dropoffs/MultidropTransient\\tran_Cdrp=3.0p_Rterm=sqrt(Lline_Cline)_Lenline=5.0_Rline=1.2_Lline=2.4n_Cline=4.6p_Vin=1_0_1_0_1_Vout.csv'
p766
s((S'620.0m'
S'2.4n'
S'4.6p'
tS'3.0p'
g3
g9
I10
S'5.0'
S'10100'
tp767
S'../data/transmission_line_10_dropoffs/MultidropBode\\ac_Cdrp=3.0p_Rterm=sqrt(Lline_Cline)_Lenline=5.0_Rline=620.0m_Lline=2.4n_Cline=4.6p_Vin=1_0_1_0_0_Vout.csv'
p768
s((S'14.0'
S'2.4n'
S'220.0f'
tS'3.0p'
g3
g4
I10
S'5.0'
S'10100'
tp769
S'../data/transmission_line_10_dropoffs/MultidropTransient\\tran_Cdrp=3.0p_Rterm=sqrt(Lline_Cline)_Lenline=5.0_Rline=14.0_Lline=2.4n_Cline=220.0f_Vin=1_0_1_0_0_Vout.csv'
p770
s((S'3.0'
S'4.0n'
S'9.0p'
tS'3.0p'
g3
g9
I10
S'5.0'
S'10101'
tp771
S'../data/transmission_line_10_dropoffs/MultidropBode\\ac_Cdrp=3.0p_Rterm=sqrt(Lline_Cline)_Lenline=5.0_Rline=3.0_Lline=4.0n_Cline=9.0p_Vin=1_0_1_0_1_Vout.csv'
p772
s((S'1.6'
S'2.4n'
S'4.6p'
tS'3.0p'
g3
g4
I10
S'5.0'
S'10101'
tp773
S'../data/transmission_line_10_dropoffs/MultidropTransient\\tran_Cdrp=3.0p_Rterm=sqrt(Lline_Cline)_Lenline=5.0_Rline=1.6_Lline=2.4n_Cline=4.6p_Vin=1_0_1_0_1_Vout.csv'
p774
s((S'17.0'
S'79.0p'
S'220.0f'
tS'1.0p'
g3
g4
I10
S'1.0'
S'10000'
tp775
S'../data/transmission_line_10_dropoffs/MultidropTransient\\tran_Cdrp=1.0p_Rterm=sqrt(Lline_Cline)_Lenline=1.0_Rline=17.0_Lline=79.0p_Cline=220.0f_Vin=1_0_0_0_0_Vout.csv'
p776
s((S'18.0'
S'2.4n'
S'4.6p'
tS'3.0p'
g3
g9
I10
S'5.0'
S'10100'
tp777
S'../data/transmission_line_10_dropoffs/MultidropBode\\ac_Cdrp=3.0p_Rterm=sqrt(Lline_Cline)_Lenline=5.0_Rline=18.0_Lline=2.4n_Cline=4.6p_Vin=1_0_1_0_0_Vout.csv'
p778
s((S'13.0'
S'2.4n'
S'4.6p'
tS'3.0p'
g3
g4
I10
S'5.0'
S'10100'
tp779
S'../data/transmission_line_10_dropoffs/MultidropTransient\\tran_Cdrp=3.0p_Rterm=sqrt(Lline_Cline)_Lenline=5.0_Rline=13.0_Lline=2.4n_Cline=4.6p_Vin=1_0_1_0_0_Vout.csv'
p780
s((S'20.0m'
S'2.4n'
S'4.6p'
tS'1.0p'
g3
g9
I10
S'5.0'
S'10100'
tp781
S'../data/transmission_line_10_dropoffs/MultidropBode\\ac_Cdrp=1.0p_Rterm=sqrt(Lline_Cline)_Lenline=5.0_Rline=20.0m_Lline=2.4n_Cline=4.6p_Vin=1_0_1_0_0_Vout.csv'
p782
s((S'820.0m'
S'2.4n'
S'4.6p'
tS'3.0p'
g3
g4
I10
S'5.0'
S'10101'
tp783
S'../data/transmission_line_10_dropoffs/MultidropTransient\\tran_Cdrp=3.0p_Rterm=sqrt(Lline_Cline)_Lenline=5.0_Rline=820.0m_Lline=2.4n_Cline=4.6p_Vin=1_0_1_0_1_Vout.csv'
p784
s((S'220.0m'
S'2.4n'
S'4.6p'
tS'3.0p'
S'Vin'
p785
g4
I10
S'5.0'
S'10100'
tp786
S'../data/transmission_line_10_dropoffs/MultidropTransient\\tran_Cdrp=3.0p_Rterm=sqrt(Lline_Cline)_Lenline=5.0_Rline=220.0m_Lline=2.4n_Cline=4.6p_Vin=1_0_1_0_0_Vm.csv'
p787
s((S'11.0'
S'2.4n'
S'4.6p'
tS'1.0p'
g3
g4
I10
S'5.0'
S'10100'
tp788
S'../data/transmission_line_10_dropoffs/MultidropTransient\\tran_Cdrp=1.0p_Rterm=sqrt(Lline_Cline)_Lenline=5.0_Rline=11.0_Lline=2.4n_Cline=4.6p_Vin=1_0_1_0_0_Vout.csv'
p789
s((S'6.0'
S'3.5n'
S'5.8p'
tS'3.0p'
g3
g9
I10
S'5.0'
S'10100'
tp790
S'../data/transmission_line_10_dropoffs/MultidropBode\\ac_Cdrp=3.0p_Rterm=sqrt(Lline_Cline)_Lenline=5.0_Rline=6.0_Lline=3.5n_Cline=5.8p_Vin=1_0_1_0_0_Vout.csv'
p791
s((S'6.0'
S'79.0p'
S'220.0f'
tS'3.0p'
g3
g9
I10
S'5.0'
S'10101'
tp792
S'../data/transmission_line_10_dropoffs/MultidropBode\\ac_Cdrp=3.0p_Rterm=sqrt(Lline_Cline)_Lenline=5.0_Rline=6.0_Lline=79.0p_Cline=220.0f_Vin=1_0_1_0_1_Vout.csv'
p793
s((S'10.0'
S'2.4n'
S'220.0f'
tS'3.0p'
g3
g4
I10
S'5.0'
S'10100'
tp794
S'../data/transmission_line_10_dropoffs/MultidropTransient\\tran_Cdrp=3.0p_Rterm=sqrt(Lline_Cline)_Lenline=5.0_Rline=10.0_Lline=2.4n_Cline=220.0f_Vin=1_0_1_0_0_Vout.csv'
p795
s((S'1.4'
S'2.4n'
S'220.0f'
tS'3.0p'
g3
g4
I10
S'5.0'
S'10100'
tp796
S'../data/transmission_line_10_dropoffs/MultidropTransient\\tran_Cdrp=3.0p_Rterm=sqrt(Lline_Cline)_Lenline=5.0_Rline=1.4_Lline=2.4n_Cline=220.0f_Vin=1_0_1_0_0_Vout.csv'
p797
s((S'12.0'
S'2.4n'
S'4.6p'
tS'3.0p'
g3
g4
I10
S'5.0'
S'10100'
tp798
S'../data/transmission_line_10_dropoffs/MultidropTransient\\tran_Cdrp=3.0p_Rterm=sqrt(Lline_Cline)_Lenline=5.0_Rline=12.0_Lline=2.4n_Cline=4.6p_Vin=1_0_1_0_0_Vout.csv'
p799
s((S'1.0'
S'2.4n'
S'4.6p'
tS'3.0p'
g3
g9
I10
S'5.0'
S'10101'
tp800
S'../data/transmission_line_10_dropoffs/MultidropBode\\ac_Cdrp=3.0p_Rterm=sqrt(Lline_Cline)_Lenline=5.0_Rline=1.0_Lline=2.4n_Cline=4.6p_Vin=1_0_1_0_1_Vout.csv'
p801
s((S'11.0'
S'2.4n'
S'4.6p'
tS'1.0p'
g3
g9
I10
S'5.0'
S'10100'
tp802
S'../data/transmission_line_10_dropoffs/MultidropBode\\ac_Cdrp=1.0p_Rterm=sqrt(Lline_Cline)_Lenline=5.0_Rline=11.0_Lline=2.4n_Cline=4.6p_Vin=1_0_1_0_0_Vout.csv'
p803
s((S'1.4'
S'2.4n'
S'220.0f'
tS'3.0p'
g3
g9
I10
S'5.0'
S'10100'
tp804
S'../data/transmission_line_10_dropoffs/MultidropBode\\ac_Cdrp=3.0p_Rterm=sqrt(Lline_Cline)_Lenline=5.0_Rline=1.4_Lline=2.4n_Cline=220.0f_Vin=1_0_1_0_0_Vout.csv'
p805
s((S'1.0'
S'2.4n'
S'220.0f'
tS'3.0p'
g3
g4
I10
S'5.0'
S'10100'
tp806
S'../data/transmission_line_10_dropoffs/MultidropTransient\\tran_Cdrp=3.0p_Rterm=sqrt(Lline_Cline)_Lenline=5.0_Rline=1.0_Lline=2.4n_Cline=220.0f_Vin=1_0_1_0_0_Vout.csv'
p807
s((S'15.0'
S'2.4n'
S'220.0f'
tS'3.0p'
g3
g4
I10
S'5.0'
S'10100'
tp808
S'../data/transmission_line_10_dropoffs/MultidropTransient\\tran_Cdrp=3.0p_Rterm=sqrt(Lline_Cline)_Lenline=5.0_Rline=15.0_Lline=2.4n_Cline=220.0f_Vin=1_0_1_0_0_Vout.csv'
p809
s((S'16.0'
S'79.0p'
S'220.0f'
tS'3.0p'
g3
g4
I10
S'5.0'
S'10101'
tp810
S'../data/transmission_line_10_dropoffs/MultidropTransient\\tran_Cdrp=3.0p_Rterm=sqrt(Lline_Cline)_Lenline=5.0_Rline=16.0_Lline=79.0p_Cline=220.0f_Vin=1_0_1_0_1_Vout.csv'
p811
s((S'220.0m'
S'79.0p'
S'220.0f'
tS'3.0p'
g3
g4
I10
S'5.0'
S'10101'
tp812
S'../data/transmission_line_10_dropoffs/MultidropTransient\\tran_Cdrp=3.0p_Rterm=sqrt(Lline_Cline)_Lenline=5.0_Rline=220.0m_Lline=79.0p_Cline=220.0f_Vin=1_0_1_0_1_Vout.csv'
p813
s((S'620.0m'
S'2.4n'
S'4.6p'
tS'3.0p'
g3
g9
I10
S'5.0'
S'10101'
tp814
S'../data/transmission_line_10_dropoffs/MultidropBode\\ac_Cdrp=3.0p_Rterm=sqrt(Lline_Cline)_Lenline=5.0_Rline=620.0m_Lline=2.4n_Cline=4.6p_Vin=1_0_1_0_1_Vout.csv'
p815
s((S'1.2'
S'2.4n'
S'220.0f'
tS'3.0p'
g3
g9
I10
S'5.0'
S'10100'
tp816
S'../data/transmission_line_10_dropoffs/MultidropBode\\ac_Cdrp=3.0p_Rterm=sqrt(Lline_Cline)_Lenline=5.0_Rline=1.2_Lline=2.4n_Cline=220.0f_Vin=1_0_1_0_0_Vout.csv'
p817
s((S'620.0m'
S'79.0p'
S'220.0f'
tS'3.0p'
g3
g9
I10
S'5.0'
S'10101'
tp818
S'../data/transmission_line_10_dropoffs/MultidropBode\\ac_Cdrp=3.0p_Rterm=sqrt(Lline_Cline)_Lenline=5.0_Rline=620.0m_Lline=79.0p_Cline=220.0f_Vin=1_0_1_0_1_Vout.csv'
p819
s((S'820.0m'
S'4.0n'
S'9.0p'
tS'3.0p'
g3
g4
I10
S'5.0'
S'10101'
tp820
S'../data/transmission_line_10_dropoffs/MultidropTransient\\tran_Cdrp=3.0p_Rterm=sqrt(Lline_Cline)_Lenline=5.0_Rline=820.0m_Lline=4.0n_Cline=9.0p_Vin=1_0_1_0_1_Vout.csv'
p821
s((S'220.0m'
S'3.5n'
S'5.8p'
tS'3.0p'
g3
g4
I10
S'5.0'
S'10100'
tp822
S'../data/transmission_line_10_dropoffs/MultidropTransient\\tran_Cdrp=3.0p_Rterm=sqrt(Lline_Cline)_Lenline=5.0_Rline=220.0m_Lline=3.5n_Cline=5.8p_Vin=1_0_1_0_0_Vout.csv'
p823
s((S'1.4'
S'79.0p'
S'220.0f'
tS'3.0p'
g3
g9
I10
S'5.0'
S'10101'
tp824
S'../data/transmission_line_10_dropoffs/MultidropBode\\ac_Cdrp=3.0p_Rterm=sqrt(Lline_Cline)_Lenline=5.0_Rline=1.4_Lline=79.0p_Cline=220.0f_Vin=1_0_1_0_1_Vout.csv'
p825
s((S'420.0m'
S'5.6n'
S'11.2p'
tS'3.0p'
g3
g4
I10
S'5.0'
S'10101'
tp826
S'../data/transmission_line_10_dropoffs/MultidropTransient\\tran_Cdrp=3.0p_Rterm=sqrt(Lline_Cline)_Lenline=5.0_Rline=420.0m_Lline=5.6n_Cline=11.2p_Vin=1_0_1_0_1_Vout.csv'
p827
s((S'18.0'
S'2.4n'
S'4.6p'
tS'3.0p'
g3
g9
I10
S'5.0'
S'10101'
tp828
S'../data/transmission_line_10_dropoffs/MultidropBode\\ac_Cdrp=3.0p_Rterm=sqrt(Lline_Cline)_Lenline=5.0_Rline=18.0_Lline=2.4n_Cline=4.6p_Vin=1_0_1_0_1_Vout.csv'
p829
s((S'14.0'
S'4.0n'
S'9.0p'
tS'3.0p'
g3
g9
I10
S'5.0'
S'10101'
tp830
S'../data/transmission_line_10_dropoffs/MultidropBode\\ac_Cdrp=3.0p_Rterm=sqrt(Lline_Cline)_Lenline=5.0_Rline=14.0_Lline=4.0n_Cline=9.0p_Vin=1_0_1_0_1_Vout.csv'
p831
s((S'13.0'
S'2.4n'
S'4.6p'
tS'3.0p'
g3
g4
I10
S'5.0'
S'10101'
tp832
S'../data/transmission_line_10_dropoffs/MultidropTransient\\tran_Cdrp=3.0p_Rterm=sqrt(Lline_Cline)_Lenline=5.0_Rline=13.0_Lline=2.4n_Cline=4.6p_Vin=1_0_1_0_1_Vout.csv'
p833
s((S'13.0'
S'2.4n'
S'220.0f'
tS'3.0p'
g3
g4
I10
S'5.0'
S'10100'
tp834
S'../data/transmission_line_10_dropoffs/MultidropTransient\\tran_Cdrp=3.0p_Rterm=sqrt(Lline_Cline)_Lenline=5.0_Rline=13.0_Lline=2.4n_Cline=220.0f_Vin=1_0_1_0_0_Vout.csv'
p835
s((S'9.0'
S'79.0p'
S'220.0f'
tS'3.0p'
g3
g4
I10
S'5.0'
S'10101'
tp836
S'../data/transmission_line_10_dropoffs/MultidropTransient\\tran_Cdrp=3.0p_Rterm=sqrt(Lline_Cline)_Lenline=5.0_Rline=9.0_Lline=79.0p_Cline=220.0f_Vin=1_0_1_0_1_Vout.csv'
p837
s((S'14.0'
S'79.0p'
S'220.0f'
tS'3.0p'
g3
g9
I10
S'5.0'
S'10101'
tp838
S'../data/transmission_line_10_dropoffs/MultidropBode\\ac_Cdrp=3.0p_Rterm=sqrt(Lline_Cline)_Lenline=5.0_Rline=14.0_Lline=79.0p_Cline=220.0f_Vin=1_0_1_0_1_Vout.csv'
p839
s((S'1.6'
S'2.4n'
S'220.0f'
tS'3.0p'
g3
g4
I10
S'5.0'
S'10100'
tp840
S'../data/transmission_line_10_dropoffs/MultidropTransient\\tran_Cdrp=3.0p_Rterm=sqrt(Lline_Cline)_Lenline=5.0_Rline=1.6_Lline=2.4n_Cline=220.0f_Vin=1_0_1_0_0_Vout.csv'
p841
s((S'5.0'
S'2.4n'
S'220.0f'
tS'3.0p'
g3
g4
I10
S'5.0'
S'10100'
tp842
S'../data/transmission_line_10_dropoffs/MultidropTransient\\tran_Cdrp=3.0p_Rterm=sqrt(Lline_Cline)_Lenline=5.0_Rline=5.0_Lline=2.4n_Cline=220.0f_Vin=1_0_1_0_0_Vout.csv'
p843
s((S'620.0m'
S'2.4n'
S'4.6p'
tS'1.0p'
g3
g4
I10
S'5.0'
S'10100'
tp844
S'../data/transmission_line_10_dropoffs/MultidropTransient\\tran_Cdrp=1.0p_Rterm=sqrt(Lline_Cline)_Lenline=5.0_Rline=620.0m_Lline=2.4n_Cline=4.6p_Vin=1_0_1_0_0_Vout.csv'
p845
s((S'18.0'
S'2.4n'
S'4.6p'
tS'1.0p'
g3
g4
I10
S'5.0'
S'10100'
tp846
S'../data/transmission_line_10_dropoffs/MultidropTransient\\tran_Cdrp=1.0p_Rterm=sqrt(Lline_Cline)_Lenline=5.0_Rline=18.0_Lline=2.4n_Cline=4.6p_Vin=1_0_1_0_0_Vout.csv'
p847
s((S'220.0m'
S'3.5n'
S'5.8p'
tS'3.0p'
g3
g9
I10
S'5.0'
S'10100'
tp848
S'../data/transmission_line_10_dropoffs/MultidropBode\\ac_Cdrp=3.0p_Rterm=sqrt(Lline_Cline)_Lenline=5.0_Rline=220.0m_Lline=3.5n_Cline=5.8p_Vin=1_0_1_0_0_Vout.csv'
p849
s((S'16.0'
S'2.4n'
S'220.0f'
tS'3.0p'
g3
g4
I10
S'5.0'
S'10100'
tp850
S'../data/transmission_line_10_dropoffs/MultidropTransient\\tran_Cdrp=3.0p_Rterm=sqrt(Lline_Cline)_Lenline=5.0_Rline=16.0_Lline=2.4n_Cline=220.0f_Vin=1_0_1_0_0_Vout.csv'
p851
s((S'820.0m'
S'4.0n'
S'9.0p'
tS'3.0p'
g3
g9
I10
S'5.0'
S'10101'
tp852
S'../data/transmission_line_10_dropoffs/MultidropBode\\ac_Cdrp=3.0p_Rterm=sqrt(Lline_Cline)_Lenline=5.0_Rline=820.0m_Lline=4.0n_Cline=9.0p_Vin=1_0_1_0_1_Vout.csv'
p853
s((S'19.0'
S'2.4n'
S'4.6p'
tS'3.0p'
g3
g9
I10
S'5.0'
S'10101'
tp854
S'../data/transmission_line_10_dropoffs/MultidropBode\\ac_Cdrp=3.0p_Rterm=sqrt(Lline_Cline)_Lenline=5.0_Rline=19.0_Lline=2.4n_Cline=4.6p_Vin=1_0_1_0_1_Vout.csv'
p855
s((S'1.2'
S'79.0p'
S'220.0f'
tS'3.0p'
g3
g9
I10
S'5.0'
S'10101'
tp856
S'../data/transmission_line_10_dropoffs/MultidropBode\\ac_Cdrp=3.0p_Rterm=sqrt(Lline_Cline)_Lenline=5.0_Rline=1.2_Lline=79.0p_Cline=220.0f_Vin=1_0_1_0_1_Vout.csv'
p857
s((S'820.0m'
S'79.0p'
S'220.0f'
tS'3.0p'
g3
g9
I10
S'5.0'
S'10101'
tp858
S'../data/transmission_line_10_dropoffs/MultidropBode\\ac_Cdrp=3.0p_Rterm=sqrt(Lline_Cline)_Lenline=5.0_Rline=820.0m_Lline=79.0p_Cline=220.0f_Vin=1_0_1_0_1_Vout.csv'
p859
s((S'1.0'
S'2.4n'
S'4.6p'
tS'3.0p'
g3
g9
I10
S'5.0'
S'10100'
tp860
S'../data/transmission_line_10_dropoffs/MultidropBode\\ac_Cdrp=3.0p_Rterm=sqrt(Lline_Cline)_Lenline=5.0_Rline=1.0_Lline=2.4n_Cline=4.6p_Vin=1_0_1_0_0_Vout.csv'
p861
s((S'13.0'
S'79.0p'
S'220.0f'
tS'1.0p'
g3
g9
I10
S'1.0'
S'10000'
tp862
S'../data/transmission_line_10_dropoffs/MultidropBode\\ac_Cdrp=1.0p_Rterm=sqrt(Lline_Cline)_Lenline=1.0_Rline=13.0_Lline=79.0p_Cline=220.0f_Vin=1_0_0_0_0_Vout.csv'
p863
s((S'3.0'
S'79.0p'
S'220.0f'
tS'3.0p'
g3
g9
I10
S'5.0'
S'10101'
tp864
S'../data/transmission_line_10_dropoffs/MultidropBode\\ac_Cdrp=3.0p_Rterm=sqrt(Lline_Cline)_Lenline=5.0_Rline=3.0_Lline=79.0p_Cline=220.0f_Vin=1_0_1_0_1_Vout.csv'
p865
s((S'4.0'
S'4.0n'
S'9.0p'
tS'3.0p'
g3
g9
I10
S'5.0'
S'10101'
tp866
S'../data/transmission_line_10_dropoffs/MultidropBode\\ac_Cdrp=3.0p_Rterm=sqrt(Lline_Cline)_Lenline=5.0_Rline=4.0_Lline=4.0n_Cline=9.0p_Vin=1_0_1_0_1_Vout.csv'
p867
s((S'7.0'
S'79.0p'
S'220.0f'
tS'3.0p'
g3
g9
I10
S'5.0'
S'10101'
tp868
S'../data/transmission_line_10_dropoffs/MultidropBode\\ac_Cdrp=3.0p_Rterm=sqrt(Lline_Cline)_Lenline=5.0_Rline=7.0_Lline=79.0p_Cline=220.0f_Vin=1_0_1_0_1_Vout.csv'
p869
s((S'10.0'
S'4.0n'
S'9.0p'
tS'3.0p'
g3
g4
I10
S'5.0'
S'10101'
tp870
S'../data/transmission_line_10_dropoffs/MultidropTransient\\tran_Cdrp=3.0p_Rterm=sqrt(Lline_Cline)_Lenline=5.0_Rline=10.0_Lline=4.0n_Cline=9.0p_Vin=1_0_1_0_1_Vout.csv'
p871
s((S'12.0'
S'2.4n'
S'4.6p'
tS'3.0p'
g3
g9
I10
S'5.0'
S'10100'
tp872
S'../data/transmission_line_10_dropoffs/MultidropBode\\ac_Cdrp=3.0p_Rterm=sqrt(Lline_Cline)_Lenline=5.0_Rline=12.0_Lline=2.4n_Cline=4.6p_Vin=1_0_1_0_0_Vout.csv'
p873
s((S'14.0'
S'3.5n'
S'5.8p'
tS'3.0p'
g3
g4
I10
S'5.0'
S'10100'
tp874
S'../data/transmission_line_10_dropoffs/MultidropTransient\\tran_Cdrp=3.0p_Rterm=sqrt(Lline_Cline)_Lenline=5.0_Rline=14.0_Lline=3.5n_Cline=5.8p_Vin=1_0_1_0_0_Vout.csv'
p875
s((S'20.0m'
S'79.0p'
S'220.0f'
tS'3.0p'
g3
g9
I10
S'5.0'
S'01111'
tp876
S'../data/transmission_line_10_dropoffs/MultidropBode\\ac_Cdrp=3.0p_Rterm=sqrt(Lline_Cline)_Lenline=5.0_Rline=20.0m_Lline=79.0p_Cline=220.0f_Vin=0_1_1_1_1_Vout.csv'
p877
s((S'7.0'
S'4.0n'
S'9.0p'
tS'3.0p'
g3
g4
I10
S'5.0'
S'10101'
tp878
S'../data/transmission_line_10_dropoffs/MultidropTransient\\tran_Cdrp=3.0p_Rterm=sqrt(Lline_Cline)_Lenline=5.0_Rline=7.0_Lline=4.0n_Cline=9.0p_Vin=1_0_1_0_1_Vout.csv'
p879
s((S'3.0'
S'79.0p'
S'220.0f'
tS'3.0p'
g3
g4
I10
S'5.0'
S'10101'
tp880
S'../data/transmission_line_10_dropoffs/MultidropTransient\\tran_Cdrp=3.0p_Rterm=sqrt(Lline_Cline)_Lenline=5.0_Rline=3.0_Lline=79.0p_Cline=220.0f_Vin=1_0_1_0_1_Vout.csv'
p881
sa(lp882
cnumpy.core.multiarray
scalar
p883
(cnumpy
dtype
p884
(S'f8'
I0
I1
tRp885
(I3
S'<'
NNNI-1
I-1
I0
tbS'{\x14\xaeG\xe1z\x94?'
tRp886
ag883
(g885
S')\\\x8f\xc2\xf5(\xcc?'
tRp887
ag883
(g885
S'\xe2z\x14\xaeG\xe1\xda?'
tRp888
ag883
(g885
S'\xd8\xa3p=\n\xd7\xe3?'
tRp889
ag883
(g885
S'>\n\xd7\xa3p=\xea?'
tRp890
aa(lp891
g883
(g885
S'\x95\xd6&\xe8\x0b.\x01>'
tRp892
ag883
(g885
S'\x95\xd6&\xe8\x0b.\x11>'
tRp893
ag883
(g885
S'\xe0A:\xdc\x11\xc5\x19>'
tRp894
ag883
(g885
S'\x95\xd6&\xe8\x0b.!>'
tRp895
ag883
(g885
S':\x8c0\xe2\x8ey%>'
tRp896
ag883
(g885
S'\xdfA:\xdc\x11\xc5)>'
tRp897
ag883
(g885
S'\x85\xf7C\xd6\x94\x10.>'
tRp898
ag883
(g885
S'\x95\xd6&\xe8\x0b.1>'
tRp899
ag883
(g885
S'h\xb1+e\xcdS3>'
tRp900
ag883
(g885
S';\x8c0\xe2\x8ey5>'
tRp901
ag883
(g885
S'\rg5_P\x9f7>'
tRp902
ag883
(g885
S'\xe0A:\xdc\x11\xc59>'
tRp903
ag883
(g885
S'\xb3\x1c?Y\xd3\xea;>'
tRp904
ag883
(g885
S'\x85\xf7C\xd6\x94\x10>>'
tRp905
ag883
(g885
S',i\xa4)+\x1b@>'
tRp906
ag883
(g885
S'\x95\xd6&\xe8\x0b.A>'
tRp907
ag883
(g885
S'\xfeC\xa9\xa6\xec@B>'
tRp908
ag883
(g885
S'g\xb1+e\xcdSC>'
tRp909
ag883
(g885
S'\xd1\x1e\xae#\xaefD>'
tRp910
ag883
(g885
S':\x8c0\xe2\x8eyE>'
tRp911
ag883
(g885
S'\xa3\xf9\xb2\xa0o\x8cF>'
tRp912
aa(lp913
g883
(g885
S'\x82vIh\xc2%L='
tRp914
ag883
(g885
S'R\xa5R\xb5z\xaao='
tRp915
ag883
(g885
S'\x82vIh\xc2%|='
tRp916
ag883
(g885
S'.\xcd\xf4\xba#;\x84='
tRp917
ag883
(g885
S'\x1a\xdf\xc4Afc\x8a='
tRp918
ag883
(g885
S'\x83xJd\xd4E\x90='
tRp919
ag883
(g885
S'z\x81\xb2\xa7\xf5Y\x93='
tRp920
ag883
(g885
S'p\x8a\x1a\xeb\x16n\x96='
tRp921
ag883
(g885
S'f\x93\x82.8\x82\x99='
tRp922
ag883
(g885
S'\\\x9c\xeaqY\x96\x9c='
tRp923
ag883
(g885
S'R\xa5R\xb5z\xaa\x9f='
tRp924
ag883
(g885
S'$W]\xfcM_\xa1='
tRp925
ag883
(g885
S'\xa0[\x11\x9e^\xe9\xa2='
tRp926
ag883
(g885
S'\x1b`\xc5?os\xa4='
tRp927
ag883
(g885
S'\x96dy\xe1\x7f\xfd\xa5='
tRp928
aa.