(lp1
(dp2
((S'3.0p'
S'sqrt(Lline'
S'5.0'
tS'620.0m'
S'Vin'
p3
S'ac'
p4
I10
S'2.4n'
S'01'
tp5
S'../data/transmission_line_10_dropoffs/MultidropBode\\ac_Cdrp=3.0p_Rterm=sqrt(Lline_Cline)_Lenline=5.0_Rline=620.0m_Lline=2.4n_Cline=4.6p_Vin=1_0_1_0_1_Vout.csv'
p6
s((S'3.0p'
S'sqrt(Lline'
S'5.0'
tS'1.0'
g3
g4
I10
S'2.4n'
S'01'
tp7
S'../data/transmission_line_10_dropoffs/MultidropBode\\ac_Cdrp=3.0p_Rterm=sqrt(Lline_Cline)_Lenline=5.0_Rline=1.0_Lline=2.4n_Cline=4.6p_Vin=1_0_1_0_1_Vout.csv'
p8
s((S'3.0p'
S'sqrt(Lline'
S'5.0'
tS'13.0'
g3
S'tran'
p9
I10
S'2.4n'
S'01'
tp10
S'../data/transmission_line_10_dropoffs/MultidropTransient\\tran_Cdrp=3.0p_Rterm=sqrt(Lline_Cline)_Lenline=5.0_Rline=13.0_Lline=2.4n_Cline=4.6p_Vin=1_0_1_0_1_Vout.csv'
p11
s((S'3.0p'
S'sqrt(Lline'
S'5.0'
tS'7.0'
g3
g4
I10
S'2.4n'
S'01'
tp12
S'../data/transmission_line_10_dropoffs/MultidropBode\\ac_Cdrp=3.0p_Rterm=sqrt(Lline_Cline)_Lenline=5.0_Rline=7.0_Lline=2.4n_Cline=4.6p_Vin=1_0_1_0_1_Vout.csv'
p13
s((S'3.0p'
S'sqrt(Lline'
S'5.0'
tS'5.0'
g3
g4
I10
S'2.4n'
S'01'
tp14
S'../data/transmission_line_10_dropoffs/MultidropBode\\ac_Cdrp=3.0p_Rterm=sqrt(Lline_Cline)_Lenline=5.0_Rline=5.0_Lline=2.4n_Cline=4.6p_Vin=1_0_1_0_1_Vout.csv'
p15
s((S'3.0p'
S'sqrt(Lline'
S'5.0'
tS'4.0'
g3
g9
I10
S'2.4n'
S'01'
tp16
S'../data/transmission_line_10_dropoffs/MultidropTransient\\tran_Cdrp=3.0p_Rterm=sqrt(Lline_Cline)_Lenline=5.0_Rline=4.0_Lline=2.4n_Cline=4.6p_Vin=1_0_1_0_1_Vout.csv'
p17
s((S'3.0p'
S'sqrt(Lline'
S'5.0'
tS'19.0'
g3
g4
I10
S'2.4n'
S'01'
tp18
S'../data/transmission_line_10_dropoffs/MultidropBode\\ac_Cdrp=3.0p_Rterm=sqrt(Lline_Cline)_Lenline=5.0_Rline=19.0_Lline=2.4n_Cline=4.6p_Vin=1_0_1_0_1_Vout.csv'
p19
s((S'3.0p'
S'sqrt(Lline'
S'5.0'
tS'620.0m'
g3
g9
I10
S'2.4n'
S'01'
tp20
S'../data/transmission_line_10_dropoffs/MultidropTransient\\tran_Cdrp=3.0p_Rterm=sqrt(Lline_Cline)_Lenline=5.0_Rline=620.0m_Lline=2.4n_Cline=4.6p_Vin=1_0_1_0_1_Vout.csv'
p21
s((S'3.0p'
S'sqrt(Lline'
S'5.0'
tS'12.0'
g3
g9
I10
S'2.4n'
S'01'
tp22
S'../data/transmission_line_10_dropoffs/MultidropTransient\\tran_Cdrp=3.0p_Rterm=sqrt(Lline_Cline)_Lenline=5.0_Rline=12.0_Lline=2.4n_Cline=4.6p_Vin=1_0_1_0_1_Vout.csv'
p23
s((S'3.0p'
S'sqrt(Lline'
S'5.0'
tS'820.0m'
g3
g9
I10
S'2.4n'
S'01'
tp24
S'../data/transmission_line_10_dropoffs/MultidropTransient\\tran_Cdrp=3.0p_Rterm=sqrt(Lline_Cline)_Lenline=5.0_Rline=820.0m_Lline=2.4n_Cline=4.6p_Vin=1_0_1_0_1_Vout.csv'
p25
s((S'3.0p'
S'sqrt(Lline'
S'5.0'
tS'1.6'
g3
g4
I10
S'2.4n'
S'01'
tp26
S'../data/transmission_line_10_dropoffs/MultidropBode\\ac_Cdrp=3.0p_Rterm=sqrt(Lline_Cline)_Lenline=5.0_Rline=1.6_Lline=2.4n_Cline=4.6p_Vin=1_0_1_0_1_Vout.csv'
p27
s((S'3.0p'
S'sqrt(Lline'
S'5.0'
tS'1.0'
g3
g9
I10
S'2.4n'
S'01'
tp28
S'../data/transmission_line_10_dropoffs/MultidropTransient\\tran_Cdrp=3.0p_Rterm=sqrt(Lline_Cline)_Lenline=5.0_Rline=1.0_Lline=2.4n_Cline=4.6p_Vin=1_0_1_0_1_Vout.csv'
p29
s((S'3.0p'
S'sqrt(Lline'
S'5.0'
tS'6.0'
g3
g9
I10
S'2.4n'
S'01'
tp30
S'../data/transmission_line_10_dropoffs/MultidropTransient\\tran_Cdrp=3.0p_Rterm=sqrt(Lline_Cline)_Lenline=5.0_Rline=6.0_Lline=2.4n_Cline=4.6p_Vin=1_0_1_0_1_Vout.csv'
p31
s((S'3.0p'
S'sqrt(Lline'
S'5.0'
tS'8.0'
g3
g4
I10
S'2.4n'
S'01'
tp32
S'../data/transmission_line_10_dropoffs/MultidropBode\\ac_Cdrp=3.0p_Rterm=sqrt(Lline_Cline)_Lenline=5.0_Rline=8.0_Lline=2.4n_Cline=4.6p_Vin=1_0_1_0_1_Vout.csv'
p33
s((S'3.0p'
S'sqrt(Lline'
S'5.0'
tS'4.0'
g3
g4
I10
S'2.4n'
S'01'
tp34
S'../data/transmission_line_10_dropoffs/MultidropBode\\ac_Cdrp=3.0p_Rterm=sqrt(Lline_Cline)_Lenline=5.0_Rline=4.0_Lline=2.4n_Cline=4.6p_Vin=1_0_1_0_1_Vout.csv'
p35
s((S'3.0p'
S'sqrt(Lline'
S'5.0'
tS'19.0'
g3
g9
I10
S'2.4n'
S'01'
tp36
S'../data/transmission_line_10_dropoffs/MultidropTransient\\tran_Cdrp=3.0p_Rterm=sqrt(Lline_Cline)_Lenline=5.0_Rline=19.0_Lline=2.4n_Cline=4.6p_Vin=1_0_1_0_1_Vout.csv'
p37
s((S'3.0p'
S'sqrt(Lline'
S'5.0'
tS'3.0'
g3
g4
I10
S'2.4n'
S'01'
tp38
S'../data/transmission_line_10_dropoffs/MultidropBode\\ac_Cdrp=3.0p_Rterm=sqrt(Lline_Cline)_Lenline=5.0_Rline=3.0_Lline=2.4n_Cline=4.6p_Vin=1_0_1_0_1_Vout.csv'
p39
s((S'3.0p'
S'sqrt(Lline'
S'5.0'
tS'1.4'
g3
g4
I10
S'2.4n'
S'01'
tp40
S'../data/transmission_line_10_dropoffs/MultidropBode\\ac_Cdrp=3.0p_Rterm=sqrt(Lline_Cline)_Lenline=5.0_Rline=1.4_Lline=2.4n_Cline=4.6p_Vin=1_0_1_0_1_Vout.csv'
p41
s((S'3.0p'
S'sqrt(Lline'
S'5.0'
tS'8.0'
g3
g9
I10
S'2.4n'
S'01'
tp42
S'../data/transmission_line_10_dropoffs/MultidropTransient\\tran_Cdrp=3.0p_Rterm=sqrt(Lline_Cline)_Lenline=5.0_Rline=8.0_Lline=2.4n_Cline=4.6p_Vin=1_0_1_0_1_Vout.csv'
p43
s((S'3.0p'
S'sqrt(Lline'
S'5.0'
tS'13.0'
g3
g4
I10
S'2.4n'
S'01'
tp44
S'../data/transmission_line_10_dropoffs/MultidropBode\\ac_Cdrp=3.0p_Rterm=sqrt(Lline_Cline)_Lenline=5.0_Rline=13.0_Lline=2.4n_Cline=4.6p_Vin=1_0_1_0_1_Vout.csv'
p45
s((S'3.0p'
S'sqrt(Lline'
S'5.0'
tS'10.0'
g3
g9
I10
S'2.4n'
S'01'
tp46
S'../data/transmission_line_10_dropoffs/MultidropTransient\\tran_Cdrp=3.0p_Rterm=sqrt(Lline_Cline)_Lenline=5.0_Rline=10.0_Lline=2.4n_Cline=4.6p_Vin=1_0_1_0_1_Vout.csv'
p47
s((S'3.0p'
S'sqrt(Lline'
S'5.0'
tS'1.8'
g3
g9
I10
S'2.4n'
S'01'
tp48
S'../data/transmission_line_10_dropoffs/MultidropTransient\\tran_Cdrp=3.0p_Rterm=sqrt(Lline_Cline)_Lenline=5.0_Rline=1.8_Lline=2.4n_Cline=4.6p_Vin=1_0_1_0_1_Vout.csv'
p49
s((S'3.0p'
S'sqrt(Lline'
S'5.0'
tS'7.0'
g3
g9
I10
S'2.4n'
S'01'
tp50
S'../data/transmission_line_10_dropoffs/MultidropTransient\\tran_Cdrp=3.0p_Rterm=sqrt(Lline_Cline)_Lenline=5.0_Rline=7.0_Lline=2.4n_Cline=4.6p_Vin=1_0_1_0_1_Vout.csv'
p51
s((S'3.0p'
S'sqrt(Lline'
S'5.0'
tS'420.0m'
g3
g9
I10
S'2.4n'
S'01'
tp52
S'../data/transmission_line_10_dropoffs/MultidropTransient\\tran_Cdrp=3.0p_Rterm=sqrt(Lline_Cline)_Lenline=5.0_Rline=420.0m_Lline=2.4n_Cline=4.6p_Vin=1_0_1_0_1_Vout.csv'
p53
s((S'3.0p'
S'sqrt(Lline'
S'5.0'
tS'1.2'
g3
g9
I10
S'2.4n'
S'01'
tp54
S'../data/transmission_line_10_dropoffs/MultidropTransient\\tran_Cdrp=3.0p_Rterm=sqrt(Lline_Cline)_Lenline=5.0_Rline=1.2_Lline=2.4n_Cline=4.6p_Vin=1_0_1_0_1_Vout.csv'
p55
s((S'3.0p'
S'sqrt(Lline'
S'5.0'
tS'420.0m'
g3
g4
I10
S'2.4n'
S'01'
tp56
S'../data/transmission_line_10_dropoffs/MultidropBode\\ac_Cdrp=3.0p_Rterm=sqrt(Lline_Cline)_Lenline=5.0_Rline=420.0m_Lline=2.4n_Cline=4.6p_Vin=1_0_1_0_1_Vout.csv'
p57
s((S'3.0p'
S'sqrt(Lline'
S'5.0'
tS'16.0'
g3
g9
I10
S'2.4n'
S'01'
tp58
S'../data/transmission_line_10_dropoffs/MultidropTransient\\tran_Cdrp=3.0p_Rterm=sqrt(Lline_Cline)_Lenline=5.0_Rline=16.0_Lline=2.4n_Cline=4.6p_Vin=1_0_1_0_1_Vout.csv'
p59
s((S'3.0p'
S'sqrt(Lline'
S'5.0'
tS'11.0'
g3
g4
I10
S'2.4n'
S'01'
tp60
S'../data/transmission_line_10_dropoffs/MultidropBode\\ac_Cdrp=3.0p_Rterm=sqrt(Lline_Cline)_Lenline=5.0_Rline=11.0_Lline=2.4n_Cline=4.6p_Vin=1_0_1_0_1_Vout.csv'
p61
s((S'3.0p'
S'sqrt(Lline'
S'5.0'
tS'9.0'
g3
g9
I10
S'2.4n'
S'01'
tp62
S'../data/transmission_line_10_dropoffs/MultidropTransient\\tran_Cdrp=3.0p_Rterm=sqrt(Lline_Cline)_Lenline=5.0_Rline=9.0_Lline=2.4n_Cline=4.6p_Vin=1_0_1_0_1_Vout.csv'
p63
s((S'3.0p'
S'sqrt(Lline'
S'5.0'
tS'20.0m'
g3
g9
I10
S'2.4n'
S'01'
tp64
S'../data/transmission_line_10_dropoffs/MultidropTransient\\tran_Cdrp=3.0p_Rterm=sqrt(Lline_Cline)_Lenline=5.0_Rline=20.0m_Lline=2.4n_Cline=4.6p_Vin=1_0_1_0_1_Vout.csv'
p65
s((S'3.0p'
S'sqrt(Lline'
S'5.0'
tS'10.0'
g3
g4
I10
S'2.4n'
S'01'
tp66
S'../data/transmission_line_10_dropoffs/MultidropBode\\ac_Cdrp=3.0p_Rterm=sqrt(Lline_Cline)_Lenline=5.0_Rline=10.0_Lline=2.4n_Cline=4.6p_Vin=1_0_1_0_1_Vout.csv'
p67
s((S'3.0p'
S'sqrt(Lline'
S'5.0'
tS'820.0m'
g3
g4
I10
S'2.4n'
S'01'
tp68
S'../data/transmission_line_10_dropoffs/MultidropBode\\ac_Cdrp=3.0p_Rterm=sqrt(Lline_Cline)_Lenline=5.0_Rline=820.0m_Lline=2.4n_Cline=4.6p_Vin=1_0_1_0_1_Vout.csv'
p69
s((S'3.0p'
S'sqrt(Lline'
S'5.0'
tS'15.0'
g3
g4
I10
S'2.4n'
S'01'
tp70
S'../data/transmission_line_10_dropoffs/MultidropBode\\ac_Cdrp=3.0p_Rterm=sqrt(Lline_Cline)_Lenline=5.0_Rline=15.0_Lline=2.4n_Cline=4.6p_Vin=1_0_1_0_1_Vout.csv'
p71
s((S'3.0p'
S'sqrt(Lline'
S'5.0'
tS'220.0m'
g3
g9
I10
S'2.4n'
S'01'
tp72
S'../data/transmission_line_10_dropoffs/MultidropTransient\\tran_Cdrp=3.0p_Rterm=sqrt(Lline_Cline)_Lenline=5.0_Rline=220.0m_Lline=2.4n_Cline=4.6p_Vin=1_0_1_0_1_Vout.csv'
p73
s((S'3.0p'
S'sqrt(Lline'
S'5.0'
tS'14.0'
g3
g9
I10
S'2.4n'
S'01'
tp74
S'../data/transmission_line_10_dropoffs/MultidropTransient\\tran_Cdrp=3.0p_Rterm=sqrt(Lline_Cline)_Lenline=5.0_Rline=14.0_Lline=2.4n_Cline=4.6p_Vin=1_0_1_0_1_Vout.csv'
p75
s((S'3.0p'
S'sqrt(Lline'
S'5.0'
tS'16.0'
g3
g4
I10
S'2.4n'
S'01'
tp76
S'../data/transmission_line_10_dropoffs/MultidropBode\\ac_Cdrp=3.0p_Rterm=sqrt(Lline_Cline)_Lenline=5.0_Rline=16.0_Lline=2.4n_Cline=4.6p_Vin=1_0_1_0_1_Vout.csv'
p77
s((S'3.0p'
S'sqrt(Lline'
S'5.0'
tS'12.0'
g3
g4
I10
S'2.4n'
S'01'
tp78
S'../data/transmission_line_10_dropoffs/MultidropBode\\ac_Cdrp=3.0p_Rterm=sqrt(Lline_Cline)_Lenline=5.0_Rline=12.0_Lline=2.4n_Cline=4.6p_Vin=1_0_1_0_1_Vout.csv'
p79
s((S'3.0p'
S'sqrt(Lline'
S'5.0'
tS'20.0m'
g3
g4
I10
S'2.4n'
S'01'
tp80
S'../data/transmission_line_10_dropoffs/MultidropBode\\ac_Cdrp=3.0p_Rterm=sqrt(Lline_Cline)_Lenline=5.0_Rline=20.0m_Lline=2.4n_Cline=4.6p_Vin=1_0_1_0_1_Vout.csv'
p81
s((S'3.0p'
S'sqrt(Lline'
S'5.0'
tS'1.6'
g3
g9
I10
S'2.4n'
S'01'
tp82
S'../data/transmission_line_10_dropoffs/MultidropTransient\\tran_Cdrp=3.0p_Rterm=sqrt(Lline_Cline)_Lenline=5.0_Rline=1.6_Lline=2.4n_Cline=4.6p_Vin=1_0_1_0_1_Vout.csv'
p83
s((S'3.0p'
S'sqrt(Lline'
S'5.0'
tS'15.0'
g3
g9
I10
S'2.4n'
S'01'
tp84
S'../data/transmission_line_10_dropoffs/MultidropTransient\\tran_Cdrp=3.0p_Rterm=sqrt(Lline_Cline)_Lenline=5.0_Rline=15.0_Lline=2.4n_Cline=4.6p_Vin=1_0_1_0_1_Vout.csv'
p85
s((S'3.0p'
S'sqrt(Lline'
S'5.0'
tS'1.8'
g3
g4
I10
S'2.4n'
S'01'
tp86
S'../data/transmission_line_10_dropoffs/MultidropBode\\ac_Cdrp=3.0p_Rterm=sqrt(Lline_Cline)_Lenline=5.0_Rline=1.8_Lline=2.4n_Cline=4.6p_Vin=1_0_1_0_1_Vout.csv'
p87
s((S'3.0p'
S'sqrt(Lline'
S'5.0'
tS'14.0'
g3
g4
I10
S'2.4n'
S'01'
tp88
S'../data/transmission_line_10_dropoffs/MultidropBode\\ac_Cdrp=3.0p_Rterm=sqrt(Lline_Cline)_Lenline=5.0_Rline=14.0_Lline=2.4n_Cline=4.6p_Vin=1_0_1_0_1_Vout.csv'
p89
s((S'3.0p'
S'sqrt(Lline'
S'5.0'
tS'20.0m'
g3
g9
I10
S'79.0p'
S'01'
tp90
S'../data/transmission_line_10_dropoffs/MultidropTransient\\tran_Cdrp=3.0p_Rterm=sqrt(Lline_Cline)_Lenline=5.0_Rline=20.0m_Lline=79.0p_Cline=220.0f_Vin=1_0_1_0_1_Vout.csv'
p91
s((S'3.0p'
S'sqrt(Lline'
S'5.0'
tS'5.0'
g3
g9
I10
S'2.4n'
S'01'
tp92
S'../data/transmission_line_10_dropoffs/MultidropTransient\\tran_Cdrp=3.0p_Rterm=sqrt(Lline_Cline)_Lenline=5.0_Rline=5.0_Lline=2.4n_Cline=4.6p_Vin=1_0_1_0_1_Vout.csv'
p93
s((S'3.0p'
S'sqrt(Lline'
S'5.0'
tS'3.0'
g3
g9
I10
S'2.4n'
S'01'
tp94
S'../data/transmission_line_10_dropoffs/MultidropTransient\\tran_Cdrp=3.0p_Rterm=sqrt(Lline_Cline)_Lenline=5.0_Rline=3.0_Lline=2.4n_Cline=4.6p_Vin=1_0_1_0_1_Vout.csv'
p95
s((S'3.0p'
S'sqrt(Lline'
S'5.0'
tS'17.0'
g3
g4
I10
S'2.4n'
S'01'
tp96
S'../data/transmission_line_10_dropoffs/MultidropBode\\ac_Cdrp=3.0p_Rterm=sqrt(Lline_Cline)_Lenline=5.0_Rline=17.0_Lline=2.4n_Cline=4.6p_Vin=1_0_1_0_1_Vout.csv'
p97
s((S'3.0p'
S'sqrt(Lline'
S'5.0'
tS'17.0'
g3
g9
I10
S'2.4n'
S'01'
tp98
S'../data/transmission_line_10_dropoffs/MultidropTransient\\tran_Cdrp=3.0p_Rterm=sqrt(Lline_Cline)_Lenline=5.0_Rline=17.0_Lline=2.4n_Cline=4.6p_Vin=1_0_1_0_1_Vout.csv'
p99
s((S'3.0p'
S'sqrt(Lline'
S'5.0'
tS'6.0'
g3
g4
I10
S'2.4n'
S'01'
tp100
S'../data/transmission_line_10_dropoffs/MultidropBode\\ac_Cdrp=3.0p_Rterm=sqrt(Lline_Cline)_Lenline=5.0_Rline=6.0_Lline=2.4n_Cline=4.6p_Vin=1_0_1_0_1_Vout.csv'
p101
s((S'3.0p'
S'sqrt(Lline'
S'5.0'
tS'9.0'
g3
g4
I10
S'2.4n'
S'01'
tp102
S'../data/transmission_line_10_dropoffs/MultidropBode\\ac_Cdrp=3.0p_Rterm=sqrt(Lline_Cline)_Lenline=5.0_Rline=9.0_Lline=2.4n_Cline=4.6p_Vin=1_0_1_0_1_Vout.csv'
p103
s((S'3.0p'
S'sqrt(Lline'
S'5.0'
tS'11.0'
g3
g9
I10
S'2.4n'
S'01'
tp104
S'../data/transmission_line_10_dropoffs/MultidropTransient\\tran_Cdrp=3.0p_Rterm=sqrt(Lline_Cline)_Lenline=5.0_Rline=11.0_Lline=2.4n_Cline=4.6p_Vin=1_0_1_0_1_Vout.csv'
p105
s((S'3.0p'
S'sqrt(Lline'
S'5.0'
tS'220.0m'
g3
g4
I10
S'2.4n'
S'01'
tp106
S'../data/transmission_line_10_dropoffs/MultidropBode\\ac_Cdrp=3.0p_Rterm=sqrt(Lline_Cline)_Lenline=5.0_Rline=220.0m_Lline=2.4n_Cline=4.6p_Vin=1_0_1_0_1_Vout.csv'
p107
s((S'3.0p'
S'sqrt(Lline'
S'5.0'
tS'1.2'
g3
g4
I10
S'2.4n'
S'01'
tp108
S'../data/transmission_line_10_dropoffs/MultidropBode\\ac_Cdrp=3.0p_Rterm=sqrt(Lline_Cline)_Lenline=5.0_Rline=1.2_Lline=2.4n_Cline=4.6p_Vin=1_0_1_0_1_Vout.csv'
p109
s((S'3.0p'
S'sqrt(Lline'
S'5.0'
tS'18.0'
g3
g9
I10
S'2.4n'
S'01'
tp110
S'../data/transmission_line_10_dropoffs/MultidropTransient\\tran_Cdrp=3.0p_Rterm=sqrt(Lline_Cline)_Lenline=5.0_Rline=18.0_Lline=2.4n_Cline=4.6p_Vin=1_0_1_0_1_Vout.csv'
p111
s((S'3.0p'
S'sqrt(Lline'
S'5.0'
tS'18.0'
g3
g4
I10
S'2.4n'
S'01'
tp112
S'../data/transmission_line_10_dropoffs/MultidropBode\\ac_Cdrp=3.0p_Rterm=sqrt(Lline_Cline)_Lenline=5.0_Rline=18.0_Lline=2.4n_Cline=4.6p_Vin=1_0_1_0_1_Vout.csv'
p113
s((S'3.0p'
S'sqrt(Lline'
S'5.0'
tS'1.4'
g3
g9
I10
S'2.4n'
S'01'
tp114
S'../data/transmission_line_10_dropoffs/MultidropTransient\\tran_Cdrp=3.0p_Rterm=sqrt(Lline_Cline)_Lenline=5.0_Rline=1.4_Lline=2.4n_Cline=4.6p_Vin=1_0_1_0_1_Vout.csv'
p115
sa(lp116
cnumpy.core.multiarray
scalar
p117
(cnumpy
dtype
p118
(S'f8'
I0
I1
tRp119
(I3
S'<'
NNNI-1
I-1
I0
tbS'{\x14\xaeG\xe1z\x94?'
tRp120
ag117
(g119
S')\\\x8f\xc2\xf5(\xcc?'
tRp121
ag117
(g119
S'\xe2z\x14\xaeG\xe1\xda?'
tRp122
ag117
(g119
S'\xd8\xa3p=\n\xd7\xe3?'
tRp123
ag117
(g119
S'>\n\xd7\xa3p=\xea?'
tRp124
ag117
(g119
S'R\xb8\x1e\x85\xebQ\xf0?'
tRp125
ag117
(g119
S'\x86\xebQ\xb8\x1e\x85\xf3?'
tRp126
ag117
(g119
S'\xb9\x1e\x85\xebQ\xb8\xf6?'
tRp127
ag117
(g119
S'\xecQ\xb8\x1e\x85\xeb\xf9?'
tRp128
ag117
(g119
S'\x1f\x85\xebQ\xb8\x1e\xfd?'
tRp129
aa(lp130
g117
(g119
S'\xee\xact{!\xb7\xd5='
tRp131
ag117
(g119
S'\xc7m\xc0\t\xce\xdb\r>'
tRp132
ag117
(g119
S'\xf8"\t\xf2[\x80\x1c>'
tRp133
ag117
(g119
S'\x86\x07\x99oh\t%>'
tRp134
ag117
(g119
S'\x90}-\xe6\xa2\xd2+>'
tRp135
ag117
(g119
S'\xce\xf9`\xae\xeeM1>'
tRp136
ag117
(g119
S'\xd34\xab\xe9\x8b\xb24>'
tRp137
ag117
(g119
S'\xd8o\xf5$)\x178>'
tRp138
ag117
(g119
S'\xdd\xaa?`\xc6{;>'
tRp139
ag117
(g119
S'\xe2\xe5\x89\x9bc\xe0>>'
tRp140
aa(lp141
g117
(g119
S'\xf5\x9b\x1d\xd9U\xf6N='
tRp142
ag117
(g119
S'9[D\x05[I\x85='
tRp143
ag117
(g119
S'Zn{V\xa8Q\x94='
tRp144
ag117
(g119
S'\x17\xafT*\xa3\xfe\x9d='
tRp145
ag117
(g119
S'\xea\xf7\x16\xff\xce\xd5\xa3='
tRp146
ag117
(g119
S'H\x98\x03iL\xac\xa8='
tRp147
ag117
(g119
S'\xa78\xf0\xd2\xc9\x82\xad='
tRp148
ag117
(g119
S'\x83ln\x9e\xa3,\xb1='
tRp149
ag117
(g119
S'\xb2\xbcdS\xe2\x97\xb3='
tRp150
ag117
(g119
S'\xe1\x0c[\x08!\x03\xb6='
tRp151
aa.