(lp1
(dp2
((S'6.0'
S'2.4n'
S'4.6p'
tS'1.0p'
S'Vout'
p3
S'tran'
p4
I10
S'5.0'
S'10100'
tp5
S'../data/transmission_line_10_dropoffs/MultidropTransient\\tran_Cdrp=1.0p_Rterm=sqrt(Lline_Cline)_Lenline=5.0_Rline=6.0_Lline=2.4n_Cline=4.6p_Vin=1_0_1_0_0_Vout.csv'
p6
s((S'6.0'
S'4.0n'
S'9.0p'
tS'3.0p'
g3
g4
I10
S'5.0'
S'10101'
tp7
S'../data/transmission_line_10_dropoffs/MultidropTransient\\tran_Cdrp=3.0p_Rterm=sqrt(Lline_Cline)_Lenline=5.0_Rline=6.0_Lline=4.0n_Cline=9.0p_Vin=1_0_1_0_1_Vout.csv'
p8
s((S'5.0'
S'2.4n'
S'220.0f'
tS'3.0p'
g3
S'ac'
p9
I10
S'5.0'
S'10100'
tp10
S'../data/transmission_line_10_dropoffs/MultidropBode\\ac_Cdrp=3.0p_Rterm=sqrt(Lline_Cline)_Lenline=5.0_Rline=5.0_Lline=2.4n_Cline=220.0f_Vin=1_0_1_0_0_Vout.csv'
p11
s((S'15.0'
S'2.4n'
S'4.6p'
tS'3.0p'
g3
g9
I10
S'5.0'
S'10101'
tp12
S'../data/transmission_line_10_dropoffs/MultidropBode\\ac_Cdrp=3.0p_Rterm=sqrt(Lline_Cline)_Lenline=5.0_Rline=15.0_Lline=2.4n_Cline=4.6p_Vin=1_0_1_0_1_Vout.csv'
p13
s((S'9.0'
S'2.4n'
S'220.0f'
tS'3.0p'
g3
g9
I10
S'5.0'
S'10100'
tp14
S'../data/transmission_line_10_dropoffs/MultidropBode\\ac_Cdrp=3.0p_Rterm=sqrt(Lline_Cline)_Lenline=5.0_Rline=9.0_Lline=2.4n_Cline=220.0f_Vin=1_0_1_0_0_Vout.csv'
p15
s((S'14.0'
S'3.5n'
S'5.8p'
tS'3.0p'
g3
g9
I10
S'5.0'
S'10100'
tp16
S'..\\data\\transmission_line_10_dropoffs\\MultidropBode\\ac_Cdrp=3.0p_Rterm=sqrt(Lline_Cline)_Lenline=5.0_Rline=14.0_Lline=3.5n_Cline=5.8p_Vin=1_0_1_0_0_Vout.csv'
p17
s((S'220.0m'
S'2.4n'
S'220.0f'
tS'3.0p'
g3
g9
I10
S'5.0'
S'10100'
tp18
S'../data/transmission_line_10_dropoffs/MultidropBode\\ac_Cdrp=3.0p_Rterm=sqrt(Lline_Cline)_Lenline=5.0_Rline=220.0m_Lline=2.4n_Cline=220.0f_Vin=1_0_1_0_0_Vout.csv'
p19
s((S'19.0'
S'2.4n'
S'4.6p'
tS'1.0p'
g3
g9
I10
S'5.0'
S'10100'
tp20
S'../data/transmission_line_10_dropoffs/MultidropBode\\ac_Cdrp=1.0p_Rterm=sqrt(Lline_Cline)_Lenline=5.0_Rline=19.0_Lline=2.4n_Cline=4.6p_Vin=1_0_1_0_0_Vout.csv'
p21
s((S'9.0'
S'79.0p'
S'220.0f'
tS'3.0p'
g3
g9
I10
S'5.0'
S'10101'
tp22
S'../data/transmission_line_10_dropoffs/MultidropBode\\ac_Cdrp=3.0p_Rterm=sqrt(Lline_Cline)_Lenline=5.0_Rline=9.0_Lline=79.0p_Cline=220.0f_Vin=1_0_1_0_1_Vout.csv'
p23
s((S'220.0m'
S'79.0p'
S'220.0f'
tS'3.0p'
g3
g9
I10
S'5.0'
S'10101'
tp24
S'../data/transmission_line_10_dropoffs/MultidropBode\\ac_Cdrp=3.0p_Rterm=sqrt(Lline_Cline)_Lenline=5.0_Rline=220.0m_Lline=79.0p_Cline=220.0f_Vin=1_0_1_0_1_Vout.csv'
p25
s((S'2.0'
S'3.5n'
S'5.8p'
tS'3.0p'
g3
g4
I10
S'5.0'
S'10100'
tp26
S'..\\data\\transmission_line_10_dropoffs\\MultidropTransient\\tran_Cdrp=3.0p_Rterm=sqrt(Lline_Cline)_Lenline=5.0_Rline=2.0_Lline=3.5n_Cline=5.8p_Vin=1_0_1_0_0_Vout.csv'
p27
s((S'420.0m'
S'4.0n'
S'11.2p'
tS'3.0p'
g3
g4
I10
S'5.0'
S'10101'
tp28
S'../data/transmission_line_10_dropoffs/MultidropTransient\\tran_Cdrp=3.0p_Rterm=sqrt(Lline_Cline)_Lenline=5.0_Rline=420.0m_Lline=4.0n_Cline=11.2p_Vin=1_0_1_0_1_Vout.csv'
p29
s((S'1.6'
S'2.4n'
S'4.6p'
tS'1.0p'
g3
g9
I10
S'5.0'
S'10100'
tp30
S'../data/transmission_line_10_dropoffs/MultidropBode\\ac_Cdrp=1.0p_Rterm=sqrt(Lline_Cline)_Lenline=5.0_Rline=1.6_Lline=2.4n_Cline=4.6p_Vin=1_0_1_0_0_Vout.csv'
p31
s((S'1.8'
S'2.4n'
S'4.6p'
tS'1.0p'
g3
g9
I10
S'5.0'
S'10100'
tp32
S'../data/transmission_line_10_dropoffs/MultidropBode\\ac_Cdrp=1.0p_Rterm=sqrt(Lline_Cline)_Lenline=5.0_Rline=1.8_Lline=2.4n_Cline=4.6p_Vin=1_0_1_0_0_Vout.csv'
p33
s((S'9.0'
S'3.5n'
S'5.8p'
tS'3.0p'
g3
g9
I10
S'5.0'
S'10100'
tp34
S'..\\data\\transmission_line_10_dropoffs\\MultidropBode\\ac_Cdrp=3.0p_Rterm=sqrt(Lline_Cline)_Lenline=5.0_Rline=9.0_Lline=3.5n_Cline=5.8p_Vin=1_0_1_0_0_Vout.csv'
p35
s((S'620.0m'
S'4.0n'
S'9.0p'
tS'3.0p'
g3
g4
I10
S'5.0'
S'10101'
tp36
S'../data/transmission_line_10_dropoffs/MultidropTransient\\tran_Cdrp=3.0p_Rterm=sqrt(Lline_Cline)_Lenline=5.0_Rline=620.0m_Lline=4.0n_Cline=9.0p_Vin=1_0_1_0_1_Vout.csv'
p37
s((S'620.0m'
S'2.4n'
S'4.6p'
tS'3.0p'
g3
g4
I10
S'5.0'
S'10101'
tp38
S'../data/transmission_line_10_dropoffs/MultidropTransient\\tran_Cdrp=3.0p_Rterm=sqrt(Lline_Cline)_Lenline=5.0_Rline=620.0m_Lline=2.4n_Cline=4.6p_Vin=1_0_1_0_1_Vout.csv'
p39
s((S'13.0'
S'79.0p'
S'220.0f'
tS'3.0p'
g3
g4
I10
S'5.0'
S'10101'
tp40
S'../data/transmission_line_10_dropoffs/MultidropTransient\\tran_Cdrp=3.0p_Rterm=sqrt(Lline_Cline)_Lenline=5.0_Rline=13.0_Lline=79.0p_Cline=220.0f_Vin=1_0_1_0_1_Vout.csv'
p41
s((S'19.0'
S'3.5n'
S'5.8p'
tS'3.0p'
g3
g9
I10
S'5.0'
S'10100'
tp42
S'..\\data\\transmission_line_10_dropoffs\\MultidropBode\\ac_Cdrp=3.0p_Rterm=sqrt(Lline_Cline)_Lenline=5.0_Rline=19.0_Lline=3.5n_Cline=5.8p_Vin=1_0_1_0_0_Vout.csv'
p43
s((S'220.0m'
S'2.4n'
S'4.6p'
tS'3.0p'
g3
g9
I10
S'5.0'
S'10100'
tp44
S'../data/transmission_line_10_dropoffs/MultidropBode\\ac_Cdrp=3.0p_Rterm=sqrt(Lline_Cline)_Lenline=5.0_Rline=220.0m_Lline=2.4n_Cline=4.6p_Vin=1_0_1_0_0_Vout.csv'
p45
s((S'1.8'
S'4.0n'
S'9.0p'
tS'3.0p'
g3
g4
I10
S'5.0'
S'10101'
tp46
S'../data/transmission_line_10_dropoffs/MultidropTransient\\tran_Cdrp=3.0p_Rterm=sqrt(Lline_Cline)_Lenline=5.0_Rline=1.8_Lline=4.0n_Cline=9.0p_Vin=1_0_1_0_1_Vout.csv'
p47
s((S'19.0'
S'79.0p'
S'220.0f'
tS'3.0p'
g3
g4
I10
S'5.0'
S'10101'
tp48
S'../data/transmission_line_10_dropoffs/MultidropTransient\\tran_Cdrp=3.0p_Rterm=sqrt(Lline_Cline)_Lenline=5.0_Rline=19.0_Lline=79.0p_Cline=220.0f_Vin=1_0_1_0_1_Vout.csv'
p49
s((S'6.0'
S'2.4n'
S'220.0f'
tS'3.0p'
g3
g4
I10
S'5.0'
S'10100'
tp50
S'../data/transmission_line_10_dropoffs/MultidropTransient\\tran_Cdrp=3.0p_Rterm=sqrt(Lline_Cline)_Lenline=5.0_Rline=6.0_Lline=2.4n_Cline=220.0f_Vin=1_0_1_0_0_Vout.csv'
p51
s((S'7.0'
S'4.0n'
S'9.0p'
tS'3.0p'
g3
g9
I10
S'5.0'
S'10101'
tp52
S'../data/transmission_line_10_dropoffs/MultidropBode\\ac_Cdrp=3.0p_Rterm=sqrt(Lline_Cline)_Lenline=5.0_Rline=7.0_Lline=4.0n_Cline=9.0p_Vin=1_0_1_0_1_Vout.csv'
p53
s((S'8.0'
S'2.4n'
S'4.6p'
tS'1.0p'
g3
g4
I10
S'5.0'
S'10100'
tp54
S'../data/transmission_line_10_dropoffs/MultidropTransient\\tran_Cdrp=1.0p_Rterm=sqrt(Lline_Cline)_Lenline=5.0_Rline=8.0_Lline=2.4n_Cline=4.6p_Vin=1_0_1_0_0_Vout.csv'
p55
s((S'3.0'
S'3.5n'
S'5.8p'
tS'3.0p'
g3
g4
I10
S'5.0'
S'10100'
tp56
S'..\\data\\transmission_line_10_dropoffs\\MultidropTransient\\tran_Cdrp=3.0p_Rterm=sqrt(Lline_Cline)_Lenline=5.0_Rline=3.0_Lline=3.5n_Cline=5.8p_Vin=1_0_1_0_0_Vout.csv'
p57
s((S'15.0'
S'2.4n'
S'220.0f'
tS'3.0p'
g3
g9
I10
S'5.0'
S'10100'
tp58
S'../data/transmission_line_10_dropoffs/MultidropBode\\ac_Cdrp=3.0p_Rterm=sqrt(Lline_Cline)_Lenline=5.0_Rline=15.0_Lline=2.4n_Cline=220.0f_Vin=1_0_1_0_0_Vout.csv'
p59
s((S'20.0m'
S'2.4n'
S'220.0f'
tS'3.0p'
g3
g4
I10
S'5.0'
S'10100'
tp60
S'../data/transmission_line_10_dropoffs/MultidropTransient\\tran_Cdrp=3.0p_Rterm=sqrt(Lline_Cline)_Lenline=5.0_Rline=20.0m_Lline=2.4n_Cline=220.0f_Vin=1_0_1_0_0_Vout.csv'
p61
s((S'11.0'
S'79.0p'
S'220.0f'
tS'1.0p'
g3
g9
I10
S'1.0'
S'10000'
tp62
S'../data/transmission_line_10_dropoffs/MultidropBode\\ac_Cdrp=1.0p_Rterm=sqrt(Lline_Cline)_Lenline=1.0_Rline=11.0_Lline=79.0p_Cline=220.0f_Vin=1_0_0_0_0_Vout.csv'
p63
s((S'19.0'
S'79.0p'
S'220.0f'
tS'1.0p'
g3
g9
I10
S'1.0'
S'10000'
tp64
S'../data/transmission_line_10_dropoffs/MultidropBode\\ac_Cdrp=1.0p_Rterm=sqrt(Lline_Cline)_Lenline=1.0_Rline=19.0_Lline=79.0p_Cline=220.0f_Vin=1_0_0_0_0_Vout.csv'
p65
s((S'4.0'
S'79.0p'
S'220.0f'
tS'3.0p'
g3
g4
I10
S'5.0'
S'10101'
tp66
S'../data/transmission_line_10_dropoffs/MultidropTransient\\tran_Cdrp=3.0p_Rterm=sqrt(Lline_Cline)_Lenline=5.0_Rline=4.0_Lline=79.0p_Cline=220.0f_Vin=1_0_1_0_1_Vout.csv'
p67
s((S'420.0m'
S'4.8n'
S'11.2p'
tS'3.0p'
g3
g4
I10
S'5.0'
S'01111'
tp68
S'../data/transmission_line_10_dropoffs/MultidropTransient\\tran_Cdrp=3.0p_Rterm=sqrt(Lline_Cline)_Lenline=5.0_Rline=420.0m_Lline=4.8n_Cline=11.2p_Vin=0_1_1_1_1_Vout.csv'
p69
s((S'420.0m'
S'79.0p'
S'220.0f'
tS'3.0p'
g3
g9
I10
S'5.0'
S'10101'
tp70
S'../data/transmission_line_10_dropoffs/MultidropBode\\ac_Cdrp=3.0p_Rterm=sqrt(Lline_Cline)_Lenline=5.0_Rline=420.0m_Lline=79.0p_Cline=220.0f_Vin=1_0_1_0_1_Vout.csv'
p71
s((S'820.0m'
S'2.4n'
S'4.6p'
tS'1.0p'
g3
g4
I10
S'5.0'
S'10100'
tp72
S'../data/transmission_line_10_dropoffs/MultidropTransient\\tran_Cdrp=1.0p_Rterm=sqrt(Lline_Cline)_Lenline=5.0_Rline=820.0m_Lline=2.4n_Cline=4.6p_Vin=1_0_1_0_0_Vout.csv'
p73
s((S'8.0'
S'2.4n'
S'4.6p'
tS'3.0p'
g3
g9
I10
S'5.0'
S'10101'
tp74
S'../data/transmission_line_10_dropoffs/MultidropBode\\ac_Cdrp=3.0p_Rterm=sqrt(Lline_Cline)_Lenline=5.0_Rline=8.0_Lline=2.4n_Cline=4.6p_Vin=1_0_1_0_1_Vout.csv'
p75
s((S'20.0m'
S'79.0p'
S'220.0f'
tS'1.0p'
g3
g9
I10
S'1.0'
S'10000'
tp76
S'../data/transmission_line_10_dropoffs/MultidropBode\\ac_Cdrp=1.0p_Rterm=sqrt(Lline_Cline)_Lenline=1.0_Rline=20.0m_Lline=79.0p_Cline=220.0f_Vin=1_0_0_0_0_Vout.csv'
p77
s((S'1.4'
S'2.4n'
S'4.6p'
tS'3.0p'
g3
g4
I10
S'5.0'
S'10100'
tp78
S'../data/transmission_line_10_dropoffs/MultidropTransient\\tran_Cdrp=3.0p_Rterm=sqrt(Lline_Cline)_Lenline=5.0_Rline=1.4_Lline=2.4n_Cline=4.6p_Vin=1_0_1_0_0_Vout.csv'
p79
s((S'15.0'
S'2.4n'
S'4.6p'
tS'3.0p'
g3
g9
I10
S'5.0'
S'10100'
tp80
S'../data/transmission_line_10_dropoffs/MultidropBode\\ac_Cdrp=3.0p_Rterm=sqrt(Lline_Cline)_Lenline=5.0_Rline=15.0_Lline=2.4n_Cline=4.6p_Vin=1_0_1_0_0_Vout.csv'
p81
s((S'19.0'
S'4.0n'
S'9.0p'
tS'3.0p'
g3
g9
I10
S'5.0'
S'10101'
tp82
S'../data/transmission_line_10_dropoffs/MultidropBode\\ac_Cdrp=3.0p_Rterm=sqrt(Lline_Cline)_Lenline=5.0_Rline=19.0_Lline=4.0n_Cline=9.0p_Vin=1_0_1_0_1_Vout.csv'
p83
s((S'10.0'
S'3.5n'
S'5.8p'
tS'3.0p'
g3
g4
I10
S'5.0'
S'10100'
tp84
S'..\\data\\transmission_line_10_dropoffs\\MultidropTransient\\tran_Cdrp=3.0p_Rterm=sqrt(Lline_Cline)_Lenline=5.0_Rline=10.0_Lline=3.5n_Cline=5.8p_Vin=1_0_1_0_0_Vout.csv'
p85
s((S'1.6'
S'2.4n'
S'220.0f'
tS'3.0p'
g3
g9
I10
S'5.0'
S'10100'
tp86
S'../data/transmission_line_10_dropoffs/MultidropBode\\ac_Cdrp=3.0p_Rterm=sqrt(Lline_Cline)_Lenline=5.0_Rline=1.6_Lline=2.4n_Cline=220.0f_Vin=1_0_1_0_0_Vout.csv'
p87
s((S'11.0'
S'2.4n'
S'220.0f'
tS'3.0p'
g3
g9
I10
S'5.0'
S'10100'
tp88
S'../data/transmission_line_10_dropoffs/MultidropBode\\ac_Cdrp=3.0p_Rterm=sqrt(Lline_Cline)_Lenline=5.0_Rline=11.0_Lline=2.4n_Cline=220.0f_Vin=1_0_1_0_0_Vout.csv'
p89
s((S'10.0'
S'2.4n'
S'4.6p'
tS'3.0p'
g3
g9
I10
S'5.0'
S'10100'
tp90
S'../data/transmission_line_10_dropoffs/MultidropBode\\ac_Cdrp=3.0p_Rterm=sqrt(Lline_Cline)_Lenline=5.0_Rline=10.0_Lline=2.4n_Cline=4.6p_Vin=1_0_1_0_0_Vout.csv'
p91
s((S'19.0'
S'79.0p'
S'220.0f'
tS'1.0p'
g3
g4
I10
S'1.0'
S'10000'
tp92
S'../data/transmission_line_10_dropoffs/MultidropTransient\\tran_Cdrp=1.0p_Rterm=sqrt(Lline_Cline)_Lenline=1.0_Rline=19.0_Lline=79.0p_Cline=220.0f_Vin=1_0_0_0_0_Vout.csv'
p93
s((S'7.0'
S'79.0p'
S'220.0f'
tS'1.0p'
g3
g4
I10
S'1.0'
S'10000'
tp94
S'../data/transmission_line_10_dropoffs/MultidropTransient\\tran_Cdrp=1.0p_Rterm=sqrt(Lline_Cline)_Lenline=1.0_Rline=7.0_Lline=79.0p_Cline=220.0f_Vin=1_0_0_0_0_Vout.csv'
p95
s((S'420.0m'
S'4.0n'
S'9.0p'
tS'3.0p'
g3
g4
I10
S'5.0'
S'10101'
tp96
S'../data/transmission_line_10_dropoffs/MultidropTransient\\tran_Cdrp=3.0p_Rterm=sqrt(Lline_Cline)_Lenline=5.0_Rline=420.0m_Lline=4.0n_Cline=9.0p_Vin=1_0_1_0_1_Vout.csv'
p97
s((S'10.0'
S'3.5n'
S'5.8p'
tS'3.0p'
g3
g9
I10
S'5.0'
S'10100'
tp98
S'..\\data\\transmission_line_10_dropoffs\\MultidropBode\\ac_Cdrp=3.0p_Rterm=sqrt(Lline_Cline)_Lenline=5.0_Rline=10.0_Lline=3.5n_Cline=5.8p_Vin=1_0_1_0_0_Vout.csv'
p99
s((S'19.0'
S'4.0n'
S'9.0p'
tS'3.0p'
g3
g4
I10
S'5.0'
S'10101'
tp100
S'../data/transmission_line_10_dropoffs/MultidropTransient\\tran_Cdrp=3.0p_Rterm=sqrt(Lline_Cline)_Lenline=5.0_Rline=19.0_Lline=4.0n_Cline=9.0p_Vin=1_0_1_0_1_Vout.csv'
p101
s((S'12.0'
S'2.4n'
S'220.0f'
tS'3.0p'
g3
g9
I10
S'5.0'
S'10100'
tp102
S'../data/transmission_line_10_dropoffs/MultidropBode\\ac_Cdrp=3.0p_Rterm=sqrt(Lline_Cline)_Lenline=5.0_Rline=12.0_Lline=2.4n_Cline=220.0f_Vin=1_0_1_0_0_Vout.csv'
p103
s((S'220.0m'
S'2.4n'
S'4.6p'
tS'3.0p'
g3
g9
I10
S'5.0'
S'10101'
tp104
S'../data/transmission_line_10_dropoffs/MultidropBode\\ac_Cdrp=3.0p_Rterm=sqrt(Lline_Cline)_Lenline=5.0_Rline=220.0m_Lline=2.4n_Cline=4.6p_Vin=1_0_1_0_1_Vout.csv'
p105
s((S'820.0m'
S'2.4n'
S'4.6p'
tS'1.0p'
g3
g9
I10
S'5.0'
S'10100'
tp106
S'../data/transmission_line_10_dropoffs/MultidropBode\\ac_Cdrp=1.0p_Rterm=sqrt(Lline_Cline)_Lenline=5.0_Rline=820.0m_Lline=2.4n_Cline=4.6p_Vin=1_0_1_0_0_Vout.csv'
p107
s((S'1.8'
S'7.2n'
S'20.0p'
tS'2.0p'
g3
g4
I10
S'1.0'
S'01000'
tp108
S'../data/transmission_line_10_dropoffs/MultidropTransient\\tran_Cdrp=2.0p_Rterm=sqrt(Lline_Cline)_Lenline=1.0_Rline=1.8_Lline=7.2n_Cline=20.0p_Vin=0_1_0_0_0_Vout.csv'
p109
s((S'3.0'
S'2.4n'
S'220.0f'
tS'3.0p'
g3
g9
I10
S'5.0'
S'10100'
tp110
S'../data/transmission_line_10_dropoffs/MultidropBode\\ac_Cdrp=3.0p_Rterm=sqrt(Lline_Cline)_Lenline=5.0_Rline=3.0_Lline=2.4n_Cline=220.0f_Vin=1_0_1_0_0_Vout.csv'
p111
s((S'10.0'
S'4.0n'
S'9.0p'
tS'3.0p'
g3
g9
I10
S'5.0'
S'10101'
tp112
S'../data/transmission_line_10_dropoffs/MultidropBode\\ac_Cdrp=3.0p_Rterm=sqrt(Lline_Cline)_Lenline=5.0_Rline=10.0_Lline=4.0n_Cline=9.0p_Vin=1_0_1_0_1_Vout.csv'
p113
s((S'1.8'
S'79.0p'
S'220.0f'
tS'3.0p'
g3
g9
I10
S'5.0'
S'10101'
tp114
S'../data/transmission_line_10_dropoffs/MultidropBode\\ac_Cdrp=3.0p_Rterm=sqrt(Lline_Cline)_Lenline=5.0_Rline=1.8_Lline=79.0p_Cline=220.0f_Vin=1_0_1_0_1_Vout.csv'
p115
s((S'17.0'
S'2.4n'
S'220.0f'
tS'3.0p'
g3
g4
I10
S'5.0'
S'10100'
tp116
S'../data/transmission_line_10_dropoffs/MultidropTransient\\tran_Cdrp=3.0p_Rterm=sqrt(Lline_Cline)_Lenline=5.0_Rline=17.0_Lline=2.4n_Cline=220.0f_Vin=1_0_1_0_0_Vout.csv'
p117
s((S'10.0'
S'2.4n'
S'4.6p'
tS'1.0p'
g3
g9
I10
S'5.0'
S'10100'
tp118
S'../data/transmission_line_10_dropoffs/MultidropBode\\ac_Cdrp=1.0p_Rterm=sqrt(Lline_Cline)_Lenline=5.0_Rline=10.0_Lline=2.4n_Cline=4.6p_Vin=1_0_1_0_0_Vout.csv'
p119
s((S'1.4'
S'2.4n'
S'4.6p'
tS'3.0p'
g3
g4
I10
S'5.0'
S'10101'
tp120
S'../data/transmission_line_10_dropoffs/MultidropTransient\\tran_Cdrp=3.0p_Rterm=sqrt(Lline_Cline)_Lenline=5.0_Rline=1.4_Lline=2.4n_Cline=4.6p_Vin=1_0_1_0_1_Vout.csv'
p121
s((S'220.0m'
S'2.4n'
S'220.0f'
tS'3.0p'
g3
g4
I10
S'5.0'
S'10100'
tp122
S'../data/transmission_line_10_dropoffs/MultidropTransient\\tran_Cdrp=3.0p_Rterm=sqrt(Lline_Cline)_Lenline=5.0_Rline=220.0m_Lline=2.4n_Cline=220.0f_Vin=1_0_1_0_0_Vout.csv'
p123
s((S'1.2'
S'4.0n'
S'9.0p'
tS'3.0p'
g3
g4
I10
S'5.0'
S'10101'
tp124
S'../data/transmission_line_10_dropoffs/MultidropTransient\\tran_Cdrp=3.0p_Rterm=sqrt(Lline_Cline)_Lenline=5.0_Rline=1.2_Lline=4.0n_Cline=9.0p_Vin=1_0_1_0_1_Vout.csv'
p125
s((S'10.0'
S'2.4n'
S'4.6p'
tS'3.0p'
g3
g9
I10
S'5.0'
S'10101'
tp126
S'../data/transmission_line_10_dropoffs/MultidropBode\\ac_Cdrp=3.0p_Rterm=sqrt(Lline_Cline)_Lenline=5.0_Rline=10.0_Lline=2.4n_Cline=4.6p_Vin=1_0_1_0_1_Vout.csv'
p127
s((S'17.0'
S'2.4n'
S'4.6p'
tS'3.0p'
g3
g4
I10
S'5.0'
S'10100'
tp128
S'../data/transmission_line_10_dropoffs/MultidropTransient\\tran_Cdrp=3.0p_Rterm=sqrt(Lline_Cline)_Lenline=5.0_Rline=17.0_Lline=2.4n_Cline=4.6p_Vin=1_0_1_0_0_Vout.csv'
p129
s((S'19.0'
S'3.5n'
S'5.8p'
tS'3.0p'
g3
g4
I10
S'5.0'
S'10100'
tp130
S'..\\data\\transmission_line_10_dropoffs\\MultidropTransient\\tran_Cdrp=3.0p_Rterm=sqrt(Lline_Cline)_Lenline=5.0_Rline=19.0_Lline=3.5n_Cline=5.8p_Vin=1_0_1_0_0_Vout.csv'
p131
s((S'14.0'
S'79.0p'
S'220.0f'
tS'1.0p'
g3
g4
I10
S'1.0'
S'10000'
tp132
S'../data/transmission_line_10_dropoffs/MultidropTransient\\tran_Cdrp=1.0p_Rterm=sqrt(Lline_Cline)_Lenline=1.0_Rline=14.0_Lline=79.0p_Cline=220.0f_Vin=1_0_0_0_0_Vout.csv'
p133
s((S'13.0'
S'2.4n'
S'220.0f'
tS'3.0p'
g3
g9
I10
S'5.0'
S'10100'
tp134
S'../data/transmission_line_10_dropoffs/MultidropBode\\ac_Cdrp=3.0p_Rterm=sqrt(Lline_Cline)_Lenline=5.0_Rline=13.0_Lline=2.4n_Cline=220.0f_Vin=1_0_1_0_0_Vout.csv'
p135
s((S'420.0m'
S'6.4n'
S'11.2p'
tS'3.0p'
g3
g4
I10
S'5.0'
S'10101'
tp136
S'../data/transmission_line_10_dropoffs/MultidropTransient\\tran_Cdrp=3.0p_Rterm=sqrt(Lline_Cline)_Lenline=5.0_Rline=420.0m_Lline=6.4n_Cline=11.2p_Vin=1_0_1_0_1_Vout.csv'
p137
s((S'9.0'
S'4.0n'
S'9.0p'
tS'3.0p'
g3
g4
I10
S'5.0'
S'10101'
tp138
S'../data/transmission_line_10_dropoffs/MultidropTransient\\tran_Cdrp=3.0p_Rterm=sqrt(Lline_Cline)_Lenline=5.0_Rline=9.0_Lline=4.0n_Cline=9.0p_Vin=1_0_1_0_1_Vout.csv'
p139
s((S'14.0'
S'2.4n'
S'220.0f'
tS'3.0p'
g3
g9
I10
S'5.0'
S'10100'
tp140
S'../data/transmission_line_10_dropoffs/MultidropBode\\ac_Cdrp=3.0p_Rterm=sqrt(Lline_Cline)_Lenline=5.0_Rline=14.0_Lline=2.4n_Cline=220.0f_Vin=1_0_1_0_0_Vout.csv'
p141
s((S'9.0'
S'79.0p'
S'220.0f'
tS'3.0p'
g3
g4
I10
S'5.0'
S'10101'
tp142
S'../data/transmission_line_10_dropoffs/MultidropTransient\\tran_Cdrp=3.0p_Rterm=sqrt(Lline_Cline)_Lenline=5.0_Rline=9.0_Lline=79.0p_Cline=220.0f_Vin=1_0_1_0_1_Vout.csv'
p143
s((S'15.0'
S'4.0n'
S'9.0p'
tS'3.0p'
g3
g9
I10
S'5.0'
S'10101'
tp144
S'../data/transmission_line_10_dropoffs/MultidropBode\\ac_Cdrp=3.0p_Rterm=sqrt(Lline_Cline)_Lenline=5.0_Rline=15.0_Lline=4.0n_Cline=9.0p_Vin=1_0_1_0_1_Vout.csv'
p145
s((S'16.0'
S'4.0n'
S'9.0p'
tS'3.0p'
g3
g9
I10
S'5.0'
S'10101'
tp146
S'../data/transmission_line_10_dropoffs/MultidropBode\\ac_Cdrp=3.0p_Rterm=sqrt(Lline_Cline)_Lenline=5.0_Rline=16.0_Lline=4.0n_Cline=9.0p_Vin=1_0_1_0_1_Vout.csv'
p147
s((S'10.0'
S'2.4n'
S'4.6p'
tS'3.0p'
g3
g4
I10
S'5.0'
S'10101'
tp148
S'../data/transmission_line_10_dropoffs/MultidropTransient\\tran_Cdrp=3.0p_Rterm=sqrt(Lline_Cline)_Lenline=5.0_Rline=10.0_Lline=2.4n_Cline=4.6p_Vin=1_0_1_0_1_Vout.csv'
p149
s((S'2.0'
S'3.5n'
S'5.8p'
tS'3.0p'
g3
g9
I10
S'5.0'
S'10100'
tp150
S'..\\data\\transmission_line_10_dropoffs\\MultidropBode\\ac_Cdrp=3.0p_Rterm=sqrt(Lline_Cline)_Lenline=5.0_Rline=2.0_Lline=3.5n_Cline=5.8p_Vin=1_0_1_0_0_Vout.csv'
p151
s((S'20.0m'
S'2.4n'
S'4.6p'
tS'3.0p'
g3
g4
I10
S'5.0'
S'10101'
tp152
S'../data/transmission_line_10_dropoffs/MultidropTransient\\tran_Cdrp=3.0p_Rterm=sqrt(Lline_Cline)_Lenline=5.0_Rline=20.0m_Lline=2.4n_Cline=4.6p_Vin=1_0_1_0_1_Vout.csv'
p153
s((S'11.0'
S'3.5n'
S'5.8p'
tS'3.0p'
g3
g4
I10
S'5.0'
S'10100'
tp154
S'..\\data\\transmission_line_10_dropoffs\\MultidropTransient\\tran_Cdrp=3.0p_Rterm=sqrt(Lline_Cline)_Lenline=5.0_Rline=11.0_Lline=3.5n_Cline=5.8p_Vin=1_0_1_0_0_Vout.csv'
p155
s((S'1.6'
S'79.0p'
S'220.0f'
tS'3.0p'
g3
g9
I10
S'5.0'
S'10101'
tp156
S'../data/transmission_line_10_dropoffs/MultidropBode\\ac_Cdrp=3.0p_Rterm=sqrt(Lline_Cline)_Lenline=5.0_Rline=1.6_Lline=79.0p_Cline=220.0f_Vin=1_0_1_0_1_Vout.csv'
p157
s((S'16.0'
S'79.0p'
S'220.0f'
tS'3.0p'
g3
g9
I10
S'5.0'
S'10101'
tp158
S'../data/transmission_line_10_dropoffs/MultidropBode\\ac_Cdrp=3.0p_Rterm=sqrt(Lline_Cline)_Lenline=5.0_Rline=16.0_Lline=79.0p_Cline=220.0f_Vin=1_0_1_0_1_Vout.csv'
p159
s((S'6.0'
S'2.4n'
S'4.6p'
tS'1.0p'
g3
g9
I10
S'5.0'
S'10100'
tp160
S'../data/transmission_line_10_dropoffs/MultidropBode\\ac_Cdrp=1.0p_Rterm=sqrt(Lline_Cline)_Lenline=5.0_Rline=6.0_Lline=2.4n_Cline=4.6p_Vin=1_0_1_0_0_Vout.csv'
p161
s((S'15.0'
S'2.4n'
S'4.6p'
tS'3.0p'
g3
g4
I10
S'5.0'
S'10100'
tp162
S'../data/transmission_line_10_dropoffs/MultidropTransient\\tran_Cdrp=3.0p_Rterm=sqrt(Lline_Cline)_Lenline=5.0_Rline=15.0_Lline=2.4n_Cline=4.6p_Vin=1_0_1_0_0_Vout.csv'
p163
s((S'420.0m'
S'2.4n'
S'11.2p'
tS'3.0p'
g3
g4
I10
S'5.0'
S'10101'
tp164
S'../data/transmission_line_10_dropoffs/MultidropTransient\\tran_Cdrp=3.0p_Rterm=sqrt(Lline_Cline)_Lenline=5.0_Rline=420.0m_Lline=2.4n_Cline=11.2p_Vin=1_0_1_0_1_Vout.csv'
p165
s((S'1.2'
S'2.4n'
S'4.6p'
tS'1.0p'
g3
g9
I10
S'5.0'
S'10100'
tp166
S'../data/transmission_line_10_dropoffs/MultidropBode\\ac_Cdrp=1.0p_Rterm=sqrt(Lline_Cline)_Lenline=5.0_Rline=1.2_Lline=2.4n_Cline=4.6p_Vin=1_0_1_0_0_Vout.csv'
p167
s((S'1.2'
S'4.0n'
S'9.0p'
tS'3.0p'
g3
g9
I10
S'5.0'
S'10101'
tp168
S'../data/transmission_line_10_dropoffs/MultidropBode\\ac_Cdrp=3.0p_Rterm=sqrt(Lline_Cline)_Lenline=5.0_Rline=1.2_Lline=4.0n_Cline=9.0p_Vin=1_0_1_0_1_Vout.csv'
p169
s((S'16.0'
S'3.5n'
S'5.8p'
tS'3.0p'
g3
g4
I10
S'5.0'
S'10100'
tp170
S'..\\data\\transmission_line_10_dropoffs\\MultidropTransient\\tran_Cdrp=3.0p_Rterm=sqrt(Lline_Cline)_Lenline=5.0_Rline=16.0_Lline=3.5n_Cline=5.8p_Vin=1_0_1_0_0_Vout.csv'
p171
s((S'12.0'
S'79.0p'
S'220.0f'
tS'3.0p'
g3
g4
I10
S'5.0'
S'10101'
tp172
S'../data/transmission_line_10_dropoffs/MultidropTransient\\tran_Cdrp=3.0p_Rterm=sqrt(Lline_Cline)_Lenline=5.0_Rline=12.0_Lline=79.0p_Cline=220.0f_Vin=1_0_1_0_1_Vout.csv'
p173
s((S'420.0m'
S'5.6n'
S'11.2p'
tS'3.0p'
g3
g4
I10
S'5.0'
S'01111'
tp174
S'../data/transmission_line_10_dropoffs/MultidropTransient\\tran_Cdrp=3.0p_Rterm=sqrt(Lline_Cline)_Lenline=5.0_Rline=420.0m_Lline=5.6n_Cline=11.2p_Vin=0_1_1_1_1_Vout.csv'
p175
s((S'6.0'
S'79.0p'
S'220.0f'
tS'1.0p'
g3
g9
I10
S'1.0'
S'10000'
tp176
S'../data/transmission_line_10_dropoffs/MultidropBode\\ac_Cdrp=1.0p_Rterm=sqrt(Lline_Cline)_Lenline=1.0_Rline=6.0_Lline=79.0p_Cline=220.0f_Vin=1_0_0_0_0_Vout.csv'
p177
s((S'19.0'
S'2.4n'
S'4.6p'
tS'3.0p'
g3
g4
I10
S'5.0'
S'10101'
tp178
S'../data/transmission_line_10_dropoffs/MultidropTransient\\tran_Cdrp=3.0p_Rterm=sqrt(Lline_Cline)_Lenline=5.0_Rline=19.0_Lline=2.4n_Cline=4.6p_Vin=1_0_1_0_1_Vout.csv'
p179
s((S'820.0m'
S'2.4n'
S'220.0f'
tS'3.0p'
g3
g4
I10
S'5.0'
S'10100'
tp180
S'../data/transmission_line_10_dropoffs/MultidropTransient\\tran_Cdrp=3.0p_Rterm=sqrt(Lline_Cline)_Lenline=5.0_Rline=820.0m_Lline=2.4n_Cline=220.0f_Vin=1_0_1_0_0_Vout.csv'
p181
s((S'8.0'
S'3.5n'
S'5.8p'
tS'3.0p'
g3
g4
I10
S'5.0'
S'10100'
tp182
S'..\\data\\transmission_line_10_dropoffs\\MultidropTransient\\tran_Cdrp=3.0p_Rterm=sqrt(Lline_Cline)_Lenline=5.0_Rline=8.0_Lline=3.5n_Cline=5.8p_Vin=1_0_1_0_0_Vout.csv'
p183
s((S'420.0m'
S'2.4n'
S'11.2p'
tS'3.0p'
g3
g4
I10
S'5.0'
S'01111'
tp184
S'../data/transmission_line_10_dropoffs/MultidropTransient\\tran_Cdrp=3.0p_Rterm=sqrt(Lline_Cline)_Lenline=5.0_Rline=420.0m_Lline=2.4n_Cline=11.2p_Vin=0_1_1_1_1_Vout.csv'
p185
s((S'1.8'
S'79.0p'
S'220.0f'
tS'3.0p'
g3
g4
I10
S'5.0'
S'10101'
tp186
S'../data/transmission_line_10_dropoffs/MultidropTransient\\tran_Cdrp=3.0p_Rterm=sqrt(Lline_Cline)_Lenline=5.0_Rline=1.8_Lline=79.0p_Cline=220.0f_Vin=1_0_1_0_1_Vout.csv'
p187
s((S'17.0'
S'2.4n'
S'4.6p'
tS'3.0p'
g3
g4
I10
S'5.0'
S'10101'
tp188
S'../data/transmission_line_10_dropoffs/MultidropTransient\\tran_Cdrp=3.0p_Rterm=sqrt(Lline_Cline)_Lenline=5.0_Rline=17.0_Lline=2.4n_Cline=4.6p_Vin=1_0_1_0_1_Vout.csv'
p189
s((S'420.0m'
S'79.0p'
S'11.2p'
tS'3.0p'
g3
g4
I10
S'5.0'
S'01111'
tp190
S'../data/transmission_line_10_dropoffs/MultidropTransient\\tran_Cdrp=3.0p_Rterm=sqrt(Lline_Cline)_Lenline=5.0_Rline=420.0m_Lline=79.0p_Cline=11.2p_Vin=0_1_1_1_1_Vout.csv'
p191
s((S'820.0m'
S'79.0p'
S'220.0f'
tS'3.0p'
g3
g4
I10
S'5.0'
S'10101'
tp192
S'../data/transmission_line_10_dropoffs/MultidropTransient\\tran_Cdrp=3.0p_Rterm=sqrt(Lline_Cline)_Lenline=5.0_Rline=820.0m_Lline=79.0p_Cline=220.0f_Vin=1_0_1_0_1_Vout.csv'
p193
s((S'1.4'
S'4.0n'
S'9.0p'
tS'3.0p'
g3
g4
I10
S'5.0'
S'10101'
tp194
S'../data/transmission_line_10_dropoffs/MultidropTransient\\tran_Cdrp=3.0p_Rterm=sqrt(Lline_Cline)_Lenline=5.0_Rline=1.4_Lline=4.0n_Cline=9.0p_Vin=1_0_1_0_1_Vout.csv'
p195
s((S'1.4'
S'2.4n'
S'4.6p'
tS'1.0p'
g3
g4
I10
S'5.0'
S'10100'
tp196
S'../data/transmission_line_10_dropoffs/MultidropTransient\\tran_Cdrp=1.0p_Rterm=sqrt(Lline_Cline)_Lenline=5.0_Rline=1.4_Lline=2.4n_Cline=4.6p_Vin=1_0_1_0_0_Vout.csv'
p197
s((S'17.0'
S'79.0p'
S'220.0f'
tS'3.0p'
g3
g4
I10
S'5.0'
S'10101'
tp198
S'../data/transmission_line_10_dropoffs/MultidropTransient\\tran_Cdrp=3.0p_Rterm=sqrt(Lline_Cline)_Lenline=5.0_Rline=17.0_Lline=79.0p_Cline=220.0f_Vin=1_0_1_0_1_Vout.csv'
p199
s((S'1.8'
S'2.4n'
S'220.0f'
tS'3.0p'
g3
g4
I10
S'5.0'
S'10100'
tp200
S'../data/transmission_line_10_dropoffs/MultidropTransient\\tran_Cdrp=3.0p_Rterm=sqrt(Lline_Cline)_Lenline=5.0_Rline=1.8_Lline=2.4n_Cline=220.0f_Vin=1_0_1_0_0_Vout.csv'
p201
s((S'420.0m'
S'2.4n'
S'220.0f'
tS'3.0p'
g3
g4
I10
S'5.0'
S'10100'
tp202
S'../data/transmission_line_10_dropoffs/MultidropTransient\\tran_Cdrp=3.0p_Rterm=sqrt(Lline_Cline)_Lenline=5.0_Rline=420.0m_Lline=2.4n_Cline=220.0f_Vin=1_0_1_0_0_Vout.csv'
p203
s((S'220.0m'
S'4.0n'
S'9.0p'
tS'3.0p'
g3
g4
I10
S'5.0'
S'10101'
tp204
S'../data/transmission_line_10_dropoffs/MultidropTransient\\tran_Cdrp=3.0p_Rterm=sqrt(Lline_Cline)_Lenline=5.0_Rline=220.0m_Lline=4.0n_Cline=9.0p_Vin=1_0_1_0_1_Vout.csv'
p205
s((S'17.0'
S'2.4n'
S'4.6p'
tS'1.0p'
g3
g9
I10
S'5.0'
S'10100'
tp206
S'../data/transmission_line_10_dropoffs/MultidropBode\\ac_Cdrp=1.0p_Rterm=sqrt(Lline_Cline)_Lenline=5.0_Rline=17.0_Lline=2.4n_Cline=4.6p_Vin=1_0_1_0_0_Vout.csv'
p207
s((S'420.0m'
S'869.0p'
S'11.2p'
tS'3.0p'
g3
g4
I10
S'5.0'
S'01111'
tp208
S'../data/transmission_line_10_dropoffs/MultidropTransient\\tran_Cdrp=3.0p_Rterm=sqrt(Lline_Cline)_Lenline=5.0_Rline=420.0m_Lline=869.0p_Cline=11.2p_Vin=0_1_1_1_1_Vout.csv'
p209
s((S'620.0m'
S'3.5n'
S'5.8p'
tS'3.0p'
g3
g4
I10
S'5.0'
S'10100'
tp210
S'..\\data\\transmission_line_10_dropoffs\\MultidropTransient\\tran_Cdrp=3.0p_Rterm=sqrt(Lline_Cline)_Lenline=5.0_Rline=620.0m_Lline=3.5n_Cline=5.8p_Vin=1_0_1_0_0_Vout.csv'
p211
s((S'7.0'
S'2.4n'
S'220.0f'
tS'3.0p'
g3
g9
I10
S'5.0'
S'10100'
tp212
S'../data/transmission_line_10_dropoffs/MultidropBode\\ac_Cdrp=3.0p_Rterm=sqrt(Lline_Cline)_Lenline=5.0_Rline=7.0_Lline=2.4n_Cline=220.0f_Vin=1_0_1_0_0_Vout.csv'
p213
s((S'19.0'
S'2.4n'
S'4.6p'
tS'3.0p'
g3
g9
I10
S'5.0'
S'10100'
tp214
S'../data/transmission_line_10_dropoffs/MultidropBode\\ac_Cdrp=3.0p_Rterm=sqrt(Lline_Cline)_Lenline=5.0_Rline=19.0_Lline=2.4n_Cline=4.6p_Vin=1_0_1_0_0_Vout.csv'
p215
s((S'10.0'
S'2.4n'
S'4.6p'
tS'3.0p'
g3
g4
I10
S'5.0'
S'10100'
tp216
S'../data/transmission_line_10_dropoffs/MultidropTransient\\tran_Cdrp=3.0p_Rterm=sqrt(Lline_Cline)_Lenline=5.0_Rline=10.0_Lline=2.4n_Cline=4.6p_Vin=1_0_1_0_0_Vout.csv'
p217
s((S'15.0'
S'2.4n'
S'4.6p'
tS'3.0p'
g3
g4
I10
S'5.0'
S'10101'
tp218
S'../data/transmission_line_10_dropoffs/MultidropTransient\\tran_Cdrp=3.0p_Rterm=sqrt(Lline_Cline)_Lenline=5.0_Rline=15.0_Lline=2.4n_Cline=4.6p_Vin=1_0_1_0_1_Vout.csv'
p219
s((S'15.0'
S'3.5n'
S'5.8p'
tS'3.0p'
g3
g4
I10
S'5.0'
S'10100'
tp220
S'..\\data\\transmission_line_10_dropoffs\\MultidropTransient\\tran_Cdrp=3.0p_Rterm=sqrt(Lline_Cline)_Lenline=5.0_Rline=15.0_Lline=3.5n_Cline=5.8p_Vin=1_0_1_0_0_Vout.csv'
p221
s((S'14.0'
S'2.4n'
S'4.6p'
tS'3.0p'
g3
g4
I10
S'5.0'
S'10100'
tp222
S'../data/transmission_line_10_dropoffs/MultidropTransient\\tran_Cdrp=3.0p_Rterm=sqrt(Lline_Cline)_Lenline=5.0_Rline=14.0_Lline=2.4n_Cline=4.6p_Vin=1_0_1_0_0_Vout.csv'
p223
s((S'19.0'
S'2.4n'
S'4.6p'
tS'1.0p'
g3
g4
I10
S'5.0'
S'10100'
tp224
S'../data/transmission_line_10_dropoffs/MultidropTransient\\tran_Cdrp=1.0p_Rterm=sqrt(Lline_Cline)_Lenline=5.0_Rline=19.0_Lline=2.4n_Cline=4.6p_Vin=1_0_1_0_0_Vout.csv'
p225
s((S'620.0m'
S'79.0p'
S'220.0f'
tS'3.0p'
g3
g4
I10
S'5.0'
S'10101'
tp226
S'../data/transmission_line_10_dropoffs/MultidropTransient\\tran_Cdrp=3.0p_Rterm=sqrt(Lline_Cline)_Lenline=5.0_Rline=620.0m_Lline=79.0p_Cline=220.0f_Vin=1_0_1_0_1_Vout.csv'
p227
s((S'4.0'
S'79.0p'
S'220.0f'
tS'1.0p'
g3
g4
I10
S'1.0'
S'10000'
tp228
S'../data/transmission_line_10_dropoffs/MultidropTransient\\tran_Cdrp=1.0p_Rterm=sqrt(Lline_Cline)_Lenline=1.0_Rline=4.0_Lline=79.0p_Cline=220.0f_Vin=1_0_0_0_0_Vout.csv'
p229
s((S'5.0'
S'4.0n'
S'9.0p'
tS'3.0p'
g3
g4
I10
S'5.0'
S'10101'
tp230
S'../data/transmission_line_10_dropoffs/MultidropTransient\\tran_Cdrp=3.0p_Rterm=sqrt(Lline_Cline)_Lenline=5.0_Rline=5.0_Lline=4.0n_Cline=9.0p_Vin=1_0_1_0_1_Vout.csv'
p231
s((S'1.4'
S'2.4n'
S'4.6p'
tS'1.0p'
g3
g9
I10
S'5.0'
S'10100'
tp232
S'../data/transmission_line_10_dropoffs/MultidropBode\\ac_Cdrp=1.0p_Rterm=sqrt(Lline_Cline)_Lenline=5.0_Rline=1.4_Lline=2.4n_Cline=4.6p_Vin=1_0_1_0_0_Vout.csv'
p233
s((S'1.6'
S'2.4n'
S'4.6p'
tS'1.0p'
g3
g4
I10
S'5.0'
S'10100'
tp234
S'../data/transmission_line_10_dropoffs/MultidropTransient\\tran_Cdrp=1.0p_Rterm=sqrt(Lline_Cline)_Lenline=5.0_Rline=1.6_Lline=2.4n_Cline=4.6p_Vin=1_0_1_0_0_Vout.csv'
p235
s((S'5.0'
S'79.0p'
S'220.0f'
tS'1.0p'
g3
g9
I10
S'1.0'
S'10000'
tp236
S'../data/transmission_line_10_dropoffs/MultidropBode\\ac_Cdrp=1.0p_Rterm=sqrt(Lline_Cline)_Lenline=1.0_Rline=5.0_Lline=79.0p_Cline=220.0f_Vin=1_0_0_0_0_Vout.csv'
p237
s((S'11.0'
S'79.0p'
S'220.0f'
tS'3.0p'
g3
g9
I10
S'5.0'
S'10101'
tp238
S'../data/transmission_line_10_dropoffs/MultidropBode\\ac_Cdrp=3.0p_Rterm=sqrt(Lline_Cline)_Lenline=5.0_Rline=11.0_Lline=79.0p_Cline=220.0f_Vin=1_0_1_0_1_Vout.csv'
p239
s((S'18.0'
S'4.0n'
S'9.0p'
tS'3.0p'
g3
g4
I10
S'5.0'
S'10101'
tp240
S'../data/transmission_line_10_dropoffs/MultidropTransient\\tran_Cdrp=3.0p_Rterm=sqrt(Lline_Cline)_Lenline=5.0_Rline=18.0_Lline=4.0n_Cline=9.0p_Vin=1_0_1_0_1_Vout.csv'
p241
s((S'20.0m'
S'3.5n'
S'5.8p'
tS'3.0p'
g3
g4
I10
S'5.0'
S'10100'
tp242
S'..\\data\\transmission_line_10_dropoffs\\MultidropTransient\\tran_Cdrp=3.0p_Rterm=sqrt(Lline_Cline)_Lenline=5.0_Rline=20.0m_Lline=3.5n_Cline=5.8p_Vin=1_0_1_0_0_Vout.csv'
p243
s((S'420.0m'
S'2.4n'
S'4.6p'
tS'1.0p'
g3
g4
I10
S'5.0'
S'10100'
tp244
S'../data/transmission_line_10_dropoffs/MultidropTransient\\tran_Cdrp=1.0p_Rterm=sqrt(Lline_Cline)_Lenline=5.0_Rline=420.0m_Lline=2.4n_Cline=4.6p_Vin=1_0_1_0_0_Vout.csv'
p245
s((S'9.0'
S'3.5n'
S'5.8p'
tS'3.0p'
g3
g4
I10
S'5.0'
S'10100'
tp246
S'..\\data\\transmission_line_10_dropoffs\\MultidropTransient\\tran_Cdrp=3.0p_Rterm=sqrt(Lline_Cline)_Lenline=5.0_Rline=9.0_Lline=3.5n_Cline=5.8p_Vin=1_0_1_0_0_Vout.csv'
p247
s((S'420.0m'
S'4.0n'
S'9.0p'
tS'3.0p'
g3
g9
I10
S'5.0'
S'10101'
tp248
S'../data/transmission_line_10_dropoffs/MultidropBode\\ac_Cdrp=3.0p_Rterm=sqrt(Lline_Cline)_Lenline=5.0_Rline=420.0m_Lline=4.0n_Cline=9.0p_Vin=1_0_1_0_1_Vout.csv'
p249
s((S'14.0'
S'79.0p'
S'220.0f'
tS'1.0p'
g3
g9
I10
S'1.0'
S'10000'
tp250
S'../data/transmission_line_10_dropoffs/MultidropBode\\ac_Cdrp=1.0p_Rterm=sqrt(Lline_Cline)_Lenline=1.0_Rline=14.0_Lline=79.0p_Cline=220.0f_Vin=1_0_0_0_0_Vout.csv'
p251
s((S'820.0m'
S'3.5n'
S'5.8p'
tS'3.0p'
g3
g4
I10
S'5.0'
S'10100'
tp252
S'..\\data\\transmission_line_10_dropoffs\\MultidropTransient\\tran_Cdrp=3.0p_Rterm=sqrt(Lline_Cline)_Lenline=5.0_Rline=820.0m_Lline=3.5n_Cline=5.8p_Vin=1_0_1_0_0_Vout.csv'
p253
s((S'420.0m'
S'869.0p'
S'11.2p'
tS'3.0p'
g3
g4
I10
S'5.0'
S'10101'
tp254
S'../data/transmission_line_10_dropoffs/MultidropTransient\\tran_Cdrp=3.0p_Rterm=sqrt(Lline_Cline)_Lenline=5.0_Rline=420.0m_Lline=869.0p_Cline=11.2p_Vin=1_0_1_0_1_Vout.csv'
p255
s((S'14.0'
S'2.4n'
S'4.6p'
tS'3.0p'
g3
g9
I10
S'5.0'
S'10100'
tp256
S'../data/transmission_line_10_dropoffs/MultidropBode\\ac_Cdrp=3.0p_Rterm=sqrt(Lline_Cline)_Lenline=5.0_Rline=14.0_Lline=2.4n_Cline=4.6p_Vin=1_0_1_0_0_Vout.csv'
p257
s((S'8.0'
S'79.0p'
S'220.0f'
tS'1.0p'
g3
g4
I10
S'1.0'
S'10000'
tp258
S'../data/transmission_line_10_dropoffs/MultidropTransient\\tran_Cdrp=1.0p_Rterm=sqrt(Lline_Cline)_Lenline=1.0_Rline=8.0_Lline=79.0p_Cline=220.0f_Vin=1_0_0_0_0_Vout.csv'
p259
s((S'12.0'
S'2.4n'
S'4.6p'
tS'3.0p'
g3
g9
I10
S'5.0'
S'10101'
tp260
S'../data/transmission_line_10_dropoffs/MultidropBode\\ac_Cdrp=3.0p_Rterm=sqrt(Lline_Cline)_Lenline=5.0_Rline=12.0_Lline=2.4n_Cline=4.6p_Vin=1_0_1_0_1_Vout.csv'
p261
s((S'17.0'
S'4.0n'
S'9.0p'
tS'3.0p'
g3
g4
I10
S'5.0'
S'10101'
tp262
S'../data/transmission_line_10_dropoffs/MultidropTransient\\tran_Cdrp=3.0p_Rterm=sqrt(Lline_Cline)_Lenline=5.0_Rline=17.0_Lline=4.0n_Cline=9.0p_Vin=1_0_1_0_1_Vout.csv'
p263
s((S'12.0'
S'2.4n'
S'220.0f'
tS'3.0p'
g3
g4
I10
S'5.0'
S'10100'
tp264
S'../data/transmission_line_10_dropoffs/MultidropTransient\\tran_Cdrp=3.0p_Rterm=sqrt(Lline_Cline)_Lenline=5.0_Rline=12.0_Lline=2.4n_Cline=220.0f_Vin=1_0_1_0_0_Vout.csv'
p265
s((S'20.0m'
S'2.4n'
S'4.6p'
tS'3.0p'
g3
g4
I10
S'5.0'
S'10100'
tp266
S'../data/transmission_line_10_dropoffs/MultidropTransient\\tran_Cdrp=3.0p_Rterm=sqrt(Lline_Cline)_Lenline=5.0_Rline=20.0m_Lline=2.4n_Cline=4.6p_Vin=1_0_1_0_0_Vout.csv'
p267
s((S'7.0'
S'2.4n'
S'4.6p'
tS'3.0p'
g3
g9
I10
S'5.0'
S'10101'
tp268
S'../data/transmission_line_10_dropoffs/MultidropBode\\ac_Cdrp=3.0p_Rterm=sqrt(Lline_Cline)_Lenline=5.0_Rline=7.0_Lline=2.4n_Cline=4.6p_Vin=1_0_1_0_1_Vout.csv'
p269
s((S'620.0m'
S'4.0n'
S'9.0p'
tS'3.0p'
g3
g9
I10
S'5.0'
S'10101'
tp270
S'../data/transmission_line_10_dropoffs/MultidropBode\\ac_Cdrp=3.0p_Rterm=sqrt(Lline_Cline)_Lenline=5.0_Rline=620.0m_Lline=4.0n_Cline=9.0p_Vin=1_0_1_0_1_Vout.csv'
p271
s((S'18.0'
S'2.4n'
S'4.6p'
tS'3.0p'
g3
g4
I10
S'5.0'
S'10101'
tp272
S'../data/transmission_line_10_dropoffs/MultidropTransient\\tran_Cdrp=3.0p_Rterm=sqrt(Lline_Cline)_Lenline=5.0_Rline=18.0_Lline=2.4n_Cline=4.6p_Vin=1_0_1_0_1_Vout.csv'
p273
s((S'13.0'
S'2.4n'
S'4.6p'
tS'3.0p'
g3
g9
I10
S'5.0'
S'10101'
tp274
S'../data/transmission_line_10_dropoffs/MultidropBode\\ac_Cdrp=3.0p_Rterm=sqrt(Lline_Cline)_Lenline=5.0_Rline=13.0_Lline=2.4n_Cline=4.6p_Vin=1_0_1_0_1_Vout.csv'
p275
s((S'1.2'
S'2.4n'
S'4.6p'
tS'1.0p'
g3
g4
I10
S'5.0'
S'10100'
tp276
S'../data/transmission_line_10_dropoffs/MultidropTransient\\tran_Cdrp=1.0p_Rterm=sqrt(Lline_Cline)_Lenline=5.0_Rline=1.2_Lline=2.4n_Cline=4.6p_Vin=1_0_1_0_0_Vout.csv'
p277
s((S'11.0'
S'2.4n'
S'4.6p'
tS'3.0p'
g3
g4
I10
S'5.0'
S'10100'
tp278
S'../data/transmission_line_10_dropoffs/MultidropTransient\\tran_Cdrp=3.0p_Rterm=sqrt(Lline_Cline)_Lenline=5.0_Rline=11.0_Lline=2.4n_Cline=4.6p_Vin=1_0_1_0_0_Vout.csv'
p279
s((S'220.0m'
S'2.4n'
S'4.6p'
tS'1.0p'
g3
g4
I10
S'5.0'
S'10100'
tp280
S'../data/transmission_line_10_dropoffs/MultidropTransient\\tran_Cdrp=1.0p_Rterm=sqrt(Lline_Cline)_Lenline=5.0_Rline=220.0m_Lline=2.4n_Cline=4.6p_Vin=1_0_1_0_0_Vout.csv'
p281
s((S'620.0m'
S'2.4n'
S'4.6p'
tS'1.0p'
g3
g9
I10
S'5.0'
S'10100'
tp282
S'../data/transmission_line_10_dropoffs/MultidropBode\\ac_Cdrp=1.0p_Rterm=sqrt(Lline_Cline)_Lenline=5.0_Rline=620.0m_Lline=2.4n_Cline=4.6p_Vin=1_0_1_0_0_Vout.csv'
p283
s((S'9.0'
S'79.0p'
S'220.0f'
tS'1.0p'
g3
g4
I10
S'1.0'
S'10000'
tp284
S'../data/transmission_line_10_dropoffs/MultidropTransient\\tran_Cdrp=1.0p_Rterm=sqrt(Lline_Cline)_Lenline=1.0_Rline=9.0_Lline=79.0p_Cline=220.0f_Vin=1_0_0_0_0_Vout.csv'
p285
s((S'14.0'
S'4.0n'
S'9.0p'
tS'3.0p'
g3
g4
I10
S'5.0'
S'10101'
tp286
S'../data/transmission_line_10_dropoffs/MultidropTransient\\tran_Cdrp=3.0p_Rterm=sqrt(Lline_Cline)_Lenline=5.0_Rline=14.0_Lline=4.0n_Cline=9.0p_Vin=1_0_1_0_1_Vout.csv'
p287
s((S'9.0'
S'79.0p'
S'220.0f'
tS'1.0p'
g3
g9
I10
S'1.0'
S'10000'
tp288
S'../data/transmission_line_10_dropoffs/MultidropBode\\ac_Cdrp=1.0p_Rterm=sqrt(Lline_Cline)_Lenline=1.0_Rline=9.0_Lline=79.0p_Cline=220.0f_Vin=1_0_0_0_0_Vout.csv'
p289
s((S'5.0'
S'2.4n'
S'4.6p'
tS'3.0p'
g3
g4
I10
S'5.0'
S'10100'
tp290
S'../data/transmission_line_10_dropoffs/MultidropTransient\\tran_Cdrp=3.0p_Rterm=sqrt(Lline_Cline)_Lenline=5.0_Rline=5.0_Lline=2.4n_Cline=4.6p_Vin=1_0_1_0_0_Vout.csv'
p291
s((S'20.0'
S'3.5n'
S'5.8p'
tS'3.0p'
g3
g4
I10
S'5.0'
S'10100'
tp292
S'..\\data\\transmission_line_10_dropoffs\\MultidropTransient\\tran_Cdrp=3.0p_Rterm=sqrt(Lline_Cline)_Lenline=5.0_Rline=20.0_Lline=3.5n_Cline=5.8p_Vin=1_0_1_0_0_Vout.csv'
p293
s((S'6.0'
S'79.0p'
S'220.0f'
tS'1.0p'
g3
g4
I10
S'1.0'
S'10000'
tp294
S'../data/transmission_line_10_dropoffs/MultidropTransient\\tran_Cdrp=1.0p_Rterm=sqrt(Lline_Cline)_Lenline=1.0_Rline=6.0_Lline=79.0p_Cline=220.0f_Vin=1_0_0_0_0_Vout.csv'
p295
s((S'11.0'
S'4.0n'
S'9.0p'
tS'3.0p'
g3
g4
I10
S'5.0'
S'10101'
tp296
S'../data/transmission_line_10_dropoffs/MultidropTransient\\tran_Cdrp=3.0p_Rterm=sqrt(Lline_Cline)_Lenline=5.0_Rline=11.0_Lline=4.0n_Cline=9.0p_Vin=1_0_1_0_1_Vout.csv'
p297
s((S'9.0'
S'2.4n'
S'4.6p'
tS'3.0p'
g3
g4
I10
S'5.0'
S'10101'
tp298
S'../data/transmission_line_10_dropoffs/MultidropTransient\\tran_Cdrp=3.0p_Rterm=sqrt(Lline_Cline)_Lenline=5.0_Rline=9.0_Lline=2.4n_Cline=4.6p_Vin=1_0_1_0_1_Vout.csv'
p299
s((S'20.0m'
S'79.0p'
S'220.0f'
tS'3.0p'
g3
g4
I10
S'5.0'
S'10100'
tp300
S'../data/transmission_line_10_dropoffs/MultidropTransient\\tran_Cdrp=3.0p_Rterm=sqrt(Lline_Cline)_Lenline=5.0_Rline=20.0m_Lline=79.0p_Cline=220.0f_Vin=1_0_1_0_0_Vout.csv'
p301
s((S'420.0m'
S'3.2n'
S'11.2p'
tS'3.0p'
g3
g4
I10
S'5.0'
S'10101'
tp302
S'../data/transmission_line_10_dropoffs/MultidropTransient\\tran_Cdrp=3.0p_Rterm=sqrt(Lline_Cline)_Lenline=5.0_Rline=420.0m_Lline=3.2n_Cline=11.2p_Vin=1_0_1_0_1_Vout.csv'
p303
s((S'14.0'
S'2.4n'
S'4.6p'
tS'3.0p'
g3
g9
I10
S'5.0'
S'10101'
tp304
S'../data/transmission_line_10_dropoffs/MultidropBode\\ac_Cdrp=3.0p_Rterm=sqrt(Lline_Cline)_Lenline=5.0_Rline=14.0_Lline=2.4n_Cline=4.6p_Vin=1_0_1_0_1_Vout.csv'
p305
s((S'1.8'
S'2.4n'
S'4.6p'
tS'1.0p'
g3
g4
I10
S'5.0'
S'10100'
tp306
S'../data/transmission_line_10_dropoffs/MultidropTransient\\tran_Cdrp=1.0p_Rterm=sqrt(Lline_Cline)_Lenline=5.0_Rline=1.8_Lline=2.4n_Cline=4.6p_Vin=1_0_1_0_0_Vout.csv'
p307
s((S'1.2'
S'2.4n'
S'220.0f'
tS'3.0p'
g3
g4
I10
S'5.0'
S'10100'
tp308
S'../data/transmission_line_10_dropoffs/MultidropTransient\\tran_Cdrp=3.0p_Rterm=sqrt(Lline_Cline)_Lenline=5.0_Rline=1.2_Lline=2.4n_Cline=220.0f_Vin=1_0_1_0_0_Vout.csv'
p309
s((S'4.0'
S'4.0n'
S'9.0p'
tS'3.0p'
g3
g4
I10
S'5.0'
S'10101'
tp310
S'../data/transmission_line_10_dropoffs/MultidropTransient\\tran_Cdrp=3.0p_Rterm=sqrt(Lline_Cline)_Lenline=5.0_Rline=4.0_Lline=4.0n_Cline=9.0p_Vin=1_0_1_0_1_Vout.csv'
p311
s((S'13.0'
S'3.5n'
S'5.8p'
tS'3.0p'
g3
g9
I10
S'5.0'
S'10100'
tp312
S'..\\data\\transmission_line_10_dropoffs\\MultidropBode\\ac_Cdrp=3.0p_Rterm=sqrt(Lline_Cline)_Lenline=5.0_Rline=13.0_Lline=3.5n_Cline=5.8p_Vin=1_0_1_0_0_Vout.csv'
p313
s((S'820.0m'
S'2.4n'
S'4.6p'
tS'3.0p'
g3
g9
I10
S'5.0'
S'10100'
tp314
S'../data/transmission_line_10_dropoffs/MultidropBode\\ac_Cdrp=3.0p_Rterm=sqrt(Lline_Cline)_Lenline=5.0_Rline=820.0m_Lline=2.4n_Cline=4.6p_Vin=1_0_1_0_0_Vout.csv'
p315
s((S'420.0m'
S'7.2n'
S'11.2p'
tS'3.0p'
g3
g4
I10
S'5.0'
S'01111'
tp316
S'../data/transmission_line_10_dropoffs/MultidropTransient\\tran_Cdrp=3.0p_Rterm=sqrt(Lline_Cline)_Lenline=5.0_Rline=420.0m_Lline=7.2n_Cline=11.2p_Vin=0_1_1_1_1_Vout.csv'
p317
s((S'8.0'
S'4.0n'
S'9.0p'
tS'3.0p'
g3
g4
I10
S'5.0'
S'10101'
tp318
S'../data/transmission_line_10_dropoffs/MultidropTransient\\tran_Cdrp=3.0p_Rterm=sqrt(Lline_Cline)_Lenline=5.0_Rline=8.0_Lline=4.0n_Cline=9.0p_Vin=1_0_1_0_1_Vout.csv'
p319
s((S'7.0'
S'2.4n'
S'4.6p'
tS'3.0p'
g3
g9
I10
S'5.0'
S'10100'
tp320
S'../data/transmission_line_10_dropoffs/MultidropBode\\ac_Cdrp=3.0p_Rterm=sqrt(Lline_Cline)_Lenline=5.0_Rline=7.0_Lline=2.4n_Cline=4.6p_Vin=1_0_1_0_0_Vout.csv'
p321
s((S'8.0'
S'79.0p'
S'220.0f'
tS'1.0p'
g3
g9
I10
S'1.0'
S'10000'
tp322
S'../data/transmission_line_10_dropoffs/MultidropBode\\ac_Cdrp=1.0p_Rterm=sqrt(Lline_Cline)_Lenline=1.0_Rline=8.0_Lline=79.0p_Cline=220.0f_Vin=1_0_0_0_0_Vout.csv'
p323
s((S'18.0'
S'2.4n'
S'4.6p'
tS'3.0p'
g3
g4
I10
S'5.0'
S'10100'
tp324
S'../data/transmission_line_10_dropoffs/MultidropTransient\\tran_Cdrp=3.0p_Rterm=sqrt(Lline_Cline)_Lenline=5.0_Rline=18.0_Lline=2.4n_Cline=4.6p_Vin=1_0_1_0_0_Vout.csv'
p325
s((S'13.0'
S'2.4n'
S'4.6p'
tS'3.0p'
g3
g9
I10
S'5.0'
S'10100'
tp326
S'../data/transmission_line_10_dropoffs/MultidropBode\\ac_Cdrp=3.0p_Rterm=sqrt(Lline_Cline)_Lenline=5.0_Rline=13.0_Lline=2.4n_Cline=4.6p_Vin=1_0_1_0_0_Vout.csv'
p327
s((S'3.0'
S'3.5n'
S'5.8p'
tS'3.0p'
g3
g9
I10
S'5.0'
S'10100'
tp328
S'..\\data\\transmission_line_10_dropoffs\\MultidropBode\\ac_Cdrp=3.0p_Rterm=sqrt(Lline_Cline)_Lenline=5.0_Rline=3.0_Lline=3.5n_Cline=5.8p_Vin=1_0_1_0_0_Vout.csv'
p329
s((S'11.0'
S'2.4n'
S'4.6p'
tS'3.0p'
g3
g4
I10
S'5.0'
S'10101'
tp330
S'../data/transmission_line_10_dropoffs/MultidropTransient\\tran_Cdrp=3.0p_Rterm=sqrt(Lline_Cline)_Lenline=5.0_Rline=11.0_Lline=2.4n_Cline=4.6p_Vin=1_0_1_0_1_Vout.csv'
p331
s((S'9.0'
S'2.4n'
S'4.6p'
tS'1.0p'
g3
g9
I10
S'5.0'
S'10100'
tp332
S'../data/transmission_line_10_dropoffs/MultidropBode\\ac_Cdrp=1.0p_Rterm=sqrt(Lline_Cline)_Lenline=5.0_Rline=9.0_Lline=2.4n_Cline=4.6p_Vin=1_0_1_0_0_Vout.csv'
p333
s((S'820.0m'
S'2.4n'
S'4.6p'
tS'3.0p'
g3
g4
I10
S'5.0'
S'10100'
tp334
S'../data/transmission_line_10_dropoffs/MultidropTransient\\tran_Cdrp=3.0p_Rterm=sqrt(Lline_Cline)_Lenline=5.0_Rline=820.0m_Lline=2.4n_Cline=4.6p_Vin=1_0_1_0_0_Vout.csv'
p335
s((S'420.0m'
S'79.0p'
S'11.2p'
tS'3.0p'
g3
g4
I10
S'5.0'
S'10101'
tp336
S'../data/transmission_line_10_dropoffs/MultidropTransient\\tran_Cdrp=3.0p_Rterm=sqrt(Lline_Cline)_Lenline=5.0_Rline=420.0m_Lline=79.0p_Cline=11.2p_Vin=1_0_1_0_1_Vout.csv'
p337
s((S'13.0'
S'2.4n'
S'4.6p'
tS'1.0p'
g3
g4
I10
S'5.0'
S'10100'
tp338
S'../data/transmission_line_10_dropoffs/MultidropTransient\\tran_Cdrp=1.0p_Rterm=sqrt(Lline_Cline)_Lenline=5.0_Rline=13.0_Lline=2.4n_Cline=4.6p_Vin=1_0_1_0_0_Vout.csv'
p339
s((S'420.0m'
S'7.2n'
S'11.2p'
tS'3.0p'
g3
g4
I10
S'5.0'
S'10101'
tp340
S'../data/transmission_line_10_dropoffs/MultidropTransient\\tran_Cdrp=3.0p_Rterm=sqrt(Lline_Cline)_Lenline=5.0_Rline=420.0m_Lline=7.2n_Cline=11.2p_Vin=1_0_1_0_1_Vout.csv'
p341
s((S'3.0'
S'2.4n'
S'4.6p'
tS'1.0p'
g3
g9
I10
S'5.0'
S'10100'
tp342
S'../data/transmission_line_10_dropoffs/MultidropBode\\ac_Cdrp=1.0p_Rterm=sqrt(Lline_Cline)_Lenline=5.0_Rline=3.0_Lline=2.4n_Cline=4.6p_Vin=1_0_1_0_0_Vout.csv'
p343
s((S'5.0'
S'2.4n'
S'4.6p'
tS'3.0p'
g3
g4
I10
S'5.0'
S'10101'
tp344
S'../data/transmission_line_10_dropoffs/MultidropTransient\\tran_Cdrp=3.0p_Rterm=sqrt(Lline_Cline)_Lenline=5.0_Rline=5.0_Lline=2.4n_Cline=4.6p_Vin=1_0_1_0_1_Vout.csv'
p345
s((S'9.0'
S'2.4n'
S'4.6p'
tS'3.0p'
g3
g9
I10
S'5.0'
S'10101'
tp346
S'../data/transmission_line_10_dropoffs/MultidropBode\\ac_Cdrp=3.0p_Rterm=sqrt(Lline_Cline)_Lenline=5.0_Rline=9.0_Lline=2.4n_Cline=4.6p_Vin=1_0_1_0_1_Vout.csv'
p347
s((S'12.0'
S'79.0p'
S'220.0f'
tS'1.0p'
g3
g4
I10
S'1.0'
S'10000'
tp348
S'../data/transmission_line_10_dropoffs/MultidropTransient\\tran_Cdrp=1.0p_Rterm=sqrt(Lline_Cline)_Lenline=1.0_Rline=12.0_Lline=79.0p_Cline=220.0f_Vin=1_0_0_0_0_Vout.csv'
p349
s((S'1.2'
S'79.0p'
S'220.0f'
tS'3.0p'
g3
g4
I10
S'5.0'
S'10101'
tp350
S'../data/transmission_line_10_dropoffs/MultidropTransient\\tran_Cdrp=3.0p_Rterm=sqrt(Lline_Cline)_Lenline=5.0_Rline=1.2_Lline=79.0p_Cline=220.0f_Vin=1_0_1_0_1_Vout.csv'
p351
s((S'420.0m'
S'3.2n'
S'11.2p'
tS'3.0p'
g3
g4
I10
S'5.0'
S'01111'
tp352
S'../data/transmission_line_10_dropoffs/MultidropTransient\\tran_Cdrp=3.0p_Rterm=sqrt(Lline_Cline)_Lenline=5.0_Rline=420.0m_Lline=3.2n_Cline=11.2p_Vin=0_1_1_1_1_Vout.csv'
p353
s((S'18.0'
S'2.4n'
S'4.6p'
tS'1.0p'
g3
g9
I10
S'5.0'
S'10100'
tp354
S'../data/transmission_line_10_dropoffs/MultidropBode\\ac_Cdrp=1.0p_Rterm=sqrt(Lline_Cline)_Lenline=5.0_Rline=18.0_Lline=2.4n_Cline=4.6p_Vin=1_0_1_0_0_Vout.csv'
p355
s((S'1.2'
S'2.4n'
S'4.6p'
tS'3.0p'
g3
g9
I10
S'5.0'
S'10101'
tp356
S'../data/transmission_line_10_dropoffs/MultidropBode\\ac_Cdrp=3.0p_Rterm=sqrt(Lline_Cline)_Lenline=5.0_Rline=1.2_Lline=2.4n_Cline=4.6p_Vin=1_0_1_0_1_Vout.csv'
p357
s((S'6.0'
S'2.4n'
S'4.6p'
tS'3.0p'
g3
g4
I10
S'5.0'
S'10101'
tp358
S'../data/transmission_line_10_dropoffs/MultidropTransient\\tran_Cdrp=3.0p_Rterm=sqrt(Lline_Cline)_Lenline=5.0_Rline=6.0_Lline=2.4n_Cline=4.6p_Vin=1_0_1_0_1_Vout.csv'
p359
s((S'4.0'
S'2.4n'
S'4.6p'
tS'3.0p'
g3
g4
I10
S'5.0'
S'10101'
tp360
S'../data/transmission_line_10_dropoffs/MultidropTransient\\tran_Cdrp=3.0p_Rterm=sqrt(Lline_Cline)_Lenline=5.0_Rline=4.0_Lline=2.4n_Cline=4.6p_Vin=1_0_1_0_1_Vout.csv'
p361
s((S'18.0'
S'4.0n'
S'9.0p'
tS'3.0p'
g3
g9
I10
S'5.0'
S'10101'
tp362
S'../data/transmission_line_10_dropoffs/MultidropBode\\ac_Cdrp=3.0p_Rterm=sqrt(Lline_Cline)_Lenline=5.0_Rline=18.0_Lline=4.0n_Cline=9.0p_Vin=1_0_1_0_1_Vout.csv'
p363
s((S'18.0'
S'79.0p'
S'220.0f'
tS'1.0p'
g3
g4
I10
S'1.0'
S'10000'
tp364
S'../data/transmission_line_10_dropoffs/MultidropTransient\\tran_Cdrp=1.0p_Rterm=sqrt(Lline_Cline)_Lenline=1.0_Rline=18.0_Lline=79.0p_Cline=220.0f_Vin=1_0_0_0_0_Vout.csv'
p365
s((S'15.0'
S'79.0p'
S'220.0f'
tS'1.0p'
g3
g9
I10
S'1.0'
S'10000'
tp366
S'../data/transmission_line_10_dropoffs/MultidropBode\\ac_Cdrp=1.0p_Rterm=sqrt(Lline_Cline)_Lenline=1.0_Rline=15.0_Lline=79.0p_Cline=220.0f_Vin=1_0_0_0_0_Vout.csv'
p367
s((S'6.0'
S'2.4n'
S'4.6p'
tS'3.0p'
g3
g9
I10
S'5.0'
S'10100'
tp368
S'../data/transmission_line_10_dropoffs/MultidropBode\\ac_Cdrp=3.0p_Rterm=sqrt(Lline_Cline)_Lenline=5.0_Rline=6.0_Lline=2.4n_Cline=4.6p_Vin=1_0_1_0_0_Vout.csv'
p369
s((S'10.0'
S'79.0p'
S'220.0f'
tS'1.0p'
g3
g4
I10
S'1.0'
S'10000'
tp370
S'../data/transmission_line_10_dropoffs/MultidropTransient\\tran_Cdrp=1.0p_Rterm=sqrt(Lline_Cline)_Lenline=1.0_Rline=10.0_Lline=79.0p_Cline=220.0f_Vin=1_0_0_0_0_Vout.csv'
p371
s((S'420.0m'
S'1.7n'
S'11.2p'
tS'3.0p'
g3
g4
I10
S'5.0'
S'01111'
tp372
S'../data/transmission_line_10_dropoffs/MultidropTransient\\tran_Cdrp=3.0p_Rterm=sqrt(Lline_Cline)_Lenline=5.0_Rline=420.0m_Lline=1.7n_Cline=11.2p_Vin=0_1_1_1_1_Vout.csv'
p373
s((S'12.0'
S'4.0n'
S'9.0p'
tS'3.0p'
g3
g4
I10
S'5.0'
S'10101'
tp374
S'../data/transmission_line_10_dropoffs/MultidropTransient\\tran_Cdrp=3.0p_Rterm=sqrt(Lline_Cline)_Lenline=5.0_Rline=12.0_Lline=4.0n_Cline=9.0p_Vin=1_0_1_0_1_Vout.csv'
p375
s((S'16.0'
S'2.4n'
S'220.0f'
tS'3.0p'
g3
g9
I10
S'5.0'
S'10100'
tp376
S'../data/transmission_line_10_dropoffs/MultidropBode\\ac_Cdrp=3.0p_Rterm=sqrt(Lline_Cline)_Lenline=5.0_Rline=16.0_Lline=2.4n_Cline=220.0f_Vin=1_0_1_0_0_Vout.csv'
p377
s((S'10.0'
S'2.4n'
S'4.6p'
tS'1.0p'
g3
g4
I10
S'5.0'
S'10100'
tp378
S'../data/transmission_line_10_dropoffs/MultidropTransient\\tran_Cdrp=1.0p_Rterm=sqrt(Lline_Cline)_Lenline=5.0_Rline=10.0_Lline=2.4n_Cline=4.6p_Vin=1_0_1_0_0_Vout.csv'
p379
s((S'18.0'
S'3.5n'
S'5.8p'
tS'3.0p'
g3
g9
I10
S'5.0'
S'10100'
tp380
S'..\\data\\transmission_line_10_dropoffs\\MultidropBode\\ac_Cdrp=3.0p_Rterm=sqrt(Lline_Cline)_Lenline=5.0_Rline=18.0_Lline=3.5n_Cline=5.8p_Vin=1_0_1_0_0_Vout.csv'
p381
s((S'17.0'
S'3.5n'
S'5.8p'
tS'3.0p'
g3
g9
I10
S'5.0'
S'10100'
tp382
S'..\\data\\transmission_line_10_dropoffs\\MultidropBode\\ac_Cdrp=3.0p_Rterm=sqrt(Lline_Cline)_Lenline=5.0_Rline=17.0_Lline=3.5n_Cline=5.8p_Vin=1_0_1_0_0_Vout.csv'
p383
s((S'820.0m'
S'2.4n'
S'4.6p'
tS'3.0p'
g3
g9
I10
S'5.0'
S'10101'
tp384
S'../data/transmission_line_10_dropoffs/MultidropBode\\ac_Cdrp=3.0p_Rterm=sqrt(Lline_Cline)_Lenline=5.0_Rline=820.0m_Lline=2.4n_Cline=4.6p_Vin=1_0_1_0_1_Vout.csv'
p385
s((S'220.0m'
S'2.4n'
S'4.6p'
tS'1.0p'
g3
g9
I10
S'5.0'
S'10100'
tp386
S'../data/transmission_line_10_dropoffs/MultidropBode\\ac_Cdrp=1.0p_Rterm=sqrt(Lline_Cline)_Lenline=5.0_Rline=220.0m_Lline=2.4n_Cline=4.6p_Vin=1_0_1_0_0_Vout.csv'
p387
s((S'1.0'
S'2.4n'
S'4.6p'
tS'3.0p'
g3
g4
I10
S'5.0'
S'10100'
tp388
S'../data/transmission_line_10_dropoffs/MultidropTransient\\tran_Cdrp=3.0p_Rterm=sqrt(Lline_Cline)_Lenline=5.0_Rline=1.0_Lline=2.4n_Cline=4.6p_Vin=1_0_1_0_0_Vout.csv'
p389
s((S'20.0m'
S'79.0p'
S'220.0f'
tS'3.0p'
g3
g9
I10
S'5.0'
S'10101'
tp390
S'../data/transmission_line_10_dropoffs/MultidropBode\\ac_Cdrp=3.0p_Rterm=sqrt(Lline_Cline)_Lenline=5.0_Rline=20.0m_Lline=79.0p_Cline=220.0f_Vin=1_0_1_0_1_Vout.csv'
p391
s((S'7.0'
S'2.4n'
S'4.6p'
tS'3.0p'
g3
g4
I10
S'5.0'
S'10100'
tp392
S'../data/transmission_line_10_dropoffs/MultidropTransient\\tran_Cdrp=3.0p_Rterm=sqrt(Lline_Cline)_Lenline=5.0_Rline=7.0_Lline=2.4n_Cline=4.6p_Vin=1_0_1_0_0_Vout.csv'
p393
s((S'20.0m'
S'3.5n'
S'5.8p'
tS'3.0p'
g3
g9
I10
S'5.0'
S'10100'
tp394
S'..\\data\\transmission_line_10_dropoffs\\MultidropBode\\ac_Cdrp=3.0p_Rterm=sqrt(Lline_Cline)_Lenline=5.0_Rline=20.0m_Lline=3.5n_Cline=5.8p_Vin=1_0_1_0_0_Vout.csv'
p395
s((S'11.0'
S'4.0n'
S'9.0p'
tS'3.0p'
g3
g9
I10
S'5.0'
S'10101'
tp396
S'../data/transmission_line_10_dropoffs/MultidropBode\\ac_Cdrp=3.0p_Rterm=sqrt(Lline_Cline)_Lenline=5.0_Rline=11.0_Lline=4.0n_Cline=9.0p_Vin=1_0_1_0_1_Vout.csv'
p397
s((S'5.0'
S'3.5n'
S'5.8p'
tS'3.0p'
g3
g9
I10
S'5.0'
S'10100'
tp398
S'..\\data\\transmission_line_10_dropoffs\\MultidropBode\\ac_Cdrp=3.0p_Rterm=sqrt(Lline_Cline)_Lenline=5.0_Rline=5.0_Lline=3.5n_Cline=5.8p_Vin=1_0_1_0_0_Vout.csv'
p399
s((S'12.0'
S'3.5n'
S'5.8p'
tS'3.0p'
g3
g9
I10
S'5.0'
S'10100'
tp400
S'..\\data\\transmission_line_10_dropoffs\\MultidropBode\\ac_Cdrp=3.0p_Rterm=sqrt(Lline_Cline)_Lenline=5.0_Rline=12.0_Lline=3.5n_Cline=5.8p_Vin=1_0_1_0_0_Vout.csv'
p401
s((S'17.0'
S'3.5n'
S'5.8p'
tS'3.0p'
g3
g4
I10
S'5.0'
S'10100'
tp402
S'..\\data\\transmission_line_10_dropoffs\\MultidropTransient\\tran_Cdrp=3.0p_Rterm=sqrt(Lline_Cline)_Lenline=5.0_Rline=17.0_Lline=3.5n_Cline=5.8p_Vin=1_0_1_0_0_Vout.csv'
p403
s((S'7.0'
S'2.4n'
S'220.0f'
tS'3.0p'
g3
g4
I10
S'5.0'
S'10100'
tp404
S'../data/transmission_line_10_dropoffs/MultidropTransient\\tran_Cdrp=3.0p_Rterm=sqrt(Lline_Cline)_Lenline=5.0_Rline=7.0_Lline=2.4n_Cline=220.0f_Vin=1_0_1_0_0_Vout.csv'
p405
s((S'620.0m'
S'2.4n'
S'220.0f'
tS'3.0p'
g3
g4
I10
S'5.0'
S'10100'
tp406
S'../data/transmission_line_10_dropoffs/MultidropTransient\\tran_Cdrp=3.0p_Rterm=sqrt(Lline_Cline)_Lenline=5.0_Rline=620.0m_Lline=2.4n_Cline=220.0f_Vin=1_0_1_0_0_Vout.csv'
p407
s((S'8.0'
S'79.0p'
S'220.0f'
tS'3.0p'
g3
g4
I10
S'5.0'
S'10101'
tp408
S'../data/transmission_line_10_dropoffs/MultidropTransient\\tran_Cdrp=3.0p_Rterm=sqrt(Lline_Cline)_Lenline=5.0_Rline=8.0_Lline=79.0p_Cline=220.0f_Vin=1_0_1_0_1_Vout.csv'
p409
s((S'8.0'
S'2.4n'
S'4.6p'
tS'3.0p'
g3
g9
I10
S'5.0'
S'10100'
tp410
S'../data/transmission_line_10_dropoffs/MultidropBode\\ac_Cdrp=3.0p_Rterm=sqrt(Lline_Cline)_Lenline=5.0_Rline=8.0_Lline=2.4n_Cline=4.6p_Vin=1_0_1_0_0_Vout.csv'
p411
s((S'11.0'
S'79.0p'
S'220.0f'
tS'1.0p'
g3
g4
I10
S'1.0'
S'10000'
tp412
S'../data/transmission_line_10_dropoffs/MultidropTransient\\tran_Cdrp=1.0p_Rterm=sqrt(Lline_Cline)_Lenline=1.0_Rline=11.0_Lline=79.0p_Cline=220.0f_Vin=1_0_0_0_0_Vout.csv'
p413
s((S'9.0'
S'2.4n'
S'4.6p'
tS'3.0p'
g3
g9
I10
S'5.0'
S'10100'
tp414
S'../data/transmission_line_10_dropoffs/MultidropBode\\ac_Cdrp=3.0p_Rterm=sqrt(Lline_Cline)_Lenline=5.0_Rline=9.0_Lline=2.4n_Cline=4.6p_Vin=1_0_1_0_0_Vout.csv'
p415
s((S'10.0'
S'2.4n'
S'220.0f'
tS'3.0p'
g3
g9
I10
S'5.0'
S'10100'
tp416
S'../data/transmission_line_10_dropoffs/MultidropBode\\ac_Cdrp=3.0p_Rterm=sqrt(Lline_Cline)_Lenline=5.0_Rline=10.0_Lline=2.4n_Cline=220.0f_Vin=1_0_1_0_0_Vout.csv'
p417
s((S'5.0'
S'3.5n'
S'5.8p'
tS'3.0p'
g3
g4
I10
S'5.0'
S'10100'
tp418
S'..\\data\\transmission_line_10_dropoffs\\MultidropTransient\\tran_Cdrp=3.0p_Rterm=sqrt(Lline_Cline)_Lenline=5.0_Rline=5.0_Lline=3.5n_Cline=5.8p_Vin=1_0_1_0_0_Vout.csv'
p419
s((S'14.0'
S'2.4n'
S'4.6p'
tS'1.0p'
g3
g9
I10
S'5.0'
S'10100'
tp420
S'../data/transmission_line_10_dropoffs/MultidropBode\\ac_Cdrp=1.0p_Rterm=sqrt(Lline_Cline)_Lenline=5.0_Rline=14.0_Lline=2.4n_Cline=4.6p_Vin=1_0_1_0_0_Vout.csv'
p421
s((S'1.0'
S'2.4n'
S'4.6p'
tS'1.0p'
g3
g4
I10
S'5.0'
S'10100'
tp422
S'../data/transmission_line_10_dropoffs/MultidropTransient\\tran_Cdrp=1.0p_Rterm=sqrt(Lline_Cline)_Lenline=5.0_Rline=1.0_Lline=2.4n_Cline=4.6p_Vin=1_0_1_0_0_Vout.csv'
p423
s((S'20.0m'
S'79.0p'
S'220.0f'
tS'3.0p'
g3
g4
I10
S'5.0'
S'01111'
tp424
S'../data/transmission_line_10_dropoffs/MultidropTransient\\tran_Cdrp=3.0p_Rterm=sqrt(Lline_Cline)_Lenline=5.0_Rline=20.0m_Lline=79.0p_Cline=220.0f_Vin=0_1_1_1_1_Vout.csv'
p425
s((S'7.0'
S'2.4n'
S'4.6p'
tS'1.0p'
g3
g4
I10
S'5.0'
S'10100'
tp426
S'../data/transmission_line_10_dropoffs/MultidropTransient\\tran_Cdrp=1.0p_Rterm=sqrt(Lline_Cline)_Lenline=5.0_Rline=7.0_Lline=2.4n_Cline=4.6p_Vin=1_0_1_0_0_Vout.csv'
p427
s((S'7.0'
S'79.0p'
S'220.0f'
tS'3.0p'
g3
g4
I10
S'5.0'
S'10101'
tp428
S'../data/transmission_line_10_dropoffs/MultidropTransient\\tran_Cdrp=3.0p_Rterm=sqrt(Lline_Cline)_Lenline=5.0_Rline=7.0_Lline=79.0p_Cline=220.0f_Vin=1_0_1_0_1_Vout.csv'
p429
s((S'6.0'
S'2.4n'
S'4.6p'
tS'3.0p'
g3
g4
I10
S'5.0'
S'10100'
tp430
S'../data/transmission_line_10_dropoffs/MultidropTransient\\tran_Cdrp=3.0p_Rterm=sqrt(Lline_Cline)_Lenline=5.0_Rline=6.0_Lline=2.4n_Cline=4.6p_Vin=1_0_1_0_0_Vout.csv'
p431
s((S'4.0'
S'2.4n'
S'4.6p'
tS'3.0p'
g3
g4
I10
S'5.0'
S'10100'
tp432
S'../data/transmission_line_10_dropoffs/MultidropTransient\\tran_Cdrp=3.0p_Rterm=sqrt(Lline_Cline)_Lenline=5.0_Rline=4.0_Lline=2.4n_Cline=4.6p_Vin=1_0_1_0_0_Vout.csv'
p433
s((S'20.0m'
S'4.0n'
S'9.0p'
tS'3.0p'
g3
g4
I10
S'5.0'
S'10101'
tp434
S'../data/transmission_line_10_dropoffs/MultidropTransient\\tran_Cdrp=3.0p_Rterm=sqrt(Lline_Cline)_Lenline=5.0_Rline=20.0m_Lline=4.0n_Cline=9.0p_Vin=1_0_1_0_1_Vout.csv'
p435
s((S'5.0'
S'2.4n'
S'4.6p'
tS'3.0p'
g3
g9
I10
S'5.0'
S'10101'
tp436
S'../data/transmission_line_10_dropoffs/MultidropBode\\ac_Cdrp=3.0p_Rterm=sqrt(Lline_Cline)_Lenline=5.0_Rline=5.0_Lline=2.4n_Cline=4.6p_Vin=1_0_1_0_1_Vout.csv'
p437
s((S'6.0'
S'2.4n'
S'4.6p'
tS'3.0p'
g3
g9
I10
S'5.0'
S'10101'
tp438
S'../data/transmission_line_10_dropoffs/MultidropBode\\ac_Cdrp=3.0p_Rterm=sqrt(Lline_Cline)_Lenline=5.0_Rline=6.0_Lline=2.4n_Cline=4.6p_Vin=1_0_1_0_1_Vout.csv'
p439
s((S'12.0'
S'79.0p'
S'220.0f'
tS'1.0p'
g3
g9
I10
S'1.0'
S'10000'
tp440
S'../data/transmission_line_10_dropoffs/MultidropBode\\ac_Cdrp=1.0p_Rterm=sqrt(Lline_Cline)_Lenline=1.0_Rline=12.0_Lline=79.0p_Cline=220.0f_Vin=1_0_0_0_0_Vout.csv'
p441
s((S'420.0m'
S'4.0n'
S'11.2p'
tS'3.0p'
g3
g4
I10
S'5.0'
S'01111'
tp442
S'../data/transmission_line_10_dropoffs/MultidropTransient\\tran_Cdrp=3.0p_Rterm=sqrt(Lline_Cline)_Lenline=5.0_Rline=420.0m_Lline=4.0n_Cline=11.2p_Vin=0_1_1_1_1_Vout.csv'
p443
s((S'1.6'
S'4.0n'
S'9.0p'
tS'3.0p'
g3
g4
I10
S'5.0'
S'10101'
tp444
S'../data/transmission_line_10_dropoffs/MultidropTransient\\tran_Cdrp=3.0p_Rterm=sqrt(Lline_Cline)_Lenline=5.0_Rline=1.6_Lline=4.0n_Cline=9.0p_Vin=1_0_1_0_1_Vout.csv'
p445
s((S'1.0'
S'2.4n'
S'4.6p'
tS'3.0p'
g3
g4
I10
S'5.0'
S'10101'
tp446
S'../data/transmission_line_10_dropoffs/MultidropTransient\\tran_Cdrp=3.0p_Rterm=sqrt(Lline_Cline)_Lenline=5.0_Rline=1.0_Lline=2.4n_Cline=4.6p_Vin=1_0_1_0_1_Vout.csv'
p447
s((S'13.0'
S'2.4n'
S'4.6p'
tS'1.0p'
g3
g9
I10
S'5.0'
S'10100'
tp448
S'../data/transmission_line_10_dropoffs/MultidropBode\\ac_Cdrp=1.0p_Rterm=sqrt(Lline_Cline)_Lenline=5.0_Rline=13.0_Lline=2.4n_Cline=4.6p_Vin=1_0_1_0_0_Vout.csv'
p449
s((S'8.0'
S'2.4n'
S'4.6p'
tS'1.0p'
g3
g9
I10
S'5.0'
S'10100'
tp450
S'../data/transmission_line_10_dropoffs/MultidropBode\\ac_Cdrp=1.0p_Rterm=sqrt(Lline_Cline)_Lenline=5.0_Rline=8.0_Lline=2.4n_Cline=4.6p_Vin=1_0_1_0_0_Vout.csv'
p451
s((S'11.0'
S'79.0p'
S'220.0f'
tS'3.0p'
g3
g4
I10
S'5.0'
S'10101'
tp452
S'../data/transmission_line_10_dropoffs/MultidropTransient\\tran_Cdrp=3.0p_Rterm=sqrt(Lline_Cline)_Lenline=5.0_Rline=11.0_Lline=79.0p_Cline=220.0f_Vin=1_0_1_0_1_Vout.csv'
p453
s((S'7.0'
S'2.4n'
S'4.6p'
tS'3.0p'
g3
g4
I10
S'5.0'
S'10101'
tp454
S'../data/transmission_line_10_dropoffs/MultidropTransient\\tran_Cdrp=3.0p_Rterm=sqrt(Lline_Cline)_Lenline=5.0_Rline=7.0_Lline=2.4n_Cline=4.6p_Vin=1_0_1_0_1_Vout.csv'
p455
s((S'18.0'
S'3.5n'
S'5.8p'
tS'3.0p'
g3
g4
I10
S'5.0'
S'10100'
tp456
S'..\\data\\transmission_line_10_dropoffs\\MultidropTransient\\tran_Cdrp=3.0p_Rterm=sqrt(Lline_Cline)_Lenline=5.0_Rline=18.0_Lline=3.5n_Cline=5.8p_Vin=1_0_1_0_0_Vout.csv'
p457
s((S'15.0'
S'79.0p'
S'220.0f'
tS'1.0p'
g3
g4
I10
S'1.0'
S'10000'
tp458
S'../data/transmission_line_10_dropoffs/MultidropTransient\\tran_Cdrp=1.0p_Rterm=sqrt(Lline_Cline)_Lenline=1.0_Rline=15.0_Lline=79.0p_Cline=220.0f_Vin=1_0_0_0_0_Vout.csv'
p459
s((S'16.0'
S'2.4n'
S'4.6p'
tS'1.0p'
g3
g9
I10
S'5.0'
S'10100'
tp460
S'../data/transmission_line_10_dropoffs/MultidropBode\\ac_Cdrp=1.0p_Rterm=sqrt(Lline_Cline)_Lenline=5.0_Rline=16.0_Lline=2.4n_Cline=4.6p_Vin=1_0_1_0_0_Vout.csv'
p461
s((S'19.0'
S'2.4n'
S'220.0f'
tS'3.0p'
g3
g9
I10
S'5.0'
S'10100'
tp462
S'../data/transmission_line_10_dropoffs/MultidropBode\\ac_Cdrp=3.0p_Rterm=sqrt(Lline_Cline)_Lenline=5.0_Rline=19.0_Lline=2.4n_Cline=220.0f_Vin=1_0_1_0_0_Vout.csv'
p463
s((S'1.0'
S'79.0p'
S'220.0f'
tS'3.0p'
g3
g9
I10
S'5.0'
S'10101'
tp464
S'../data/transmission_line_10_dropoffs/MultidropBode\\ac_Cdrp=3.0p_Rterm=sqrt(Lline_Cline)_Lenline=5.0_Rline=1.0_Lline=79.0p_Cline=220.0f_Vin=1_0_1_0_1_Vout.csv'
p465
s((S'6.0'
S'79.0p'
S'220.0f'
tS'3.0p'
g3
g4
I10
S'5.0'
S'10101'
tp466
S'../data/transmission_line_10_dropoffs/MultidropTransient\\tran_Cdrp=3.0p_Rterm=sqrt(Lline_Cline)_Lenline=5.0_Rline=6.0_Lline=79.0p_Cline=220.0f_Vin=1_0_1_0_1_Vout.csv'
p467
s((S'12.0'
S'3.5n'
S'5.8p'
tS'3.0p'
g3
g4
I10
S'5.0'
S'10100'
tp468
S'..\\data\\transmission_line_10_dropoffs\\MultidropTransient\\tran_Cdrp=3.0p_Rterm=sqrt(Lline_Cline)_Lenline=5.0_Rline=12.0_Lline=3.5n_Cline=5.8p_Vin=1_0_1_0_0_Vout.csv'
p469
s((S'5.0'
S'79.0p'
S'220.0f'
tS'3.0p'
g3
g9
I10
S'5.0'
S'10101'
tp470
S'../data/transmission_line_10_dropoffs/MultidropBode\\ac_Cdrp=3.0p_Rterm=sqrt(Lline_Cline)_Lenline=5.0_Rline=5.0_Lline=79.0p_Cline=220.0f_Vin=1_0_1_0_1_Vout.csv'
p471
s((S'16.0'
S'2.4n'
S'4.6p'
tS'3.0p'
g3
g9
I10
S'5.0'
S'10100'
tp472
S'../data/transmission_line_10_dropoffs/MultidropBode\\ac_Cdrp=3.0p_Rterm=sqrt(Lline_Cline)_Lenline=5.0_Rline=16.0_Lline=2.4n_Cline=4.6p_Vin=1_0_1_0_0_Vout.csv'
p473
s((S'420.0m'
S'2.4n'
S'4.6p'
tS'3.0p'
g3
g9
I10
S'5.0'
S'10100'
tp474
S'../data/transmission_line_10_dropoffs/MultidropBode\\ac_Cdrp=3.0p_Rterm=sqrt(Lline_Cline)_Lenline=5.0_Rline=420.0m_Lline=2.4n_Cline=4.6p_Vin=1_0_1_0_0_Vout.csv'
p475
s((S'11.0'
S'2.4n'
S'4.6p'
tS'3.0p'
g3
g9
I10
S'5.0'
S'10101'
tp476
S'../data/transmission_line_10_dropoffs/MultidropBode\\ac_Cdrp=3.0p_Rterm=sqrt(Lline_Cline)_Lenline=5.0_Rline=11.0_Lline=2.4n_Cline=4.6p_Vin=1_0_1_0_1_Vout.csv'
p477
s((S'5.0'
S'79.0p'
S'220.0f'
tS'1.0p'
g3
g4
I10
S'1.0'
S'10000'
tp478
S'../data/transmission_line_10_dropoffs/MultidropTransient\\tran_Cdrp=1.0p_Rterm=sqrt(Lline_Cline)_Lenline=1.0_Rline=5.0_Lline=79.0p_Cline=220.0f_Vin=1_0_0_0_0_Vout.csv'
p479
s((S'5.0'
S'2.4n'
S'4.6p'
tS'3.0p'
g3
g9
I10
S'5.0'
S'10100'
tp480
S'../data/transmission_line_10_dropoffs/MultidropBode\\ac_Cdrp=3.0p_Rterm=sqrt(Lline_Cline)_Lenline=5.0_Rline=5.0_Lline=2.4n_Cline=4.6p_Vin=1_0_1_0_0_Vout.csv'
p481
s((S'20.0m'
S'2.4n'
S'4.6p'
tS'3.0p'
g3
g9
I10
S'5.0'
S'10101'
tp482
S'../data/transmission_line_10_dropoffs/MultidropBode\\ac_Cdrp=3.0p_Rterm=sqrt(Lline_Cline)_Lenline=5.0_Rline=20.0m_Lline=2.4n_Cline=4.6p_Vin=1_0_1_0_1_Vout.csv'
p483
s((S'8.0'
S'79.0p'
S'220.0f'
tS'3.0p'
g3
g9
I10
S'5.0'
S'10101'
tp484
S'../data/transmission_line_10_dropoffs/MultidropBode\\ac_Cdrp=3.0p_Rterm=sqrt(Lline_Cline)_Lenline=5.0_Rline=8.0_Lline=79.0p_Cline=220.0f_Vin=1_0_1_0_1_Vout.csv'
p485
s((S'13.0'
S'3.5n'
S'5.8p'
tS'3.0p'
g3
g4
I10
S'5.0'
S'10100'
tp486
S'..\\data\\transmission_line_10_dropoffs\\MultidropTransient\\tran_Cdrp=3.0p_Rterm=sqrt(Lline_Cline)_Lenline=5.0_Rline=13.0_Lline=3.5n_Cline=5.8p_Vin=1_0_1_0_0_Vout.csv'
p487
s((S'17.0'
S'4.0n'
S'9.0p'
tS'3.0p'
g3
g9
I10
S'5.0'
S'10101'
tp488
S'../data/transmission_line_10_dropoffs/MultidropBode\\ac_Cdrp=3.0p_Rterm=sqrt(Lline_Cline)_Lenline=5.0_Rline=17.0_Lline=4.0n_Cline=9.0p_Vin=1_0_1_0_1_Vout.csv'
p489
s((S'1.8'
S'2.4n'
S'4.6p'
tS'3.0p'
g3
g4
I10
S'5.0'
S'10100'
tp490
S'../data/transmission_line_10_dropoffs/MultidropTransient\\tran_Cdrp=3.0p_Rterm=sqrt(Lline_Cline)_Lenline=5.0_Rline=1.8_Lline=2.4n_Cline=4.6p_Vin=1_0_1_0_0_Vout.csv'
p491
s((S'15.0'
S'79.0p'
S'220.0f'
tS'3.0p'
g3
g4
I10
S'5.0'
S'10101'
tp492
S'../data/transmission_line_10_dropoffs/MultidropTransient\\tran_Cdrp=3.0p_Rterm=sqrt(Lline_Cline)_Lenline=5.0_Rline=15.0_Lline=79.0p_Cline=220.0f_Vin=1_0_1_0_1_Vout.csv'
p493
s((S'15.0'
S'79.0p'
S'220.0f'
tS'3.0p'
g3
g9
I10
S'5.0'
S'10101'
tp494
S'../data/transmission_line_10_dropoffs/MultidropBode\\ac_Cdrp=3.0p_Rterm=sqrt(Lline_Cline)_Lenline=5.0_Rline=15.0_Lline=79.0p_Cline=220.0f_Vin=1_0_1_0_1_Vout.csv'
p495
s((S'3.0'
S'2.4n'
S'4.6p'
tS'1.0p'
g3
g4
I10
S'5.0'
S'10100'
tp496
S'../data/transmission_line_10_dropoffs/MultidropTransient\\tran_Cdrp=1.0p_Rterm=sqrt(Lline_Cline)_Lenline=5.0_Rline=3.0_Lline=2.4n_Cline=4.6p_Vin=1_0_1_0_0_Vout.csv'
p497
s((S'12.0'
S'4.0n'
S'9.0p'
tS'3.0p'
g3
g9
I10
S'5.0'
S'10101'
tp498
S'../data/transmission_line_10_dropoffs/MultidropBode\\ac_Cdrp=3.0p_Rterm=sqrt(Lline_Cline)_Lenline=5.0_Rline=12.0_Lline=4.0n_Cline=9.0p_Vin=1_0_1_0_1_Vout.csv'
p499
s((S'220.0m'
S'2.4n'
S'4.6p'
tS'3.0p'
g3
g4
I10
S'5.0'
S'10101'
tp500
S'../data/transmission_line_10_dropoffs/MultidropTransient\\tran_Cdrp=3.0p_Rterm=sqrt(Lline_Cline)_Lenline=5.0_Rline=220.0m_Lline=2.4n_Cline=4.6p_Vin=1_0_1_0_1_Vout.csv'
p501
s((S'4.0'
S'2.4n'
S'220.0f'
tS'3.0p'
g3
g9
I10
S'5.0'
S'10100'
tp502
S'../data/transmission_line_10_dropoffs/MultidropBode\\ac_Cdrp=3.0p_Rterm=sqrt(Lline_Cline)_Lenline=5.0_Rline=4.0_Lline=2.4n_Cline=220.0f_Vin=1_0_1_0_0_Vout.csv'
p503
s((S'17.0'
S'79.0p'
S'220.0f'
tS'3.0p'
g3
g9
I10
S'5.0'
S'10101'
tp504
S'../data/transmission_line_10_dropoffs/MultidropBode\\ac_Cdrp=3.0p_Rterm=sqrt(Lline_Cline)_Lenline=5.0_Rline=17.0_Lline=79.0p_Cline=220.0f_Vin=1_0_1_0_1_Vout.csv'
p505
s((S'20.0'
S'3.5n'
S'5.8p'
tS'3.0p'
g3
g9
I10
S'5.0'
S'10100'
tp506
S'..\\data\\transmission_line_10_dropoffs\\MultidropBode\\ac_Cdrp=3.0p_Rterm=sqrt(Lline_Cline)_Lenline=5.0_Rline=20.0_Lline=3.5n_Cline=5.8p_Vin=1_0_1_0_0_Vout.csv'
p507
s((S'4.0'
S'2.4n'
S'4.6p'
tS'3.0p'
g3
g9
I10
S'5.0'
S'10100'
tp508
S'../data/transmission_line_10_dropoffs/MultidropBode\\ac_Cdrp=3.0p_Rterm=sqrt(Lline_Cline)_Lenline=5.0_Rline=4.0_Lline=2.4n_Cline=4.6p_Vin=1_0_1_0_0_Vout.csv'
p509
s((S'420.0m'
S'4.8n'
S'11.2p'
tS'3.0p'
g3
g4
I10
S'5.0'
S'10101'
tp510
S'../data/transmission_line_10_dropoffs/MultidropTransient\\tran_Cdrp=3.0p_Rterm=sqrt(Lline_Cline)_Lenline=5.0_Rline=420.0m_Lline=4.8n_Cline=11.2p_Vin=1_0_1_0_1_Vout.csv'
p511
s((S'7.0'
S'2.4n'
S'4.6p'
tS'1.0p'
g3
g9
I10
S'5.0'
S'10100'
tp512
S'../data/transmission_line_10_dropoffs/MultidropBode\\ac_Cdrp=1.0p_Rterm=sqrt(Lline_Cline)_Lenline=5.0_Rline=7.0_Lline=2.4n_Cline=4.6p_Vin=1_0_1_0_0_Vout.csv'
p513
s((S'13.0'
S'79.0p'
S'220.0f'
tS'1.0p'
g3
g4
I10
S'1.0'
S'10000'
tp514
S'../data/transmission_line_10_dropoffs/MultidropTransient\\tran_Cdrp=1.0p_Rterm=sqrt(Lline_Cline)_Lenline=1.0_Rline=13.0_Lline=79.0p_Cline=220.0f_Vin=1_0_0_0_0_Vout.csv'
p515
s((S'620.0m'
S'2.4n'
S'220.0f'
tS'3.0p'
g3
g9
I10
S'5.0'
S'10100'
tp516
S'../data/transmission_line_10_dropoffs/MultidropBode\\ac_Cdrp=3.0p_Rterm=sqrt(Lline_Cline)_Lenline=5.0_Rline=620.0m_Lline=2.4n_Cline=220.0f_Vin=1_0_1_0_0_Vout.csv'
p517
s((S'5.0'
S'79.0p'
S'220.0f'
tS'3.0p'
g3
g4
I10
S'5.0'
S'10101'
tp518
S'../data/transmission_line_10_dropoffs/MultidropTransient\\tran_Cdrp=3.0p_Rterm=sqrt(Lline_Cline)_Lenline=5.0_Rline=5.0_Lline=79.0p_Cline=220.0f_Vin=1_0_1_0_1_Vout.csv'
p519
s((S'8.0'
S'2.4n'
S'220.0f'
tS'3.0p'
g3
g9
I10
S'5.0'
S'10100'
tp520
S'../data/transmission_line_10_dropoffs/MultidropBode\\ac_Cdrp=3.0p_Rterm=sqrt(Lline_Cline)_Lenline=5.0_Rline=8.0_Lline=2.4n_Cline=220.0f_Vin=1_0_1_0_0_Vout.csv'
p521
s((S'5.0'
S'2.4n'
S'4.6p'
tS'1.0p'
g3
g9
I10
S'5.0'
S'10100'
tp522
S'../data/transmission_line_10_dropoffs/MultidropBode\\ac_Cdrp=1.0p_Rterm=sqrt(Lline_Cline)_Lenline=5.0_Rline=5.0_Lline=2.4n_Cline=4.6p_Vin=1_0_1_0_0_Vout.csv'
p523
s((S'16.0'
S'2.4n'
S'4.6p'
tS'3.0p'
g3
g9
I10
S'5.0'
S'10101'
tp524
S'../data/transmission_line_10_dropoffs/MultidropBode\\ac_Cdrp=3.0p_Rterm=sqrt(Lline_Cline)_Lenline=5.0_Rline=16.0_Lline=2.4n_Cline=4.6p_Vin=1_0_1_0_1_Vout.csv'
p525
s((S'420.0m'
S'2.4n'
S'4.6p'
tS'3.0p'
g3
g9
I10
S'5.0'
S'10101'
tp526
S'../data/transmission_line_10_dropoffs/MultidropBode\\ac_Cdrp=3.0p_Rterm=sqrt(Lline_Cline)_Lenline=5.0_Rline=420.0m_Lline=2.4n_Cline=4.6p_Vin=1_0_1_0_1_Vout.csv'
p527
s((S'220.0m'
S'4.0n'
S'9.0p'
tS'3.0p'
g3
g9
I10
S'5.0'
S'10101'
tp528
S'../data/transmission_line_10_dropoffs/MultidropBode\\ac_Cdrp=3.0p_Rterm=sqrt(Lline_Cline)_Lenline=5.0_Rline=220.0m_Lline=4.0n_Cline=9.0p_Vin=1_0_1_0_1_Vout.csv'
p529
s((S'11.0'
S'2.4n'
S'4.6p'
tS'3.0p'
g3
g9
I10
S'5.0'
S'10100'
tp530
S'../data/transmission_line_10_dropoffs/MultidropBode\\ac_Cdrp=3.0p_Rterm=sqrt(Lline_Cline)_Lenline=5.0_Rline=11.0_Lline=2.4n_Cline=4.6p_Vin=1_0_1_0_0_Vout.csv'
p531
s((S'14.0'
S'79.0p'
S'220.0f'
tS'3.0p'
g3
g4
I10
S'5.0'
S'10101'
tp532
S'../data/transmission_line_10_dropoffs/MultidropTransient\\tran_Cdrp=3.0p_Rterm=sqrt(Lline_Cline)_Lenline=5.0_Rline=14.0_Lline=79.0p_Cline=220.0f_Vin=1_0_1_0_1_Vout.csv'
p533
s((S'20.0m'
S'79.0p'
S'220.0f'
tS'1.0p'
g3
g9
I10
S'1.0'
S'10100'
tp534
S'../data/transmission_line_10_dropoffs/MultidropBode\\ac_Cdrp=1.0p_Rterm=sqrt(Lline_Cline)_Lenline=1.0_Rline=20.0m_Lline=79.0p_Cline=220.0f_Vin=1_0_1_0_0_Vout.csv'
p535
s((S'420.0m'
S'6.4n'
S'11.2p'
tS'3.0p'
g3
g4
I10
S'5.0'
S'01111'
tp536
S'../data/transmission_line_10_dropoffs/MultidropTransient\\tran_Cdrp=3.0p_Rterm=sqrt(Lline_Cline)_Lenline=5.0_Rline=420.0m_Lline=6.4n_Cline=11.2p_Vin=0_1_1_1_1_Vout.csv'
p537
s((S'1.4'
S'79.0p'
S'220.0f'
tS'3.0p'
g3
g4
I10
S'5.0'
S'10101'
tp538
S'../data/transmission_line_10_dropoffs/MultidropTransient\\tran_Cdrp=3.0p_Rterm=sqrt(Lline_Cline)_Lenline=5.0_Rline=1.4_Lline=79.0p_Cline=220.0f_Vin=1_0_1_0_1_Vout.csv'
p539
s((S'20.0m'
S'2.4n'
S'4.6p'
tS'3.0p'
g3
g9
I10
S'5.0'
S'10100'
tp540
S'../data/transmission_line_10_dropoffs/MultidropBode\\ac_Cdrp=3.0p_Rterm=sqrt(Lline_Cline)_Lenline=5.0_Rline=20.0m_Lline=2.4n_Cline=4.6p_Vin=1_0_1_0_0_Vout.csv'
p541
s((S'17.0'
S'2.4n'
S'4.6p'
tS'3.0p'
g3
g9
I10
S'5.0'
S'10101'
tp542
S'../data/transmission_line_10_dropoffs/MultidropBode\\ac_Cdrp=3.0p_Rterm=sqrt(Lline_Cline)_Lenline=5.0_Rline=17.0_Lline=2.4n_Cline=4.6p_Vin=1_0_1_0_1_Vout.csv'
p543
s((S'820.0m'
S'2.4n'
S'220.0f'
tS'3.0p'
g3
g9
I10
S'5.0'
S'10100'
tp544
S'../data/transmission_line_10_dropoffs/MultidropBode\\ac_Cdrp=3.0p_Rterm=sqrt(Lline_Cline)_Lenline=5.0_Rline=820.0m_Lline=2.4n_Cline=220.0f_Vin=1_0_1_0_0_Vout.csv'
p545
s((S'1.8'
S'2.4n'
S'4.6p'
tS'3.0p'
g3
g4
I10
S'5.0'
S'10101'
tp546
S'../data/transmission_line_10_dropoffs/MultidropTransient\\tran_Cdrp=3.0p_Rterm=sqrt(Lline_Cline)_Lenline=5.0_Rline=1.8_Lline=2.4n_Cline=4.6p_Vin=1_0_1_0_1_Vout.csv'
p547
s((S'3.0'
S'2.4n'
S'4.6p'
tS'3.0p'
g3
g4
I10
S'5.0'
S'10100'
tp548
S'../data/transmission_line_10_dropoffs/MultidropTransient\\tran_Cdrp=3.0p_Rterm=sqrt(Lline_Cline)_Lenline=5.0_Rline=3.0_Lline=2.4n_Cline=4.6p_Vin=1_0_1_0_0_Vout.csv'
p549
s((S'17.0'
S'2.4n'
S'220.0f'
tS'3.0p'
g3
g9
I10
S'5.0'
S'10100'
tp550
S'../data/transmission_line_10_dropoffs/MultidropBode\\ac_Cdrp=3.0p_Rterm=sqrt(Lline_Cline)_Lenline=5.0_Rline=17.0_Lline=2.4n_Cline=220.0f_Vin=1_0_1_0_0_Vout.csv'
p551
s((S'15.0'
S'2.4n'
S'4.6p'
tS'1.0p'
g3
g9
I10
S'5.0'
S'10100'
tp552
S'../data/transmission_line_10_dropoffs/MultidropBode\\ac_Cdrp=1.0p_Rterm=sqrt(Lline_Cline)_Lenline=5.0_Rline=15.0_Lline=2.4n_Cline=4.6p_Vin=1_0_1_0_0_Vout.csv'
p553
s((S'1.4'
S'2.4n'
S'4.6p'
tS'3.0p'
g3
g9
I10
S'5.0'
S'10101'
tp554
S'../data/transmission_line_10_dropoffs/MultidropBode\\ac_Cdrp=3.0p_Rterm=sqrt(Lline_Cline)_Lenline=5.0_Rline=1.4_Lline=2.4n_Cline=4.6p_Vin=1_0_1_0_1_Vout.csv'
p555
s((S'1.6'
S'4.0n'
S'9.0p'
tS'3.0p'
g3
g9
I10
S'5.0'
S'10101'
tp556
S'../data/transmission_line_10_dropoffs/MultidropBode\\ac_Cdrp=3.0p_Rterm=sqrt(Lline_Cline)_Lenline=5.0_Rline=1.6_Lline=4.0n_Cline=9.0p_Vin=1_0_1_0_1_Vout.csv'
p557
s((S'1.8'
S'2.4n'
S'220.0f'
tS'3.0p'
g3
g9
I10
S'5.0'
S'10100'
tp558
S'../data/transmission_line_10_dropoffs/MultidropBode\\ac_Cdrp=3.0p_Rterm=sqrt(Lline_Cline)_Lenline=5.0_Rline=1.8_Lline=2.4n_Cline=220.0f_Vin=1_0_1_0_0_Vout.csv'
p559
s((S'420.0m'
S'2.4n'
S'220.0f'
tS'3.0p'
g3
g9
I10
S'5.0'
S'10100'
tp560
S'../data/transmission_line_10_dropoffs/MultidropBode\\ac_Cdrp=3.0p_Rterm=sqrt(Lline_Cline)_Lenline=5.0_Rline=420.0m_Lline=2.4n_Cline=220.0f_Vin=1_0_1_0_0_Vout.csv'
p561
s((S'20.0m'
S'2.4n'
S'220.0f'
tS'3.0p'
g3
g9
I10
S'5.0'
S'10100'
tp562
S'../data/transmission_line_10_dropoffs/MultidropBode\\ac_Cdrp=3.0p_Rterm=sqrt(Lline_Cline)_Lenline=5.0_Rline=20.0m_Lline=2.4n_Cline=220.0f_Vin=1_0_1_0_0_Vout.csv'
p563
s((S'420.0m'
S'2.4n'
S'4.6p'
tS'1.0p'
g3
g9
I10
S'5.0'
S'10100'
tp564
S'../data/transmission_line_10_dropoffs/MultidropBode\\ac_Cdrp=1.0p_Rterm=sqrt(Lline_Cline)_Lenline=5.0_Rline=420.0m_Lline=2.4n_Cline=4.6p_Vin=1_0_1_0_0_Vout.csv'
p565
s((S'5.0'
S'4.0n'
S'9.0p'
tS'3.0p'
g3
g9
I10
S'5.0'
S'10101'
tp566
S'../data/transmission_line_10_dropoffs/MultidropBode\\ac_Cdrp=3.0p_Rterm=sqrt(Lline_Cline)_Lenline=5.0_Rline=5.0_Lline=4.0n_Cline=9.0p_Vin=1_0_1_0_1_Vout.csv'
p567
s((S'11.0'
S'3.5n'
S'5.8p'
tS'3.0p'
g3
g9
I10
S'5.0'
S'10100'
tp568
S'..\\data\\transmission_line_10_dropoffs\\MultidropBode\\ac_Cdrp=3.0p_Rterm=sqrt(Lline_Cline)_Lenline=5.0_Rline=11.0_Lline=3.5n_Cline=5.8p_Vin=1_0_1_0_0_Vout.csv'
p569
s((S'4.0'
S'2.4n'
S'4.6p'
tS'3.0p'
g3
g9
I10
S'5.0'
S'10101'
tp570
S'../data/transmission_line_10_dropoffs/MultidropBode\\ac_Cdrp=3.0p_Rterm=sqrt(Lline_Cline)_Lenline=5.0_Rline=4.0_Lline=2.4n_Cline=4.6p_Vin=1_0_1_0_1_Vout.csv'
p571
s((S'9.0'
S'2.4n'
S'4.6p'
tS'3.0p'
g3
g4
I10
S'5.0'
S'10100'
tp572
S'../data/transmission_line_10_dropoffs/MultidropTransient\\tran_Cdrp=3.0p_Rterm=sqrt(Lline_Cline)_Lenline=5.0_Rline=9.0_Lline=2.4n_Cline=4.6p_Vin=1_0_1_0_0_Vout.csv'
p573
s((S'16.0'
S'3.5n'
S'5.8p'
tS'3.0p'
g3
g9
I10
S'5.0'
S'10100'
tp574
S'..\\data\\transmission_line_10_dropoffs\\MultidropBode\\ac_Cdrp=3.0p_Rterm=sqrt(Lline_Cline)_Lenline=5.0_Rline=16.0_Lline=3.5n_Cline=5.8p_Vin=1_0_1_0_0_Vout.csv'
p575
s((S'4.0'
S'3.5n'
S'5.8p'
tS'3.0p'
g3
g4
I10
S'5.0'
S'10100'
tp576
S'..\\data\\transmission_line_10_dropoffs\\MultidropTransient\\tran_Cdrp=3.0p_Rterm=sqrt(Lline_Cline)_Lenline=5.0_Rline=4.0_Lline=3.5n_Cline=5.8p_Vin=1_0_1_0_0_Vout.csv'
p577
s((S'6.0'
S'2.4n'
S'220.0f'
tS'3.0p'
g3
g9
I10
S'5.0'
S'10100'
tp578
S'../data/transmission_line_10_dropoffs/MultidropBode\\ac_Cdrp=3.0p_Rterm=sqrt(Lline_Cline)_Lenline=5.0_Rline=6.0_Lline=2.4n_Cline=220.0f_Vin=1_0_1_0_0_Vout.csv'
p579
s((S'420.0m'
S'2.4n'
S'4.6p'
tS'3.0p'
g3
g4
I10
S'5.0'
S'10101'
tp580
S'../data/transmission_line_10_dropoffs/MultidropTransient\\tran_Cdrp=3.0p_Rterm=sqrt(Lline_Cline)_Lenline=5.0_Rline=420.0m_Lline=2.4n_Cline=4.6p_Vin=1_0_1_0_1_Vout.csv'
p581
s((S'16.0'
S'79.0p'
S'220.0f'
tS'1.0p'
g3
g4
I10
S'1.0'
S'10000'
tp582
S'../data/transmission_line_10_dropoffs/MultidropTransient\\tran_Cdrp=1.0p_Rterm=sqrt(Lline_Cline)_Lenline=1.0_Rline=16.0_Lline=79.0p_Cline=220.0f_Vin=1_0_0_0_0_Vout.csv'
p583
s((S'620.0m'
S'3.5n'
S'5.8p'
tS'3.0p'
g3
g9
I10
S'5.0'
S'10100'
tp584
S'..\\data\\transmission_line_10_dropoffs\\MultidropBode\\ac_Cdrp=3.0p_Rterm=sqrt(Lline_Cline)_Lenline=5.0_Rline=620.0m_Lline=3.5n_Cline=5.8p_Vin=1_0_1_0_0_Vout.csv'
p585
s((S'4.0'
S'2.4n'
S'4.6p'
tS'1.0p'
g3
g4
I10
S'5.0'
S'10100'
tp586
S'../data/transmission_line_10_dropoffs/MultidropTransient\\tran_Cdrp=1.0p_Rterm=sqrt(Lline_Cline)_Lenline=5.0_Rline=4.0_Lline=2.4n_Cline=4.6p_Vin=1_0_1_0_0_Vout.csv'
p587
s((S'17.0'
S'2.4n'
S'4.6p'
tS'3.0p'
g3
g9
I10
S'5.0'
S'10100'
tp588
S'../data/transmission_line_10_dropoffs/MultidropBode\\ac_Cdrp=3.0p_Rterm=sqrt(Lline_Cline)_Lenline=5.0_Rline=17.0_Lline=2.4n_Cline=4.6p_Vin=1_0_1_0_0_Vout.csv'
p589
s((S'10.0'
S'79.0p'
S'220.0f'
tS'3.0p'
g3
g9
I10
S'5.0'
S'10101'
tp590
S'../data/transmission_line_10_dropoffs/MultidropBode\\ac_Cdrp=3.0p_Rterm=sqrt(Lline_Cline)_Lenline=5.0_Rline=10.0_Lline=79.0p_Cline=220.0f_Vin=1_0_1_0_1_Vout.csv'
p591
s((S'3.0'
S'2.4n'
S'4.6p'
tS'3.0p'
g3
g9
I10
S'5.0'
S'10101'
tp592
S'../data/transmission_line_10_dropoffs/MultidropBode\\ac_Cdrp=3.0p_Rterm=sqrt(Lline_Cline)_Lenline=5.0_Rline=3.0_Lline=2.4n_Cline=4.6p_Vin=1_0_1_0_1_Vout.csv'
p593
s((S'820.0m'
S'3.5n'
S'5.8p'
tS'3.0p'
g3
g9
I10
S'5.0'
S'10100'
tp594
S'..\\data\\transmission_line_10_dropoffs\\MultidropBode\\ac_Cdrp=3.0p_Rterm=sqrt(Lline_Cline)_Lenline=5.0_Rline=820.0m_Lline=3.5n_Cline=5.8p_Vin=1_0_1_0_0_Vout.csv'
p595
s((S'3.0'
S'2.4n'
S'4.6p'
tS'3.0p'
g3
g4
I10
S'5.0'
S'10101'
tp596
S'../data/transmission_line_10_dropoffs/MultidropTransient\\tran_Cdrp=3.0p_Rterm=sqrt(Lline_Cline)_Lenline=5.0_Rline=3.0_Lline=2.4n_Cline=4.6p_Vin=1_0_1_0_1_Vout.csv'
p597
s((S'19.0'
S'2.4n'
S'220.0f'
tS'3.0p'
g3
g4
I10
S'5.0'
S'10100'
tp598
S'../data/transmission_line_10_dropoffs/MultidropTransient\\tran_Cdrp=3.0p_Rterm=sqrt(Lline_Cline)_Lenline=5.0_Rline=19.0_Lline=2.4n_Cline=220.0f_Vin=1_0_1_0_0_Vout.csv'
p599
s((S'16.0'
S'2.4n'
S'4.6p'
tS'1.0p'
g3
g4
I10
S'5.0'
S'10100'
tp600
S'../data/transmission_line_10_dropoffs/MultidropTransient\\tran_Cdrp=1.0p_Rterm=sqrt(Lline_Cline)_Lenline=5.0_Rline=16.0_Lline=2.4n_Cline=4.6p_Vin=1_0_1_0_0_Vout.csv'
p601
s((S'1.4'
S'2.4n'
S'4.6p'
tS'3.0p'
g3
g9
I10
S'5.0'
S'10100'
tp602
S'../data/transmission_line_10_dropoffs/MultidropBode\\ac_Cdrp=3.0p_Rterm=sqrt(Lline_Cline)_Lenline=5.0_Rline=1.4_Lline=2.4n_Cline=4.6p_Vin=1_0_1_0_0_Vout.csv'
p603
s((S'19.0'
S'2.4n'
S'4.6p'
tS'3.0p'
g3
g4
I10
S'5.0'
S'10100'
tp604
S'../data/transmission_line_10_dropoffs/MultidropTransient\\tran_Cdrp=3.0p_Rterm=sqrt(Lline_Cline)_Lenline=5.0_Rline=19.0_Lline=2.4n_Cline=4.6p_Vin=1_0_1_0_0_Vout.csv'
p605
s((S'420.0m'
S'3.5n'
S'5.8p'
tS'3.0p'
g3
g9
I10
S'5.0'
S'10100'
tp606
S'..\\data\\transmission_line_10_dropoffs\\MultidropBode\\ac_Cdrp=3.0p_Rterm=sqrt(Lline_Cline)_Lenline=5.0_Rline=420.0m_Lline=3.5n_Cline=5.8p_Vin=1_0_1_0_0_Vout.csv'
p607
s((S'20.0m'
S'4.0n'
S'9.0p'
tS'3.0p'
g3
g9
I10
S'5.0'
S'10101'
tp608
S'../data/transmission_line_10_dropoffs/MultidropBode\\ac_Cdrp=3.0p_Rterm=sqrt(Lline_Cline)_Lenline=5.0_Rline=20.0m_Lline=4.0n_Cline=9.0p_Vin=1_0_1_0_1_Vout.csv'
p609
s((S'7.0'
S'79.0p'
S'220.0f'
tS'1.0p'
g3
g9
I10
S'1.0'
S'10000'
tp610
S'../data/transmission_line_10_dropoffs/MultidropBode\\ac_Cdrp=1.0p_Rterm=sqrt(Lline_Cline)_Lenline=1.0_Rline=7.0_Lline=79.0p_Cline=220.0f_Vin=1_0_0_0_0_Vout.csv'
p611
s((S'420.0m'
S'79.0p'
S'220.0f'
tS'3.0p'
g3
g4
I10
S'5.0'
S'10101'
tp612
S'../data/transmission_line_10_dropoffs/MultidropTransient\\tran_Cdrp=3.0p_Rterm=sqrt(Lline_Cline)_Lenline=5.0_Rline=420.0m_Lline=79.0p_Cline=220.0f_Vin=1_0_1_0_1_Vout.csv'
p613
s((S'18.0'
S'2.4n'
S'220.0f'
tS'3.0p'
g3
g4
I10
S'5.0'
S'10100'
tp614
S'../data/transmission_line_10_dropoffs/MultidropTransient\\tran_Cdrp=3.0p_Rterm=sqrt(Lline_Cline)_Lenline=5.0_Rline=18.0_Lline=2.4n_Cline=220.0f_Vin=1_0_1_0_0_Vout.csv'
p615
s((S'420.0m'
S'2.4n'
S'4.6p'
tS'3.0p'
g3
g4
I10
S'5.0'
S'10100'
tp616
S'../data/transmission_line_10_dropoffs/MultidropTransient\\tran_Cdrp=3.0p_Rterm=sqrt(Lline_Cline)_Lenline=5.0_Rline=420.0m_Lline=2.4n_Cline=4.6p_Vin=1_0_1_0_0_Vout.csv'
p617
s((S'11.0'
S'2.4n'
S'220.0f'
tS'3.0p'
g3
g4
I10
S'5.0'
S'10100'
tp618
S'../data/transmission_line_10_dropoffs/MultidropTransient\\tran_Cdrp=3.0p_Rterm=sqrt(Lline_Cline)_Lenline=5.0_Rline=11.0_Lline=2.4n_Cline=220.0f_Vin=1_0_1_0_0_Vout.csv'
p619
s((S'3.0'
S'2.4n'
S'220.0f'
tS'3.0p'
g3
g4
I10
S'5.0'
S'10100'
tp620
S'../data/transmission_line_10_dropoffs/MultidropTransient\\tran_Cdrp=3.0p_Rterm=sqrt(Lline_Cline)_Lenline=5.0_Rline=3.0_Lline=2.4n_Cline=220.0f_Vin=1_0_1_0_0_Vout.csv'
p621
s((S'420.0m'
S'3.5n'
S'5.8p'
tS'3.0p'
g3
g4
I10
S'5.0'
S'10100'
tp622
S'..\\data\\transmission_line_10_dropoffs\\MultidropTransient\\tran_Cdrp=3.0p_Rterm=sqrt(Lline_Cline)_Lenline=5.0_Rline=420.0m_Lline=3.5n_Cline=5.8p_Vin=1_0_1_0_0_Vout.csv'
p623
s((S'12.0'
S'2.4n'
S'4.6p'
tS'1.0p'
g3
g4
I10
S'5.0'
S'10100'
tp624
S'../data/transmission_line_10_dropoffs/MultidropTransient\\tran_Cdrp=1.0p_Rterm=sqrt(Lline_Cline)_Lenline=5.0_Rline=12.0_Lline=2.4n_Cline=4.6p_Vin=1_0_1_0_0_Vout.csv'
p625
s((S'15.0'
S'4.0n'
S'9.0p'
tS'3.0p'
g3
g4
I10
S'5.0'
S'10101'
tp626
S'../data/transmission_line_10_dropoffs/MultidropTransient\\tran_Cdrp=3.0p_Rterm=sqrt(Lline_Cline)_Lenline=5.0_Rline=15.0_Lline=4.0n_Cline=9.0p_Vin=1_0_1_0_1_Vout.csv'
p627
s((S'8.0'
S'2.4n'
S'4.6p'
tS'3.0p'
g3
g4
I10
S'5.0'
S'10101'
tp628
S'../data/transmission_line_10_dropoffs/MultidropTransient\\tran_Cdrp=3.0p_Rterm=sqrt(Lline_Cline)_Lenline=5.0_Rline=8.0_Lline=2.4n_Cline=4.6p_Vin=1_0_1_0_1_Vout.csv'
p629
s((S'3.0'
S'2.4n'
S'4.6p'
tS'3.0p'
g3
g9
I10
S'5.0'
S'10100'
tp630
S'../data/transmission_line_10_dropoffs/MultidropBode\\ac_Cdrp=3.0p_Rterm=sqrt(Lline_Cline)_Lenline=5.0_Rline=3.0_Lline=2.4n_Cline=4.6p_Vin=1_0_1_0_0_Vout.csv'
p631
s((S'220.0m'
S'2.4n'
S'4.6p'
tS'3.0p'
g3
g4
I10
S'5.0'
S'10100'
tp632
S'../data/transmission_line_10_dropoffs/MultidropTransient\\tran_Cdrp=3.0p_Rterm=sqrt(Lline_Cline)_Lenline=5.0_Rline=220.0m_Lline=2.4n_Cline=4.6p_Vin=1_0_1_0_0_Vout.csv'
p633
s((S'8.0'
S'4.0n'
S'9.0p'
tS'3.0p'
g3
g9
I10
S'5.0'
S'10101'
tp634
S'../data/transmission_line_10_dropoffs/MultidropBode\\ac_Cdrp=3.0p_Rterm=sqrt(Lline_Cline)_Lenline=5.0_Rline=8.0_Lline=4.0n_Cline=9.0p_Vin=1_0_1_0_1_Vout.csv'
p635
s((S'620.0m'
S'2.4n'
S'4.6p'
tS'3.0p'
g3
g4
I10
S'5.0'
S'10100'
tp636
S'../data/transmission_line_10_dropoffs/MultidropTransient\\tran_Cdrp=3.0p_Rterm=sqrt(Lline_Cline)_Lenline=5.0_Rline=620.0m_Lline=2.4n_Cline=4.6p_Vin=1_0_1_0_0_Vout.csv'
p637
s((S'16.0'
S'2.4n'
S'4.6p'
tS'3.0p'
g3
g4
I10
S'5.0'
S'10101'
tp638
S'../data/transmission_line_10_dropoffs/MultidropTransient\\tran_Cdrp=3.0p_Rterm=sqrt(Lline_Cline)_Lenline=5.0_Rline=16.0_Lline=2.4n_Cline=4.6p_Vin=1_0_1_0_1_Vout.csv'
p639
s((S'12.0'
S'79.0p'
S'220.0f'
tS'3.0p'
g3
g9
I10
S'5.0'
S'10101'
tp640
S'../data/transmission_line_10_dropoffs/MultidropBode\\ac_Cdrp=3.0p_Rterm=sqrt(Lline_Cline)_Lenline=5.0_Rline=12.0_Lline=79.0p_Cline=220.0f_Vin=1_0_1_0_1_Vout.csv'
p641
s((S'16.0'
S'4.0n'
S'9.0p'
tS'3.0p'
g3
g4
I10
S'5.0'
S'10101'
tp642
S'../data/transmission_line_10_dropoffs/MultidropTransient\\tran_Cdrp=3.0p_Rterm=sqrt(Lline_Cline)_Lenline=5.0_Rline=16.0_Lline=4.0n_Cline=9.0p_Vin=1_0_1_0_1_Vout.csv'
p643
s((S'4.0'
S'2.4n'
S'4.6p'
tS'1.0p'
g3
g9
I10
S'5.0'
S'10100'
tp644
S'../data/transmission_line_10_dropoffs/MultidropBode\\ac_Cdrp=1.0p_Rterm=sqrt(Lline_Cline)_Lenline=5.0_Rline=4.0_Lline=2.4n_Cline=4.6p_Vin=1_0_1_0_0_Vout.csv'
p645
s((S'1.4'
S'4.0n'
S'9.0p'
tS'3.0p'
g3
g9
I10
S'5.0'
S'10101'
tp646
S'../data/transmission_line_10_dropoffs/MultidropBode\\ac_Cdrp=3.0p_Rterm=sqrt(Lline_Cline)_Lenline=5.0_Rline=1.4_Lline=4.0n_Cline=9.0p_Vin=1_0_1_0_1_Vout.csv'
p647
s((S'18.0'
S'2.4n'
S'220.0f'
tS'3.0p'
g3
g9
I10
S'5.0'
S'10100'
tp648
S'../data/transmission_line_10_dropoffs/MultidropBode\\ac_Cdrp=3.0p_Rterm=sqrt(Lline_Cline)_Lenline=5.0_Rline=18.0_Lline=2.4n_Cline=220.0f_Vin=1_0_1_0_0_Vout.csv'
p649
s((S'10.0'
S'79.0p'
S'220.0f'
tS'1.0p'
g3
g9
I10
S'1.0'
S'10000'
tp650
S'../data/transmission_line_10_dropoffs/MultidropBode\\ac_Cdrp=1.0p_Rterm=sqrt(Lline_Cline)_Lenline=1.0_Rline=10.0_Lline=79.0p_Cline=220.0f_Vin=1_0_0_0_0_Vout.csv'
p651
s((S'18.0'
S'79.0p'
S'220.0f'
tS'3.0p'
g3
g4
I10
S'5.0'
S'10101'
tp652
S'../data/transmission_line_10_dropoffs/MultidropTransient\\tran_Cdrp=3.0p_Rterm=sqrt(Lline_Cline)_Lenline=5.0_Rline=18.0_Lline=79.0p_Cline=220.0f_Vin=1_0_1_0_1_Vout.csv'
p653
s((S'7.0'
S'3.5n'
S'5.8p'
tS'3.0p'
g3
g4
I10
S'5.0'
S'10100'
tp654
S'..\\data\\transmission_line_10_dropoffs\\MultidropTransient\\tran_Cdrp=3.0p_Rterm=sqrt(Lline_Cline)_Lenline=5.0_Rline=7.0_Lline=3.5n_Cline=5.8p_Vin=1_0_1_0_0_Vout.csv'
p655
s((S'1.0'
S'2.4n'
S'220.0f'
tS'3.0p'
g3
g9
I10
S'5.0'
S'10100'
tp656
S'../data/transmission_line_10_dropoffs/MultidropBode\\ac_Cdrp=3.0p_Rterm=sqrt(Lline_Cline)_Lenline=5.0_Rline=1.0_Lline=2.4n_Cline=220.0f_Vin=1_0_1_0_0_Vout.csv'
p657
s((S'19.0'
S'79.0p'
S'220.0f'
tS'3.0p'
g3
g9
I10
S'5.0'
S'10101'
tp658
S'../data/transmission_line_10_dropoffs/MultidropBode\\ac_Cdrp=3.0p_Rterm=sqrt(Lline_Cline)_Lenline=5.0_Rline=19.0_Lline=79.0p_Cline=220.0f_Vin=1_0_1_0_1_Vout.csv'
p659
s((S'17.0'
S'2.4n'
S'4.6p'
tS'1.0p'
g3
g4
I10
S'5.0'
S'10100'
tp660
S'../data/transmission_line_10_dropoffs/MultidropTransient\\tran_Cdrp=1.0p_Rterm=sqrt(Lline_Cline)_Lenline=5.0_Rline=17.0_Lline=2.4n_Cline=4.6p_Vin=1_0_1_0_0_Vout.csv'
p661
s((S'1.0'
S'2.4n'
S'4.6p'
tS'1.0p'
g3
g9
I10
S'5.0'
S'10100'
tp662
S'../data/transmission_line_10_dropoffs/MultidropBode\\ac_Cdrp=1.0p_Rterm=sqrt(Lline_Cline)_Lenline=5.0_Rline=1.0_Lline=2.4n_Cline=4.6p_Vin=1_0_1_0_0_Vout.csv'
p663
s((S'16.0'
S'79.0p'
S'220.0f'
tS'1.0p'
g3
g9
I10
S'1.0'
S'10000'
tp664
S'../data/transmission_line_10_dropoffs/MultidropBode\\ac_Cdrp=1.0p_Rterm=sqrt(Lline_Cline)_Lenline=1.0_Rline=16.0_Lline=79.0p_Cline=220.0f_Vin=1_0_0_0_0_Vout.csv'
p665
s((S'6.0'
S'4.0n'
S'9.0p'
tS'3.0p'
g3
g9
I10
S'5.0'
S'10101'
tp666
S'../data/transmission_line_10_dropoffs/MultidropBode\\ac_Cdrp=3.0p_Rterm=sqrt(Lline_Cline)_Lenline=5.0_Rline=6.0_Lline=4.0n_Cline=9.0p_Vin=1_0_1_0_1_Vout.csv'
p667
s((S'17.0'
S'79.0p'
S'220.0f'
tS'1.0p'
g3
g9
I10
S'1.0'
S'10000'
tp668
S'../data/transmission_line_10_dropoffs/MultidropBode\\ac_Cdrp=1.0p_Rterm=sqrt(Lline_Cline)_Lenline=1.0_Rline=17.0_Lline=79.0p_Cline=220.0f_Vin=1_0_0_0_0_Vout.csv'
p669
s((S'13.0'
S'4.0n'
S'9.0p'
tS'3.0p'
g3
g9
I10
S'5.0'
S'10101'
tp670
S'../data/transmission_line_10_dropoffs/MultidropBode\\ac_Cdrp=3.0p_Rterm=sqrt(Lline_Cline)_Lenline=5.0_Rline=13.0_Lline=4.0n_Cline=9.0p_Vin=1_0_1_0_1_Vout.csv'
p671
s((S'1.6'
S'2.4n'
S'4.6p'
tS'3.0p'
g3
g9
I10
S'5.0'
S'10101'
tp672
S'../data/transmission_line_10_dropoffs/MultidropBode\\ac_Cdrp=3.0p_Rterm=sqrt(Lline_Cline)_Lenline=5.0_Rline=1.6_Lline=2.4n_Cline=4.6p_Vin=1_0_1_0_1_Vout.csv'
p673
s((S'8.0'
S'2.4n'
S'220.0f'
tS'3.0p'
g3
g4
I10
S'5.0'
S'10100'
tp674
S'../data/transmission_line_10_dropoffs/MultidropTransient\\tran_Cdrp=3.0p_Rterm=sqrt(Lline_Cline)_Lenline=5.0_Rline=8.0_Lline=2.4n_Cline=220.0f_Vin=1_0_1_0_0_Vout.csv'
p675
s((S'15.0'
S'2.4n'
S'4.6p'
tS'1.0p'
g3
g4
I10
S'5.0'
S'10100'
tp676
S'../data/transmission_line_10_dropoffs/MultidropTransient\\tran_Cdrp=1.0p_Rterm=sqrt(Lline_Cline)_Lenline=5.0_Rline=15.0_Lline=2.4n_Cline=4.6p_Vin=1_0_1_0_0_Vout.csv'
p677
s((S'1.0'
S'79.0p'
S'220.0f'
tS'3.0p'
g3
g4
I10
S'5.0'
S'10101'
tp678
S'../data/transmission_line_10_dropoffs/MultidropTransient\\tran_Cdrp=3.0p_Rterm=sqrt(Lline_Cline)_Lenline=5.0_Rline=1.0_Lline=79.0p_Cline=220.0f_Vin=1_0_1_0_1_Vout.csv'
p679
s((S'1.8'
S'2.4n'
S'4.6p'
tS'3.0p'
g3
g9
I10
S'5.0'
S'10101'
tp680
S'../data/transmission_line_10_dropoffs/MultidropBode\\ac_Cdrp=3.0p_Rterm=sqrt(Lline_Cline)_Lenline=5.0_Rline=1.8_Lline=2.4n_Cline=4.6p_Vin=1_0_1_0_1_Vout.csv'
p681
s((S'18.0'
S'79.0p'
S'220.0f'
tS'3.0p'
g3
g9
I10
S'5.0'
S'10101'
tp682
S'../data/transmission_line_10_dropoffs/MultidropBode\\ac_Cdrp=3.0p_Rterm=sqrt(Lline_Cline)_Lenline=5.0_Rline=18.0_Lline=79.0p_Cline=220.0f_Vin=1_0_1_0_1_Vout.csv'
p683
s((S'9.0'
S'2.4n'
S'220.0f'
tS'3.0p'
g3
g4
I10
S'5.0'
S'10100'
tp684
S'../data/transmission_line_10_dropoffs/MultidropTransient\\tran_Cdrp=3.0p_Rterm=sqrt(Lline_Cline)_Lenline=5.0_Rline=9.0_Lline=2.4n_Cline=220.0f_Vin=1_0_1_0_0_Vout.csv'
p685
s((S'16.0'
S'2.4n'
S'4.6p'
tS'3.0p'
g3
g4
I10
S'5.0'
S'10100'
tp686
S'../data/transmission_line_10_dropoffs/MultidropTransient\\tran_Cdrp=3.0p_Rterm=sqrt(Lline_Cline)_Lenline=5.0_Rline=16.0_Lline=2.4n_Cline=4.6p_Vin=1_0_1_0_0_Vout.csv'
p687
s((S'1.2'
S'2.4n'
S'4.6p'
tS'3.0p'
g3
g9
I10
S'5.0'
S'10100'
tp688
S'../data/transmission_line_10_dropoffs/MultidropBode\\ac_Cdrp=3.0p_Rterm=sqrt(Lline_Cline)_Lenline=5.0_Rline=1.2_Lline=2.4n_Cline=4.6p_Vin=1_0_1_0_0_Vout.csv'
p689
s((S'20.0m'
S'79.0p'
S'220.0f'
tS'1.0p'
g3
g4
I10
S'1.0'
S'00000'
tp690
S'../data/transmission_line_10_dropoffs/MultidropTransient\\tran_Cdrp=1.0p_Rterm=sqrt(Lline_Cline)_Lenline=1.0_Rline=20.0m_Lline=79.0p_Cline=220.0f_Vin=0_0_0_0_0_Vout.csv'
p691
s((S'9.0'
S'2.4n'
S'4.6p'
tS'1.0p'
g3
g4
I10
S'5.0'
S'10100'
tp692
S'../data/transmission_line_10_dropoffs/MultidropTransient\\tran_Cdrp=1.0p_Rterm=sqrt(Lline_Cline)_Lenline=5.0_Rline=9.0_Lline=2.4n_Cline=4.6p_Vin=1_0_1_0_0_Vout.csv'
p693
s((S'3.0'
S'4.0n'
S'9.0p'
tS'3.0p'
g3
g4
I10
S'5.0'
S'10101'
tp694
S'../data/transmission_line_10_dropoffs/MultidropTransient\\tran_Cdrp=3.0p_Rterm=sqrt(Lline_Cline)_Lenline=5.0_Rline=3.0_Lline=4.0n_Cline=9.0p_Vin=1_0_1_0_1_Vout.csv'
p695
s((S'1.2'
S'2.4n'
S'4.6p'
tS'3.0p'
g3
g4
I10
S'5.0'
S'10100'
tp696
S'../data/transmission_line_10_dropoffs/MultidropTransient\\tran_Cdrp=3.0p_Rterm=sqrt(Lline_Cline)_Lenline=5.0_Rline=1.2_Lline=2.4n_Cline=4.6p_Vin=1_0_1_0_0_Vout.csv'
p697
s((S'8.0'
S'3.5n'
S'5.8p'
tS'3.0p'
g3
g9
I10
S'5.0'
S'10100'
tp698
S'..\\data\\transmission_line_10_dropoffs\\MultidropBode\\ac_Cdrp=3.0p_Rterm=sqrt(Lline_Cline)_Lenline=5.0_Rline=8.0_Lline=3.5n_Cline=5.8p_Vin=1_0_1_0_0_Vout.csv'
p699
s((S'1.6'
S'79.0p'
S'220.0f'
tS'3.0p'
g3
g4
I10
S'5.0'
S'10101'
tp700
S'../data/transmission_line_10_dropoffs/MultidropTransient\\tran_Cdrp=3.0p_Rterm=sqrt(Lline_Cline)_Lenline=5.0_Rline=1.6_Lline=79.0p_Cline=220.0f_Vin=1_0_1_0_1_Vout.csv'
p701
s((S'14.0'
S'2.4n'
S'4.6p'
tS'3.0p'
g3
g4
I10
S'5.0'
S'10101'
tp702
S'../data/transmission_line_10_dropoffs/MultidropTransient\\tran_Cdrp=3.0p_Rterm=sqrt(Lline_Cline)_Lenline=5.0_Rline=14.0_Lline=2.4n_Cline=4.6p_Vin=1_0_1_0_1_Vout.csv'
p703
s((S'5.0'
S'2.4n'
S'4.6p'
tS'1.0p'
g3
g4
I10
S'5.0'
S'10100'
tp704
S'../data/transmission_line_10_dropoffs/MultidropTransient\\tran_Cdrp=1.0p_Rterm=sqrt(Lline_Cline)_Lenline=5.0_Rline=5.0_Lline=2.4n_Cline=4.6p_Vin=1_0_1_0_0_Vout.csv'
p705
s((S'14.0'
S'2.4n'
S'4.6p'
tS'1.0p'
g3
g4
I10
S'5.0'
S'10100'
tp706
S'../data/transmission_line_10_dropoffs/MultidropTransient\\tran_Cdrp=1.0p_Rterm=sqrt(Lline_Cline)_Lenline=5.0_Rline=14.0_Lline=2.4n_Cline=4.6p_Vin=1_0_1_0_0_Vout.csv'
p707
s((S'1.6'
S'2.4n'
S'4.6p'
tS'3.0p'
g3
g4
I10
S'5.0'
S'10100'
tp708
S'../data/transmission_line_10_dropoffs/MultidropTransient\\tran_Cdrp=3.0p_Rterm=sqrt(Lline_Cline)_Lenline=5.0_Rline=1.6_Lline=2.4n_Cline=4.6p_Vin=1_0_1_0_0_Vout.csv'
p709
s((S'1.0'
S'4.0n'
S'9.0p'
tS'3.0p'
g3
g9
I10
S'5.0'
S'10101'
tp710
S'../data/transmission_line_10_dropoffs/MultidropBode\\ac_Cdrp=3.0p_Rterm=sqrt(Lline_Cline)_Lenline=5.0_Rline=1.0_Lline=4.0n_Cline=9.0p_Vin=1_0_1_0_1_Vout.csv'
p711
s((S'12.0'
S'2.4n'
S'4.6p'
tS'1.0p'
g3
g9
I10
S'5.0'
S'10100'
tp712
S'../data/transmission_line_10_dropoffs/MultidropBode\\ac_Cdrp=1.0p_Rterm=sqrt(Lline_Cline)_Lenline=5.0_Rline=12.0_Lline=2.4n_Cline=4.6p_Vin=1_0_1_0_0_Vout.csv'
p713
s((S'9.0'
S'4.0n'
S'9.0p'
tS'3.0p'
g3
g9
I10
S'5.0'
S'10101'
tp714
S'../data/transmission_line_10_dropoffs/MultidropBode\\ac_Cdrp=3.0p_Rterm=sqrt(Lline_Cline)_Lenline=5.0_Rline=9.0_Lline=4.0n_Cline=9.0p_Vin=1_0_1_0_1_Vout.csv'
p715
s((S'820.0m'
S'79.0p'
S'220.0f'
tS'3.0p'
g3
g9
I10
S'5.0'
S'10101'
tp716
S'../data/transmission_line_10_dropoffs/MultidropBode\\ac_Cdrp=3.0p_Rterm=sqrt(Lline_Cline)_Lenline=5.0_Rline=820.0m_Lline=79.0p_Cline=220.0f_Vin=1_0_1_0_1_Vout.csv'
p717
s((S'10.0'
S'79.0p'
S'220.0f'
tS'3.0p'
g3
g4
I10
S'5.0'
S'10101'
tp718
S'../data/transmission_line_10_dropoffs/MultidropTransient\\tran_Cdrp=3.0p_Rterm=sqrt(Lline_Cline)_Lenline=5.0_Rline=10.0_Lline=79.0p_Cline=220.0f_Vin=1_0_1_0_1_Vout.csv'
p719
s((S'420.0m'
S'1.7n'
S'11.2p'
tS'3.0p'
g3
g4
I10
S'5.0'
S'10101'
tp720
S'../data/transmission_line_10_dropoffs/MultidropTransient\\tran_Cdrp=3.0p_Rterm=sqrt(Lline_Cline)_Lenline=5.0_Rline=420.0m_Lline=1.7n_Cline=11.2p_Vin=1_0_1_0_1_Vout.csv'
p721
s((S'20.0m'
S'2.4n'
S'4.6p'
tS'1.0p'
g3
g4
I10
S'5.0'
S'10100'
tp722
S'../data/transmission_line_10_dropoffs/MultidropTransient\\tran_Cdrp=1.0p_Rterm=sqrt(Lline_Cline)_Lenline=5.0_Rline=20.0m_Lline=2.4n_Cline=4.6p_Vin=1_0_1_0_0_Vout.csv'
p723
s((S'13.0'
S'4.0n'
S'9.0p'
tS'3.0p'
g3
g4
I10
S'5.0'
S'10101'
tp724
S'../data/transmission_line_10_dropoffs/MultidropTransient\\tran_Cdrp=3.0p_Rterm=sqrt(Lline_Cline)_Lenline=5.0_Rline=13.0_Lline=4.0n_Cline=9.0p_Vin=1_0_1_0_1_Vout.csv'
p725
s((S'4.0'
S'2.4n'
S'220.0f'
tS'3.0p'
g3
g4
I10
S'5.0'
S'10100'
tp726
S'../data/transmission_line_10_dropoffs/MultidropTransient\\tran_Cdrp=3.0p_Rterm=sqrt(Lline_Cline)_Lenline=5.0_Rline=4.0_Lline=2.4n_Cline=220.0f_Vin=1_0_1_0_0_Vout.csv'
p727
s((S'18.0'
S'79.0p'
S'220.0f'
tS'1.0p'
g3
g9
I10
S'1.0'
S'10000'
tp728
S'../data/transmission_line_10_dropoffs/MultidropBode\\ac_Cdrp=1.0p_Rterm=sqrt(Lline_Cline)_Lenline=1.0_Rline=18.0_Lline=79.0p_Cline=220.0f_Vin=1_0_0_0_0_Vout.csv'
p729
s((S'1.6'
S'2.4n'
S'4.6p'
tS'3.0p'
g3
g9
I10
S'5.0'
S'10100'
tp730
S'../data/transmission_line_10_dropoffs/MultidropBode\\ac_Cdrp=3.0p_Rterm=sqrt(Lline_Cline)_Lenline=5.0_Rline=1.6_Lline=2.4n_Cline=4.6p_Vin=1_0_1_0_0_Vout.csv'
p731
s((S'1.0'
S'4.0n'
S'9.0p'
tS'3.0p'
g3
g4
I10
S'5.0'
S'10101'
tp732
S'../data/transmission_line_10_dropoffs/MultidropTransient\\tran_Cdrp=3.0p_Rterm=sqrt(Lline_Cline)_Lenline=5.0_Rline=1.0_Lline=4.0n_Cline=9.0p_Vin=1_0_1_0_1_Vout.csv'
p733
s((S'13.0'
S'79.0p'
S'220.0f'
tS'3.0p'
g3
g9
I10
S'5.0'
S'10101'
tp734
S'../data/transmission_line_10_dropoffs/MultidropBode\\ac_Cdrp=3.0p_Rterm=sqrt(Lline_Cline)_Lenline=5.0_Rline=13.0_Lline=79.0p_Cline=220.0f_Vin=1_0_1_0_1_Vout.csv'
p735
s((S'8.0'
S'2.4n'
S'4.6p'
tS'3.0p'
g3
g4
I10
S'5.0'
S'10100'
tp736
S'../data/transmission_line_10_dropoffs/MultidropTransient\\tran_Cdrp=3.0p_Rterm=sqrt(Lline_Cline)_Lenline=5.0_Rline=8.0_Lline=2.4n_Cline=4.6p_Vin=1_0_1_0_0_Vout.csv'
p737
s((S'12.0'
S'2.4n'
S'4.6p'
tS'3.0p'
g3
g4
I10
S'5.0'
S'10101'
tp738
S'../data/transmission_line_10_dropoffs/MultidropTransient\\tran_Cdrp=3.0p_Rterm=sqrt(Lline_Cline)_Lenline=5.0_Rline=12.0_Lline=2.4n_Cline=4.6p_Vin=1_0_1_0_1_Vout.csv'
p739
s((S'4.0'
S'3.5n'
S'5.8p'
tS'3.0p'
g3
g9
I10
S'5.0'
S'10100'
tp740
S'..\\data\\transmission_line_10_dropoffs\\MultidropBode\\ac_Cdrp=3.0p_Rterm=sqrt(Lline_Cline)_Lenline=5.0_Rline=4.0_Lline=3.5n_Cline=5.8p_Vin=1_0_1_0_0_Vout.csv'
p741
s((S'1.8'
S'2.4n'
S'4.6p'
tS'3.0p'
g3
g9
I10
S'5.0'
S'10100'
tp742
S'../data/transmission_line_10_dropoffs/MultidropBode\\ac_Cdrp=3.0p_Rterm=sqrt(Lline_Cline)_Lenline=5.0_Rline=1.8_Lline=2.4n_Cline=4.6p_Vin=1_0_1_0_0_Vout.csv'
p743
s((S'7.0'
S'3.5n'
S'5.8p'
tS'3.0p'
g3
g9
I10
S'5.0'
S'10100'
tp744
S'..\\data\\transmission_line_10_dropoffs\\MultidropBode\\ac_Cdrp=3.0p_Rterm=sqrt(Lline_Cline)_Lenline=5.0_Rline=7.0_Lline=3.5n_Cline=5.8p_Vin=1_0_1_0_0_Vout.csv'
p745
s((S'4.0'
S'79.0p'
S'220.0f'
tS'3.0p'
g3
g9
I10
S'5.0'
S'10101'
tp746
S'../data/transmission_line_10_dropoffs/MultidropBode\\ac_Cdrp=3.0p_Rterm=sqrt(Lline_Cline)_Lenline=5.0_Rline=4.0_Lline=79.0p_Cline=220.0f_Vin=1_0_1_0_1_Vout.csv'
p747
s((S'6.0'
S'3.5n'
S'5.8p'
tS'3.0p'
g3
g4
I10
S'5.0'
S'10100'
tp748
S'..\\data\\transmission_line_10_dropoffs\\MultidropTransient\\tran_Cdrp=3.0p_Rterm=sqrt(Lline_Cline)_Lenline=5.0_Rline=6.0_Lline=3.5n_Cline=5.8p_Vin=1_0_1_0_0_Vout.csv'
p749
s((S'1.8'
S'4.0n'
S'9.0p'
tS'3.0p'
g3
g9
I10
S'5.0'
S'10101'
tp750
S'../data/transmission_line_10_dropoffs/MultidropBode\\ac_Cdrp=3.0p_Rterm=sqrt(Lline_Cline)_Lenline=5.0_Rline=1.8_Lline=4.0n_Cline=9.0p_Vin=1_0_1_0_1_Vout.csv'
p751
s((S'1.2'
S'2.4n'
S'4.6p'
tS'3.0p'
g3
g4
I10
S'5.0'
S'10101'
tp752
S'../data/transmission_line_10_dropoffs/MultidropTransient\\tran_Cdrp=3.0p_Rterm=sqrt(Lline_Cline)_Lenline=5.0_Rline=1.2_Lline=2.4n_Cline=4.6p_Vin=1_0_1_0_1_Vout.csv'
p753
s((S'620.0m'
S'2.4n'
S'4.6p'
tS'3.0p'
g3
g9
I10
S'5.0'
S'10100'
tp754
S'../data/transmission_line_10_dropoffs/MultidropBode\\ac_Cdrp=3.0p_Rterm=sqrt(Lline_Cline)_Lenline=5.0_Rline=620.0m_Lline=2.4n_Cline=4.6p_Vin=1_0_1_0_0_Vout.csv'
p755
s((S'14.0'
S'2.4n'
S'220.0f'
tS'3.0p'
g3
g4
I10
S'5.0'
S'10100'
tp756
S'../data/transmission_line_10_dropoffs/MultidropTransient\\tran_Cdrp=3.0p_Rterm=sqrt(Lline_Cline)_Lenline=5.0_Rline=14.0_Lline=2.4n_Cline=220.0f_Vin=1_0_1_0_0_Vout.csv'
p757
s((S'3.0'
S'4.0n'
S'9.0p'
tS'3.0p'
g3
g9
I10
S'5.0'
S'10101'
tp758
S'../data/transmission_line_10_dropoffs/MultidropBode\\ac_Cdrp=3.0p_Rterm=sqrt(Lline_Cline)_Lenline=5.0_Rline=3.0_Lline=4.0n_Cline=9.0p_Vin=1_0_1_0_1_Vout.csv'
p759
s((S'1.6'
S'2.4n'
S'4.6p'
tS'3.0p'
g3
g4
I10
S'5.0'
S'10101'
tp760
S'../data/transmission_line_10_dropoffs/MultidropTransient\\tran_Cdrp=3.0p_Rterm=sqrt(Lline_Cline)_Lenline=5.0_Rline=1.6_Lline=2.4n_Cline=4.6p_Vin=1_0_1_0_1_Vout.csv'
p761
s((S'17.0'
S'79.0p'
S'220.0f'
tS'1.0p'
g3
g4
I10
S'1.0'
S'10000'
tp762
S'../data/transmission_line_10_dropoffs/MultidropTransient\\tran_Cdrp=1.0p_Rterm=sqrt(Lline_Cline)_Lenline=1.0_Rline=17.0_Lline=79.0p_Cline=220.0f_Vin=1_0_0_0_0_Vout.csv'
p763
s((S'18.0'
S'2.4n'
S'4.6p'
tS'3.0p'
g3
g9
I10
S'5.0'
S'10100'
tp764
S'../data/transmission_line_10_dropoffs/MultidropBode\\ac_Cdrp=3.0p_Rterm=sqrt(Lline_Cline)_Lenline=5.0_Rline=18.0_Lline=2.4n_Cline=4.6p_Vin=1_0_1_0_0_Vout.csv'
p765
s((S'13.0'
S'2.4n'
S'4.6p'
tS'3.0p'
g3
g4
I10
S'5.0'
S'10100'
tp766
S'../data/transmission_line_10_dropoffs/MultidropTransient\\tran_Cdrp=3.0p_Rterm=sqrt(Lline_Cline)_Lenline=5.0_Rline=13.0_Lline=2.4n_Cline=4.6p_Vin=1_0_1_0_0_Vout.csv'
p767
s((S'20.0m'
S'2.4n'
S'4.6p'
tS'1.0p'
g3
g9
I10
S'5.0'
S'10100'
tp768
S'../data/transmission_line_10_dropoffs/MultidropBode\\ac_Cdrp=1.0p_Rterm=sqrt(Lline_Cline)_Lenline=5.0_Rline=20.0m_Lline=2.4n_Cline=4.6p_Vin=1_0_1_0_0_Vout.csv'
p769
s((S'820.0m'
S'2.4n'
S'4.6p'
tS'3.0p'
g3
g4
I10
S'5.0'
S'10101'
tp770
S'../data/transmission_line_10_dropoffs/MultidropTransient\\tran_Cdrp=3.0p_Rterm=sqrt(Lline_Cline)_Lenline=5.0_Rline=820.0m_Lline=2.4n_Cline=4.6p_Vin=1_0_1_0_1_Vout.csv'
p771
s((S'220.0m'
S'2.4n'
S'4.6p'
tS'3.0p'
S'Vin'
p772
g4
I10
S'5.0'
S'10100'
tp773
S'../data/transmission_line_10_dropoffs/MultidropTransient\\tran_Cdrp=3.0p_Rterm=sqrt(Lline_Cline)_Lenline=5.0_Rline=220.0m_Lline=2.4n_Cline=4.6p_Vin=1_0_1_0_0_Vm.csv'
p774
s((S'11.0'
S'2.4n'
S'4.6p'
tS'1.0p'
g3
g4
I10
S'5.0'
S'10100'
tp775
S'../data/transmission_line_10_dropoffs/MultidropTransient\\tran_Cdrp=1.0p_Rterm=sqrt(Lline_Cline)_Lenline=5.0_Rline=11.0_Lline=2.4n_Cline=4.6p_Vin=1_0_1_0_0_Vout.csv'
p776
s((S'6.0'
S'3.5n'
S'5.8p'
tS'3.0p'
g3
g9
I10
S'5.0'
S'10100'
tp777
S'..\\data\\transmission_line_10_dropoffs\\MultidropBode\\ac_Cdrp=3.0p_Rterm=sqrt(Lline_Cline)_Lenline=5.0_Rline=6.0_Lline=3.5n_Cline=5.8p_Vin=1_0_1_0_0_Vout.csv'
p778
s((S'6.0'
S'79.0p'
S'220.0f'
tS'3.0p'
g3
g9
I10
S'5.0'
S'10101'
tp779
S'../data/transmission_line_10_dropoffs/MultidropBode\\ac_Cdrp=3.0p_Rterm=sqrt(Lline_Cline)_Lenline=5.0_Rline=6.0_Lline=79.0p_Cline=220.0f_Vin=1_0_1_0_1_Vout.csv'
p780
s((S'10.0'
S'2.4n'
S'220.0f'
tS'3.0p'
g3
g4
I10
S'5.0'
S'10100'
tp781
S'../data/transmission_line_10_dropoffs/MultidropTransient\\tran_Cdrp=3.0p_Rterm=sqrt(Lline_Cline)_Lenline=5.0_Rline=10.0_Lline=2.4n_Cline=220.0f_Vin=1_0_1_0_0_Vout.csv'
p782
s((S'1.4'
S'2.4n'
S'220.0f'
tS'3.0p'
g3
g4
I10
S'5.0'
S'10100'
tp783
S'../data/transmission_line_10_dropoffs/MultidropTransient\\tran_Cdrp=3.0p_Rterm=sqrt(Lline_Cline)_Lenline=5.0_Rline=1.4_Lline=2.4n_Cline=220.0f_Vin=1_0_1_0_0_Vout.csv'
p784
s((S'12.0'
S'2.4n'
S'4.6p'
tS'3.0p'
g3
g4
I10
S'5.0'
S'10100'
tp785
S'../data/transmission_line_10_dropoffs/MultidropTransient\\tran_Cdrp=3.0p_Rterm=sqrt(Lline_Cline)_Lenline=5.0_Rline=12.0_Lline=2.4n_Cline=4.6p_Vin=1_0_1_0_0_Vout.csv'
p786
s((S'1.0'
S'2.4n'
S'4.6p'
tS'3.0p'
g3
g9
I10
S'5.0'
S'10101'
tp787
S'../data/transmission_line_10_dropoffs/MultidropBode\\ac_Cdrp=3.0p_Rterm=sqrt(Lline_Cline)_Lenline=5.0_Rline=1.0_Lline=2.4n_Cline=4.6p_Vin=1_0_1_0_1_Vout.csv'
p788
s((S'11.0'
S'2.4n'
S'4.6p'
tS'1.0p'
g3
g9
I10
S'5.0'
S'10100'
tp789
S'../data/transmission_line_10_dropoffs/MultidropBode\\ac_Cdrp=1.0p_Rterm=sqrt(Lline_Cline)_Lenline=5.0_Rline=11.0_Lline=2.4n_Cline=4.6p_Vin=1_0_1_0_0_Vout.csv'
p790
s((S'1.4'
S'2.4n'
S'220.0f'
tS'3.0p'
g3
g9
I10
S'5.0'
S'10100'
tp791
S'../data/transmission_line_10_dropoffs/MultidropBode\\ac_Cdrp=3.0p_Rterm=sqrt(Lline_Cline)_Lenline=5.0_Rline=1.4_Lline=2.4n_Cline=220.0f_Vin=1_0_1_0_0_Vout.csv'
p792
s((S'1.0'
S'2.4n'
S'220.0f'
tS'3.0p'
g3
g4
I10
S'5.0'
S'10100'
tp793
S'../data/transmission_line_10_dropoffs/MultidropTransient\\tran_Cdrp=3.0p_Rterm=sqrt(Lline_Cline)_Lenline=5.0_Rline=1.0_Lline=2.4n_Cline=220.0f_Vin=1_0_1_0_0_Vout.csv'
p794
s((S'15.0'
S'2.4n'
S'220.0f'
tS'3.0p'
g3
g4
I10
S'5.0'
S'10100'
tp795
S'../data/transmission_line_10_dropoffs/MultidropTransient\\tran_Cdrp=3.0p_Rterm=sqrt(Lline_Cline)_Lenline=5.0_Rline=15.0_Lline=2.4n_Cline=220.0f_Vin=1_0_1_0_0_Vout.csv'
p796
s((S'16.0'
S'79.0p'
S'220.0f'
tS'3.0p'
g3
g4
I10
S'5.0'
S'10101'
tp797
S'../data/transmission_line_10_dropoffs/MultidropTransient\\tran_Cdrp=3.0p_Rterm=sqrt(Lline_Cline)_Lenline=5.0_Rline=16.0_Lline=79.0p_Cline=220.0f_Vin=1_0_1_0_1_Vout.csv'
p798
s((S'220.0m'
S'79.0p'
S'220.0f'
tS'3.0p'
g3
g4
I10
S'5.0'
S'10101'
tp799
S'../data/transmission_line_10_dropoffs/MultidropTransient\\tran_Cdrp=3.0p_Rterm=sqrt(Lline_Cline)_Lenline=5.0_Rline=220.0m_Lline=79.0p_Cline=220.0f_Vin=1_0_1_0_1_Vout.csv'
p800
s((S'620.0m'
S'2.4n'
S'4.6p'
tS'3.0p'
g3
g9
I10
S'5.0'
S'10101'
tp801
S'../data/transmission_line_10_dropoffs/MultidropBode\\ac_Cdrp=3.0p_Rterm=sqrt(Lline_Cline)_Lenline=5.0_Rline=620.0m_Lline=2.4n_Cline=4.6p_Vin=1_0_1_0_1_Vout.csv'
p802
s((S'1.2'
S'2.4n'
S'220.0f'
tS'3.0p'
g3
g9
I10
S'5.0'
S'10100'
tp803
S'../data/transmission_line_10_dropoffs/MultidropBode\\ac_Cdrp=3.0p_Rterm=sqrt(Lline_Cline)_Lenline=5.0_Rline=1.2_Lline=2.4n_Cline=220.0f_Vin=1_0_1_0_0_Vout.csv'
p804
s((S'620.0m'
S'79.0p'
S'220.0f'
tS'3.0p'
g3
g9
I10
S'5.0'
S'10101'
tp805
S'../data/transmission_line_10_dropoffs/MultidropBode\\ac_Cdrp=3.0p_Rterm=sqrt(Lline_Cline)_Lenline=5.0_Rline=620.0m_Lline=79.0p_Cline=220.0f_Vin=1_0_1_0_1_Vout.csv'
p806
s((S'820.0m'
S'4.0n'
S'9.0p'
tS'3.0p'
g3
g4
I10
S'5.0'
S'10101'
tp807
S'../data/transmission_line_10_dropoffs/MultidropTransient\\tran_Cdrp=3.0p_Rterm=sqrt(Lline_Cline)_Lenline=5.0_Rline=820.0m_Lline=4.0n_Cline=9.0p_Vin=1_0_1_0_1_Vout.csv'
p808
s((S'220.0m'
S'3.5n'
S'5.8p'
tS'3.0p'
g3
g4
I10
S'5.0'
S'10100'
tp809
S'..\\data\\transmission_line_10_dropoffs\\MultidropTransient\\tran_Cdrp=3.0p_Rterm=sqrt(Lline_Cline)_Lenline=5.0_Rline=220.0m_Lline=3.5n_Cline=5.8p_Vin=1_0_1_0_0_Vout.csv'
p810
s((S'1.4'
S'79.0p'
S'220.0f'
tS'3.0p'
g3
g9
I10
S'5.0'
S'10101'
tp811
S'../data/transmission_line_10_dropoffs/MultidropBode\\ac_Cdrp=3.0p_Rterm=sqrt(Lline_Cline)_Lenline=5.0_Rline=1.4_Lline=79.0p_Cline=220.0f_Vin=1_0_1_0_1_Vout.csv'
p812
s((S'420.0m'
S'5.6n'
S'11.2p'
tS'3.0p'
g3
g4
I10
S'5.0'
S'10101'
tp813
S'../data/transmission_line_10_dropoffs/MultidropTransient\\tran_Cdrp=3.0p_Rterm=sqrt(Lline_Cline)_Lenline=5.0_Rline=420.0m_Lline=5.6n_Cline=11.2p_Vin=1_0_1_0_1_Vout.csv'
p814
s((S'18.0'
S'2.4n'
S'4.6p'
tS'3.0p'
g3
g9
I10
S'5.0'
S'10101'
tp815
S'../data/transmission_line_10_dropoffs/MultidropBode\\ac_Cdrp=3.0p_Rterm=sqrt(Lline_Cline)_Lenline=5.0_Rline=18.0_Lline=2.4n_Cline=4.6p_Vin=1_0_1_0_1_Vout.csv'
p816
s((S'14.0'
S'4.0n'
S'9.0p'
tS'3.0p'
g3
g9
I10
S'5.0'
S'10101'
tp817
S'../data/transmission_line_10_dropoffs/MultidropBode\\ac_Cdrp=3.0p_Rterm=sqrt(Lline_Cline)_Lenline=5.0_Rline=14.0_Lline=4.0n_Cline=9.0p_Vin=1_0_1_0_1_Vout.csv'
p818
s((S'13.0'
S'2.4n'
S'4.6p'
tS'3.0p'
g3
g4
I10
S'5.0'
S'10101'
tp819
S'../data/transmission_line_10_dropoffs/MultidropTransient\\tran_Cdrp=3.0p_Rterm=sqrt(Lline_Cline)_Lenline=5.0_Rline=13.0_Lline=2.4n_Cline=4.6p_Vin=1_0_1_0_1_Vout.csv'
p820
s((S'13.0'
S'2.4n'
S'220.0f'
tS'3.0p'
g3
g4
I10
S'5.0'
S'10100'
tp821
S'../data/transmission_line_10_dropoffs/MultidropTransient\\tran_Cdrp=3.0p_Rterm=sqrt(Lline_Cline)_Lenline=5.0_Rline=13.0_Lline=2.4n_Cline=220.0f_Vin=1_0_1_0_0_Vout.csv'
p822
s((S'15.0'
S'3.5n'
S'5.8p'
tS'3.0p'
g3
g9
I10
S'5.0'
S'10100'
tp823
S'..\\data\\transmission_line_10_dropoffs\\MultidropBode\\ac_Cdrp=3.0p_Rterm=sqrt(Lline_Cline)_Lenline=5.0_Rline=15.0_Lline=3.5n_Cline=5.8p_Vin=1_0_1_0_0_Vout.csv'
p824
s((S'14.0'
S'79.0p'
S'220.0f'
tS'3.0p'
g3
g9
I10
S'5.0'
S'10101'
tp825
S'../data/transmission_line_10_dropoffs/MultidropBode\\ac_Cdrp=3.0p_Rterm=sqrt(Lline_Cline)_Lenline=5.0_Rline=14.0_Lline=79.0p_Cline=220.0f_Vin=1_0_1_0_1_Vout.csv'
p826
s((S'1.6'
S'2.4n'
S'220.0f'
tS'3.0p'
g3
g4
I10
S'5.0'
S'10100'
tp827
S'../data/transmission_line_10_dropoffs/MultidropTransient\\tran_Cdrp=3.0p_Rterm=sqrt(Lline_Cline)_Lenline=5.0_Rline=1.6_Lline=2.4n_Cline=220.0f_Vin=1_0_1_0_0_Vout.csv'
p828
s((S'5.0'
S'2.4n'
S'220.0f'
tS'3.0p'
g3
g4
I10
S'5.0'
S'10100'
tp829
S'../data/transmission_line_10_dropoffs/MultidropTransient\\tran_Cdrp=3.0p_Rterm=sqrt(Lline_Cline)_Lenline=5.0_Rline=5.0_Lline=2.4n_Cline=220.0f_Vin=1_0_1_0_0_Vout.csv'
p830
s((S'620.0m'
S'2.4n'
S'4.6p'
tS'1.0p'
g3
g4
I10
S'5.0'
S'10100'
tp831
S'../data/transmission_line_10_dropoffs/MultidropTransient\\tran_Cdrp=1.0p_Rterm=sqrt(Lline_Cline)_Lenline=5.0_Rline=620.0m_Lline=2.4n_Cline=4.6p_Vin=1_0_1_0_0_Vout.csv'
p832
s((S'18.0'
S'2.4n'
S'4.6p'
tS'1.0p'
g3
g4
I10
S'5.0'
S'10100'
tp833
S'../data/transmission_line_10_dropoffs/MultidropTransient\\tran_Cdrp=1.0p_Rterm=sqrt(Lline_Cline)_Lenline=5.0_Rline=18.0_Lline=2.4n_Cline=4.6p_Vin=1_0_1_0_0_Vout.csv'
p834
s((S'220.0m'
S'3.5n'
S'5.8p'
tS'3.0p'
g3
g9
I10
S'5.0'
S'10100'
tp835
S'..\\data\\transmission_line_10_dropoffs\\MultidropBode\\ac_Cdrp=3.0p_Rterm=sqrt(Lline_Cline)_Lenline=5.0_Rline=220.0m_Lline=3.5n_Cline=5.8p_Vin=1_0_1_0_0_Vout.csv'
p836
s((S'16.0'
S'2.4n'
S'220.0f'
tS'3.0p'
g3
g4
I10
S'5.0'
S'10100'
tp837
S'../data/transmission_line_10_dropoffs/MultidropTransient\\tran_Cdrp=3.0p_Rterm=sqrt(Lline_Cline)_Lenline=5.0_Rline=16.0_Lline=2.4n_Cline=220.0f_Vin=1_0_1_0_0_Vout.csv'
p838
s((S'820.0m'
S'4.0n'
S'9.0p'
tS'3.0p'
g3
g9
I10
S'5.0'
S'10101'
tp839
S'../data/transmission_line_10_dropoffs/MultidropBode\\ac_Cdrp=3.0p_Rterm=sqrt(Lline_Cline)_Lenline=5.0_Rline=820.0m_Lline=4.0n_Cline=9.0p_Vin=1_0_1_0_1_Vout.csv'
p840
s((S'19.0'
S'2.4n'
S'4.6p'
tS'3.0p'
g3
g9
I10
S'5.0'
S'10101'
tp841
S'../data/transmission_line_10_dropoffs/MultidropBode\\ac_Cdrp=3.0p_Rterm=sqrt(Lline_Cline)_Lenline=5.0_Rline=19.0_Lline=2.4n_Cline=4.6p_Vin=1_0_1_0_1_Vout.csv'
p842
s((S'1.2'
S'79.0p'
S'220.0f'
tS'3.0p'
g3
g9
I10
S'5.0'
S'10101'
tp843
S'../data/transmission_line_10_dropoffs/MultidropBode\\ac_Cdrp=3.0p_Rterm=sqrt(Lline_Cline)_Lenline=5.0_Rline=1.2_Lline=79.0p_Cline=220.0f_Vin=1_0_1_0_1_Vout.csv'
p844
s((S'20.0m'
S'79.0p'
S'220.0f'
tS'3.0p'
g3
g4
I10
S'5.0'
S'10101'
tp845
S'../data/transmission_line_10_dropoffs/MultidropTransient\\tran_Cdrp=3.0p_Rterm=sqrt(Lline_Cline)_Lenline=5.0_Rline=20.0m_Lline=79.0p_Cline=220.0f_Vin=1_0_1_0_1_Vout.csv'
p846
s((S'1.0'
S'2.4n'
S'4.6p'
tS'3.0p'
g3
g9
I10
S'5.0'
S'10100'
tp847
S'../data/transmission_line_10_dropoffs/MultidropBode\\ac_Cdrp=3.0p_Rterm=sqrt(Lline_Cline)_Lenline=5.0_Rline=1.0_Lline=2.4n_Cline=4.6p_Vin=1_0_1_0_0_Vout.csv'
p848
s((S'13.0'
S'79.0p'
S'220.0f'
tS'1.0p'
g3
g9
I10
S'1.0'
S'10000'
tp849
S'../data/transmission_line_10_dropoffs/MultidropBode\\ac_Cdrp=1.0p_Rterm=sqrt(Lline_Cline)_Lenline=1.0_Rline=13.0_Lline=79.0p_Cline=220.0f_Vin=1_0_0_0_0_Vout.csv'
p850
s((S'3.0'
S'79.0p'
S'220.0f'
tS'3.0p'
g3
g9
I10
S'5.0'
S'10101'
tp851
S'../data/transmission_line_10_dropoffs/MultidropBode\\ac_Cdrp=3.0p_Rterm=sqrt(Lline_Cline)_Lenline=5.0_Rline=3.0_Lline=79.0p_Cline=220.0f_Vin=1_0_1_0_1_Vout.csv'
p852
s((S'4.0'
S'4.0n'
S'9.0p'
tS'3.0p'
g3
g9
I10
S'5.0'
S'10101'
tp853
S'../data/transmission_line_10_dropoffs/MultidropBode\\ac_Cdrp=3.0p_Rterm=sqrt(Lline_Cline)_Lenline=5.0_Rline=4.0_Lline=4.0n_Cline=9.0p_Vin=1_0_1_0_1_Vout.csv'
p854
s((S'7.0'
S'79.0p'
S'220.0f'
tS'3.0p'
g3
g9
I10
S'5.0'
S'10101'
tp855
S'../data/transmission_line_10_dropoffs/MultidropBode\\ac_Cdrp=3.0p_Rterm=sqrt(Lline_Cline)_Lenline=5.0_Rline=7.0_Lline=79.0p_Cline=220.0f_Vin=1_0_1_0_1_Vout.csv'
p856
s((S'10.0'
S'4.0n'
S'9.0p'
tS'3.0p'
g3
g4
I10
S'5.0'
S'10101'
tp857
S'../data/transmission_line_10_dropoffs/MultidropTransient\\tran_Cdrp=3.0p_Rterm=sqrt(Lline_Cline)_Lenline=5.0_Rline=10.0_Lline=4.0n_Cline=9.0p_Vin=1_0_1_0_1_Vout.csv'
p858
s((S'12.0'
S'2.4n'
S'4.6p'
tS'3.0p'
g3
g9
I10
S'5.0'
S'10100'
tp859
S'../data/transmission_line_10_dropoffs/MultidropBode\\ac_Cdrp=3.0p_Rterm=sqrt(Lline_Cline)_Lenline=5.0_Rline=12.0_Lline=2.4n_Cline=4.6p_Vin=1_0_1_0_0_Vout.csv'
p860
s((S'14.0'
S'3.5n'
S'5.8p'
tS'3.0p'
g3
g4
I10
S'5.0'
S'10100'
tp861
S'..\\data\\transmission_line_10_dropoffs\\MultidropTransient\\tran_Cdrp=3.0p_Rterm=sqrt(Lline_Cline)_Lenline=5.0_Rline=14.0_Lline=3.5n_Cline=5.8p_Vin=1_0_1_0_0_Vout.csv'
p862
s((S'20.0m'
S'79.0p'
S'220.0f'
tS'3.0p'
g3
g9
I10
S'5.0'
S'01111'
tp863
S'../data/transmission_line_10_dropoffs/MultidropBode\\ac_Cdrp=3.0p_Rterm=sqrt(Lline_Cline)_Lenline=5.0_Rline=20.0m_Lline=79.0p_Cline=220.0f_Vin=0_1_1_1_1_Vout.csv'
p864
s((S'7.0'
S'4.0n'
S'9.0p'
tS'3.0p'
g3
g4
I10
S'5.0'
S'10101'
tp865
S'../data/transmission_line_10_dropoffs/MultidropTransient\\tran_Cdrp=3.0p_Rterm=sqrt(Lline_Cline)_Lenline=5.0_Rline=7.0_Lline=4.0n_Cline=9.0p_Vin=1_0_1_0_1_Vout.csv'
p866
s((S'3.0'
S'79.0p'
S'220.0f'
tS'3.0p'
g3
g4
I10
S'5.0'
S'10101'
tp867
S'../data/transmission_line_10_dropoffs/MultidropTransient\\tran_Cdrp=3.0p_Rterm=sqrt(Lline_Cline)_Lenline=5.0_Rline=3.0_Lline=79.0p_Cline=220.0f_Vin=1_0_1_0_1_Vout.csv'
p868
sa(lp869
cnumpy.core.multiarray
scalar
p870
(cnumpy
dtype
p871
(S'f8'
I0
I1
tRp872
(I3
S'<'
NNNI-1
I-1
I0
tbS'{\x14\xaeG\xe1z\x94?'
tRp873
ag870
(g872
S')\\\x8f\xc2\xf5(\xcc?'
tRp874
ag870
(g872
S'\xe2z\x14\xaeG\xe1\xda?'
tRp875
ag870
(g872
S'\xd8\xa3p=\n\xd7\xe3?'
tRp876
ag870
(g872
S'>\n\xd7\xa3p=\xea?'
tRp877
ag870
(g872
S'\x00\x00\x00\x00\x00\x00\x00@'
tRp878
ag870
(g872
S'\x00\x00\x00\x00\x00\x00\x08@'
tRp879
ag870
(g872
S'\x00\x00\x00\x00\x00\x00\x10@'
tRp880
ag870
(g872
S'\x00\x00\x00\x00\x00\x00\x14@'
tRp881
ag870
(g872
S'\x00\x00\x00\x00\x00\x00\x18@'
tRp882
ag870
(g872
S'\x00\x00\x00\x00\x00\x00\x1c@'
tRp883
ag870
(g872
S'\x00\x00\x00\x00\x00\x00 @'
tRp884
ag870
(g872
S'\x00\x00\x00\x00\x00\x00"@'
tRp885
ag870
(g872
S'\x00\x00\x00\x00\x00\x00$@'
tRp886
ag870
(g872
S'\x00\x00\x00\x00\x00\x00&@'
tRp887
ag870
(g872
S'\x00\x00\x00\x00\x00\x00(@'
tRp888
ag870
(g872
S'\x00\x00\x00\x00\x00\x00*@'
tRp889
ag870
(g872
S'\x00\x00\x00\x00\x00\x00,@'
tRp890
ag870
(g872
S'\x00\x00\x00\x00\x00\x00.@'
tRp891
ag870
(g872
S'\x00\x00\x00\x00\x00\x000@'
tRp892
ag870
(g872
S'\x00\x00\x00\x00\x00\x001@'
tRp893
ag870
(g872
S'\x00\x00\x00\x00\x00\x002@'
tRp894
ag870
(g872
S'\x00\x00\x00\x00\x00\x003@'
tRp895
ag870
(g872
S'\x00\x00\x00\x00\x00\x004@'
tRp896
aa(lp897
g870
(g872
S'\x95\xd6&\xe8\x0b.\x01>'
tRp898
ag870
(g872
S'\x95\xd6&\xe8\x0b.\x11>'
tRp899
ag870
(g872
S'\xe0A:\xdc\x11\xc5\x19>'
tRp900
ag870
(g872
S'\x95\xd6&\xe8\x0b.!>'
tRp901
ag870
(g872
S':\x8c0\xe2\x8ey%>'
tRp902
ag870
(g872
S'\xdfA:\xdc\x11\xc5)>'
tRp903
ag870
(g872
S'\x85\xf7C\xd6\x94\x10.>'
tRp904
ag870
(g872
S'\x95\xd6&\xe8\x0b.1>'
tRp905
ag870
(g872
S'h\xb1+e\xcdS3>'
tRp906
ag870
(g872
S';\x8c0\xe2\x8ey5>'
tRp907
ag870
(g872
S'\rg5_P\x9f7>'
tRp908
ag870
(g872
S'\xe0A:\xdc\x11\xc59>'
tRp909
ag870
(g872
S'\xb3\x1c?Y\xd3\xea;>'
tRp910
ag870
(g872
S'\x85\xf7C\xd6\x94\x10>>'
tRp911
ag870
(g872
S',i\xa4)+\x1b@>'
tRp912
ag870
(g872
S'\x95\xd6&\xe8\x0b.A>'
tRp913
ag870
(g872
S'\xfeC\xa9\xa6\xec@B>'
tRp914
ag870
(g872
S'g\xb1+e\xcdSC>'
tRp915
ag870
(g872
S'\xd1\x1e\xae#\xaefD>'
tRp916
ag870
(g872
S':\x8c0\xe2\x8eyE>'
tRp917
ag870
(g872
S'\xa3\xf9\xb2\xa0o\x8cF>'
tRp918
aa(lp919
g870
(g872
S'\x82vIh\xc2%L='
tRp920
ag870
(g872
S'R\xa5R\xb5z\xaao='
tRp921
ag870
(g872
S'\x82vIh\xc2%|='
tRp922
ag870
(g872
S'.\xcd\xf4\xba#;\x84='
tRp923
ag870
(g872
S'\x1a\xdf\xc4Afc\x8a='
tRp924
ag870
(g872
S'\x83xJd\xd4E\x90='
tRp925
ag870
(g872
S'z\x81\xb2\xa7\xf5Y\x93='
tRp926
ag870
(g872
S'p\x8a\x1a\xeb\x16n\x96='
tRp927
ag870
(g872
S'f\x93\x82.8\x82\x99='
tRp928
ag870
(g872
S'\\\x9c\xeaqY\x96\x9c='
tRp929
ag870
(g872
S'R\xa5R\xb5z\xaa\x9f='
tRp930
ag870
(g872
S'$W]\xfcM_\xa1='
tRp931
ag870
(g872
S'\xa0[\x11\x9e^\xe9\xa2='
tRp932
ag870
(g872
S'\x1b`\xc5?os\xa4='
tRp933
ag870
(g872
S'\x96dy\xe1\x7f\xfd\xa5='
tRp934
aa.