(lp1
(dp2
((S'20.0m'
S'79.0p'
S'220.0f'
tS'3.0p'
S'Vout'
p3
S'tran'
p4
I10
S'5.0'
S'10100'
tp5
S'../data/transmission_line_10_dropoffs/MultidropTransient\\tran_Cdrp=3.0p_Rterm=sqrt(Lline_Cline)_Lenline=5.0_Rline=20.0m_Lline=79.0p_Cline=220.0f_Vin=1_0_1_0_0_Vout.csv'
p6
s((S'15.0'
S'2.4n'
S'4.6p'
tS'3.0p'
g3
S'ac'
p7
I10
S'5.0'
S'10101'
tp8
S'../data/transmission_line_10_dropoffs/MultidropBode\\ac_Cdrp=3.0p_Rterm=sqrt(Lline_Cline)_Lenline=5.0_Rline=15.0_Lline=2.4n_Cline=4.6p_Vin=1_0_1_0_1_Vout.csv'
p9
s((S'5.0'
S'79.0p'
S'220.0f'
tS'1.0p'
g3
g7
I10
S'1.0'
S'10000'
tp10
S'../data/transmission_line_10_dropoffs/MultidropBode\\ac_Cdrp=1.0p_Rterm=sqrt(Lline_Cline)_Lenline=1.0_Rline=5.0_Lline=79.0p_Cline=220.0f_Vin=1_0_0_0_0_Vout.csv'
p11
s((S'11.0'
S'79.0p'
S'220.0f'
tS'3.0p'
g3
g7
I10
S'5.0'
S'10101'
tp12
S'../data/transmission_line_10_dropoffs/MultidropBode\\ac_Cdrp=3.0p_Rterm=sqrt(Lline_Cline)_Lenline=5.0_Rline=11.0_Lline=79.0p_Cline=220.0f_Vin=1_0_1_0_1_Vout.csv'
p13
s((S'1.0'
S'79.0p'
S'220.0f'
tS'3.0p'
g3
g7
I10
S'5.0'
S'10101'
tp14
S'../data/transmission_line_10_dropoffs/MultidropBode\\ac_Cdrp=3.0p_Rterm=sqrt(Lline_Cline)_Lenline=5.0_Rline=1.0_Lline=79.0p_Cline=220.0f_Vin=1_0_1_0_1_Vout.csv'
p15
s((S'6.0'
S'79.0p'
S'220.0f'
tS'3.0p'
g3
g4
I10
S'5.0'
S'10101'
tp16
S'../data/transmission_line_10_dropoffs/MultidropTransient\\tran_Cdrp=3.0p_Rterm=sqrt(Lline_Cline)_Lenline=5.0_Rline=6.0_Lline=79.0p_Cline=220.0f_Vin=1_0_1_0_1_Vout.csv'
p17
s((S'9.0'
S'79.0p'
S'220.0f'
tS'3.0p'
g3
g7
I10
S'5.0'
S'10101'
tp18
S'../data/transmission_line_10_dropoffs/MultidropBode\\ac_Cdrp=3.0p_Rterm=sqrt(Lline_Cline)_Lenline=5.0_Rline=9.0_Lline=79.0p_Cline=220.0f_Vin=1_0_1_0_1_Vout.csv'
p19
s((S'16.0'
S'79.0p'
S'220.0f'
tS'1.0p'
g3
g7
I10
S'1.0'
S'10000'
tp20
S'../data/transmission_line_10_dropoffs/MultidropBode\\ac_Cdrp=1.0p_Rterm=sqrt(Lline_Cline)_Lenline=1.0_Rline=16.0_Lline=79.0p_Cline=220.0f_Vin=1_0_0_0_0_Vout.csv'
p21
s((S'5.0'
S'79.0p'
S'220.0f'
tS'3.0p'
g3
g7
I10
S'5.0'
S'10101'
tp22
S'../data/transmission_line_10_dropoffs/MultidropBode\\ac_Cdrp=3.0p_Rterm=sqrt(Lline_Cline)_Lenline=5.0_Rline=5.0_Lline=79.0p_Cline=220.0f_Vin=1_0_1_0_1_Vout.csv'
p23
s((S'17.0'
S'79.0p'
S'220.0f'
tS'1.0p'
g3
g7
I10
S'1.0'
S'10000'
tp24
S'../data/transmission_line_10_dropoffs/MultidropBode\\ac_Cdrp=1.0p_Rterm=sqrt(Lline_Cline)_Lenline=1.0_Rline=17.0_Lline=79.0p_Cline=220.0f_Vin=1_0_0_0_0_Vout.csv'
p25
s((S'14.0'
S'79.0p'
S'220.0f'
tS'1.0p'
g3
g7
I10
S'1.0'
S'10000'
tp26
S'../data/transmission_line_10_dropoffs/MultidropBode\\ac_Cdrp=1.0p_Rterm=sqrt(Lline_Cline)_Lenline=1.0_Rline=14.0_Lline=79.0p_Cline=220.0f_Vin=1_0_0_0_0_Vout.csv'
p27
s((S'11.0'
S'2.4n'
S'4.6p'
tS'3.0p'
g3
g7
I10
S'5.0'
S'10101'
tp28
S'../data/transmission_line_10_dropoffs/MultidropBode\\ac_Cdrp=3.0p_Rterm=sqrt(Lline_Cline)_Lenline=5.0_Rline=11.0_Lline=2.4n_Cline=4.6p_Vin=1_0_1_0_1_Vout.csv'
p29
s((S'1.6'
S'2.4n'
S'4.6p'
tS'3.0p'
g3
g7
I10
S'5.0'
S'10101'
tp30
S'../data/transmission_line_10_dropoffs/MultidropBode\\ac_Cdrp=3.0p_Rterm=sqrt(Lline_Cline)_Lenline=5.0_Rline=1.6_Lline=2.4n_Cline=4.6p_Vin=1_0_1_0_1_Vout.csv'
p31
s((S'5.0'
S'79.0p'
S'220.0f'
tS'1.0p'
g3
g4
I10
S'1.0'
S'10000'
tp32
S'../data/transmission_line_10_dropoffs/MultidropTransient\\tran_Cdrp=1.0p_Rterm=sqrt(Lline_Cline)_Lenline=1.0_Rline=5.0_Lline=79.0p_Cline=220.0f_Vin=1_0_0_0_0_Vout.csv'
p33
s((S'20.0m'
S'2.4n'
S'4.6p'
tS'3.0p'
g3
g7
I10
S'5.0'
S'10101'
tp34
S'../data/transmission_line_10_dropoffs/MultidropBode\\ac_Cdrp=3.0p_Rterm=sqrt(Lline_Cline)_Lenline=5.0_Rline=20.0m_Lline=2.4n_Cline=4.6p_Vin=1_0_1_0_1_Vout.csv'
p35
s((S'1.0'
S'79.0p'
S'220.0f'
tS'3.0p'
g3
g4
I10
S'5.0'
S'10101'
tp36
S'../data/transmission_line_10_dropoffs/MultidropTransient\\tran_Cdrp=3.0p_Rterm=sqrt(Lline_Cline)_Lenline=5.0_Rline=1.0_Lline=79.0p_Cline=220.0f_Vin=1_0_1_0_1_Vout.csv'
p37
s((S'8.0'
S'79.0p'
S'220.0f'
tS'1.0p'
g3
g4
I10
S'1.0'
S'10000'
tp38
S'../data/transmission_line_10_dropoffs/MultidropTransient\\tran_Cdrp=1.0p_Rterm=sqrt(Lline_Cline)_Lenline=1.0_Rline=8.0_Lline=79.0p_Cline=220.0f_Vin=1_0_0_0_0_Vout.csv'
p39
s((S'11.0'
S'79.0p'
S'220.0f'
tS'1.0p'
g3
g7
I10
S'1.0'
S'10000'
tp40
S'../data/transmission_line_10_dropoffs/MultidropBode\\ac_Cdrp=1.0p_Rterm=sqrt(Lline_Cline)_Lenline=1.0_Rline=11.0_Lline=79.0p_Cline=220.0f_Vin=1_0_0_0_0_Vout.csv'
p41
s((S'1.8'
S'2.4n'
S'4.6p'
tS'3.0p'
g3
g7
I10
S'5.0'
S'10101'
tp42
S'../data/transmission_line_10_dropoffs/MultidropBode\\ac_Cdrp=3.0p_Rterm=sqrt(Lline_Cline)_Lenline=5.0_Rline=1.8_Lline=2.4n_Cline=4.6p_Vin=1_0_1_0_1_Vout.csv'
p43
s((S'620.0m'
S'79.0p'
S'220.0f'
tS'3.0p'
g3
g4
I10
S'5.0'
S'10101'
tp44
S'../data/transmission_line_10_dropoffs/MultidropTransient\\tran_Cdrp=3.0p_Rterm=sqrt(Lline_Cline)_Lenline=5.0_Rline=620.0m_Lline=79.0p_Cline=220.0f_Vin=1_0_1_0_1_Vout.csv'
p45
s((S'18.0'
S'79.0p'
S'220.0f'
tS'3.0p'
g3
g7
I10
S'5.0'
S'10101'
tp46
S'../data/transmission_line_10_dropoffs/MultidropBode\\ac_Cdrp=3.0p_Rterm=sqrt(Lline_Cline)_Lenline=5.0_Rline=18.0_Lline=79.0p_Cline=220.0f_Vin=1_0_1_0_1_Vout.csv'
p47
s((S'15.0'
S'79.0p'
S'220.0f'
tS'3.0p'
g3
g4
I10
S'5.0'
S'10101'
tp48
S'../data/transmission_line_10_dropoffs/MultidropTransient\\tran_Cdrp=3.0p_Rterm=sqrt(Lline_Cline)_Lenline=5.0_Rline=15.0_Lline=79.0p_Cline=220.0f_Vin=1_0_1_0_1_Vout.csv'
p49
s((S'12.0'
S'2.4n'
S'4.6p'
tS'3.0p'
g3
g7
I10
S'5.0'
S'10101'
tp50
S'../data/transmission_line_10_dropoffs/MultidropBode\\ac_Cdrp=3.0p_Rterm=sqrt(Lline_Cline)_Lenline=5.0_Rline=12.0_Lline=2.4n_Cline=4.6p_Vin=1_0_1_0_1_Vout.csv'
p51
s((S'10.0'
S'2.4n'
S'4.6p'
tS'3.0p'
g3
g7
I10
S'5.0'
S'10101'
tp52
S'../data/transmission_line_10_dropoffs/MultidropBode\\ac_Cdrp=3.0p_Rterm=sqrt(Lline_Cline)_Lenline=5.0_Rline=10.0_Lline=2.4n_Cline=4.6p_Vin=1_0_1_0_1_Vout.csv'
p53
s((S'15.0'
S'79.0p'
S'220.0f'
tS'3.0p'
g3
g7
I10
S'5.0'
S'10101'
tp54
S'../data/transmission_line_10_dropoffs/MultidropBode\\ac_Cdrp=3.0p_Rterm=sqrt(Lline_Cline)_Lenline=5.0_Rline=15.0_Lline=79.0p_Cline=220.0f_Vin=1_0_1_0_1_Vout.csv'
p55
s((S'18.0'
S'2.4n'
S'4.6p'
tS'3.0p'
g3
g7
I10
S'5.0'
S'10101'
tp56
S'../data/transmission_line_10_dropoffs/MultidropBode\\ac_Cdrp=3.0p_Rterm=sqrt(Lline_Cline)_Lenline=5.0_Rline=18.0_Lline=2.4n_Cline=4.6p_Vin=1_0_1_0_1_Vout.csv'
p57
s((S'7.0'
S'2.4n'
S'4.6p'
tS'3.0p'
g3
g7
I10
S'5.0'
S'10101'
tp58
S'../data/transmission_line_10_dropoffs/MultidropBode\\ac_Cdrp=3.0p_Rterm=sqrt(Lline_Cline)_Lenline=5.0_Rline=7.0_Lline=2.4n_Cline=4.6p_Vin=1_0_1_0_1_Vout.csv'
p59
s((S'4.0'
S'79.0p'
S'220.0f'
tS'3.0p'
g3
g4
I10
S'5.0'
S'10101'
tp60
S'../data/transmission_line_10_dropoffs/MultidropTransient\\tran_Cdrp=3.0p_Rterm=sqrt(Lline_Cline)_Lenline=5.0_Rline=4.0_Lline=79.0p_Cline=220.0f_Vin=1_0_1_0_1_Vout.csv'
p61
s((S'18.0'
S'2.4n'
S'4.6p'
tS'3.0p'
g3
g4
I10
S'5.0'
S'10101'
tp62
S'../data/transmission_line_10_dropoffs/MultidropTransient\\tran_Cdrp=3.0p_Rterm=sqrt(Lline_Cline)_Lenline=5.0_Rline=18.0_Lline=2.4n_Cline=4.6p_Vin=1_0_1_0_1_Vout.csv'
p63
s((S'13.0'
S'2.4n'
S'4.6p'
tS'3.0p'
g3
g7
I10
S'5.0'
S'10101'
tp64
S'../data/transmission_line_10_dropoffs/MultidropBode\\ac_Cdrp=3.0p_Rterm=sqrt(Lline_Cline)_Lenline=5.0_Rline=13.0_Lline=2.4n_Cline=4.6p_Vin=1_0_1_0_1_Vout.csv'
p65
s((S'8.0'
S'2.4n'
S'4.6p'
tS'3.0p'
g3
g7
I10
S'5.0'
S'10101'
tp66
S'../data/transmission_line_10_dropoffs/MultidropBode\\ac_Cdrp=3.0p_Rterm=sqrt(Lline_Cline)_Lenline=5.0_Rline=8.0_Lline=2.4n_Cline=4.6p_Vin=1_0_1_0_1_Vout.csv'
p67
s((S'220.0m'
S'2.4n'
S'4.6p'
tS'3.0p'
g3
g4
I10
S'5.0'
S'10101'
tp68
S'../data/transmission_line_10_dropoffs/MultidropTransient\\tran_Cdrp=3.0p_Rterm=sqrt(Lline_Cline)_Lenline=5.0_Rline=220.0m_Lline=2.4n_Cline=4.6p_Vin=1_0_1_0_1_Vout.csv'
p69
s((S'19.0'
S'79.0p'
S'220.0f'
tS'1.0p'
g3
g7
I10
S'1.0'
S'10000'
tp70
S'../data/transmission_line_10_dropoffs/MultidropBode\\ac_Cdrp=1.0p_Rterm=sqrt(Lline_Cline)_Lenline=1.0_Rline=19.0_Lline=79.0p_Cline=220.0f_Vin=1_0_0_0_0_Vout.csv'
p71
s((S'14.0'
S'2.4n'
S'4.6p'
tS'3.0p'
g3
g4
I10
S'5.0'
S'10101'
tp72
S'../data/transmission_line_10_dropoffs/MultidropTransient\\tran_Cdrp=3.0p_Rterm=sqrt(Lline_Cline)_Lenline=5.0_Rline=14.0_Lline=2.4n_Cline=4.6p_Vin=1_0_1_0_1_Vout.csv'
p73
s((S'17.0'
S'79.0p'
S'220.0f'
tS'3.0p'
g3
g7
I10
S'5.0'
S'10101'
tp74
S'../data/transmission_line_10_dropoffs/MultidropBode\\ac_Cdrp=3.0p_Rterm=sqrt(Lline_Cline)_Lenline=5.0_Rline=17.0_Lline=79.0p_Cline=220.0f_Vin=1_0_1_0_1_Vout.csv'
p75
s((S'820.0m'
S'2.4n'
S'4.6p'
tS'3.0p'
g3
g4
I10
S'5.0'
S'10101'
tp76
S'../data/transmission_line_10_dropoffs/MultidropTransient\\tran_Cdrp=3.0p_Rterm=sqrt(Lline_Cline)_Lenline=5.0_Rline=820.0m_Lline=2.4n_Cline=4.6p_Vin=1_0_1_0_1_Vout.csv'
p77
s((S'9.0'
S'79.0p'
S'220.0f'
tS'1.0p'
g3
g4
I10
S'1.0'
S'10000'
tp78
S'../data/transmission_line_10_dropoffs/MultidropTransient\\tran_Cdrp=1.0p_Rterm=sqrt(Lline_Cline)_Lenline=1.0_Rline=9.0_Lline=79.0p_Cline=220.0f_Vin=1_0_0_0_0_Vout.csv'
p79
s((S'9.0'
S'79.0p'
S'220.0f'
tS'1.0p'
g3
g7
I10
S'1.0'
S'10000'
tp80
S'../data/transmission_line_10_dropoffs/MultidropBode\\ac_Cdrp=1.0p_Rterm=sqrt(Lline_Cline)_Lenline=1.0_Rline=9.0_Lline=79.0p_Cline=220.0f_Vin=1_0_0_0_0_Vout.csv'
p81
s((S'10.0'
S'79.0p'
S'220.0f'
tS'3.0p'
g3
g4
I10
S'5.0'
S'10101'
tp82
S'../data/transmission_line_10_dropoffs/MultidropTransient\\tran_Cdrp=3.0p_Rterm=sqrt(Lline_Cline)_Lenline=5.0_Rline=10.0_Lline=79.0p_Cline=220.0f_Vin=1_0_1_0_1_Vout.csv'
p83
s((S'13.0'
S'79.0p'
S'220.0f'
tS'1.0p'
g3
g4
I10
S'1.0'
S'10000'
tp84
S'../data/transmission_line_10_dropoffs/MultidropTransient\\tran_Cdrp=1.0p_Rterm=sqrt(Lline_Cline)_Lenline=1.0_Rline=13.0_Lline=79.0p_Cline=220.0f_Vin=1_0_0_0_0_Vout.csv'
p85
s((S'5.0'
S'79.0p'
S'220.0f'
tS'3.0p'
g3
g4
I10
S'5.0'
S'10101'
tp86
S'../data/transmission_line_10_dropoffs/MultidropTransient\\tran_Cdrp=3.0p_Rterm=sqrt(Lline_Cline)_Lenline=5.0_Rline=5.0_Lline=79.0p_Cline=220.0f_Vin=1_0_1_0_1_Vout.csv'
p87
s((S'6.0'
S'79.0p'
S'220.0f'
tS'1.0p'
g3
g4
I10
S'1.0'
S'10000'
tp88
S'../data/transmission_line_10_dropoffs/MultidropTransient\\tran_Cdrp=1.0p_Rterm=sqrt(Lline_Cline)_Lenline=1.0_Rline=6.0_Lline=79.0p_Cline=220.0f_Vin=1_0_0_0_0_Vout.csv'
p89
s((S'16.0'
S'2.4n'
S'4.6p'
tS'3.0p'
g3
g7
I10
S'5.0'
S'10101'
tp90
S'../data/transmission_line_10_dropoffs/MultidropBode\\ac_Cdrp=3.0p_Rterm=sqrt(Lline_Cline)_Lenline=5.0_Rline=16.0_Lline=2.4n_Cline=4.6p_Vin=1_0_1_0_1_Vout.csv'
p91
s((S'420.0m'
S'2.4n'
S'4.6p'
tS'3.0p'
g3
g7
I10
S'5.0'
S'10101'
tp92
S'../data/transmission_line_10_dropoffs/MultidropBode\\ac_Cdrp=3.0p_Rterm=sqrt(Lline_Cline)_Lenline=5.0_Rline=420.0m_Lline=2.4n_Cline=4.6p_Vin=1_0_1_0_1_Vout.csv'
p93
s((S'7.0'
S'79.0p'
S'220.0f'
tS'1.0p'
g3
g4
I10
S'1.0'
S'10000'
tp94
S'../data/transmission_line_10_dropoffs/MultidropTransient\\tran_Cdrp=1.0p_Rterm=sqrt(Lline_Cline)_Lenline=1.0_Rline=7.0_Lline=79.0p_Cline=220.0f_Vin=1_0_0_0_0_Vout.csv'
p95
s((S'7.0'
S'79.0p'
S'220.0f'
tS'3.0p'
g3
g4
I10
S'5.0'
S'10101'
tp96
S'../data/transmission_line_10_dropoffs/MultidropTransient\\tran_Cdrp=3.0p_Rterm=sqrt(Lline_Cline)_Lenline=5.0_Rline=7.0_Lline=79.0p_Cline=220.0f_Vin=1_0_1_0_1_Vout.csv'
p97
s((S'220.0m'
S'79.0p'
S'220.0f'
tS'3.0p'
g3
g7
I10
S'5.0'
S'10101'
tp98
S'../data/transmission_line_10_dropoffs/MultidropBode\\ac_Cdrp=3.0p_Rterm=sqrt(Lline_Cline)_Lenline=5.0_Rline=220.0m_Lline=79.0p_Cline=220.0f_Vin=1_0_1_0_1_Vout.csv'
p99
s((S'19.0'
S'2.4n'
S'4.6p'
tS'3.0p'
g3
g4
I10
S'5.0'
S'10101'
tp100
S'../data/transmission_line_10_dropoffs/MultidropTransient\\tran_Cdrp=3.0p_Rterm=sqrt(Lline_Cline)_Lenline=5.0_Rline=19.0_Lline=2.4n_Cline=4.6p_Vin=1_0_1_0_1_Vout.csv'
p101
s((S'14.0'
S'79.0p'
S'220.0f'
tS'3.0p'
g3
g4
I10
S'5.0'
S'10101'
tp102
S'../data/transmission_line_10_dropoffs/MultidropTransient\\tran_Cdrp=3.0p_Rterm=sqrt(Lline_Cline)_Lenline=5.0_Rline=14.0_Lline=79.0p_Cline=220.0f_Vin=1_0_1_0_1_Vout.csv'
p103
s((S'18.0'
S'79.0p'
S'220.0f'
tS'1.0p'
g3
g7
I10
S'1.0'
S'10000'
tp104
S'../data/transmission_line_10_dropoffs/MultidropBode\\ac_Cdrp=1.0p_Rterm=sqrt(Lline_Cline)_Lenline=1.0_Rline=18.0_Lline=79.0p_Cline=220.0f_Vin=1_0_0_0_0_Vout.csv'
p105
s((S'20.0m'
S'79.0p'
S'220.0f'
tS'1.0p'
g3
g7
I10
S'1.0'
S'10100'
tp106
S'../data/transmission_line_10_dropoffs/MultidropBode\\ac_Cdrp=1.0p_Rterm=sqrt(Lline_Cline)_Lenline=1.0_Rline=20.0m_Lline=79.0p_Cline=220.0f_Vin=1_0_1_0_0_Vout.csv'
p107
s((S'1.4'
S'79.0p'
S'220.0f'
tS'3.0p'
g3
g4
I10
S'5.0'
S'10101'
tp108
S'../data/transmission_line_10_dropoffs/MultidropTransient\\tran_Cdrp=3.0p_Rterm=sqrt(Lline_Cline)_Lenline=5.0_Rline=1.4_Lline=79.0p_Cline=220.0f_Vin=1_0_1_0_1_Vout.csv'
p109
s((S'220.0m'
S'2.4n'
S'4.6p'
tS'3.0p'
g3
g7
I10
S'5.0'
S'10101'
tp110
S'../data/transmission_line_10_dropoffs/MultidropBode\\ac_Cdrp=3.0p_Rterm=sqrt(Lline_Cline)_Lenline=5.0_Rline=220.0m_Lline=2.4n_Cline=4.6p_Vin=1_0_1_0_1_Vout.csv'
p111
s((S'13.0'
S'79.0p'
S'220.0f'
tS'3.0p'
g3
g7
I10
S'5.0'
S'10101'
tp112
S'../data/transmission_line_10_dropoffs/MultidropBode\\ac_Cdrp=3.0p_Rterm=sqrt(Lline_Cline)_Lenline=5.0_Rline=13.0_Lline=79.0p_Cline=220.0f_Vin=1_0_1_0_1_Vout.csv'
p113
s((S'420.0m'
S'2.4n'
S'4.6p'
tS'3.0p'
g3
g4
I10
S'5.0'
S'10101'
tp114
S'../data/transmission_line_10_dropoffs/MultidropTransient\\tran_Cdrp=3.0p_Rterm=sqrt(Lline_Cline)_Lenline=5.0_Rline=420.0m_Lline=2.4n_Cline=4.6p_Vin=1_0_1_0_1_Vout.csv'
p115
s((S'14.0'
S'2.4n'
S'4.6p'
tS'3.0p'
g3
g7
I10
S'5.0'
S'10101'
tp116
S'../data/transmission_line_10_dropoffs/MultidropBode\\ac_Cdrp=3.0p_Rterm=sqrt(Lline_Cline)_Lenline=5.0_Rline=14.0_Lline=2.4n_Cline=4.6p_Vin=1_0_1_0_1_Vout.csv'
p117
s((S'12.0'
S'2.4n'
S'4.6p'
tS'3.0p'
g3
g4
I10
S'5.0'
S'10101'
tp118
S'../data/transmission_line_10_dropoffs/MultidropTransient\\tran_Cdrp=3.0p_Rterm=sqrt(Lline_Cline)_Lenline=5.0_Rline=12.0_Lline=2.4n_Cline=4.6p_Vin=1_0_1_0_1_Vout.csv'
p119
s((S'17.0'
S'2.4n'
S'4.6p'
tS'3.0p'
g3
g7
I10
S'5.0'
S'10101'
tp120
S'../data/transmission_line_10_dropoffs/MultidropBode\\ac_Cdrp=3.0p_Rterm=sqrt(Lline_Cline)_Lenline=5.0_Rline=17.0_Lline=2.4n_Cline=4.6p_Vin=1_0_1_0_1_Vout.csv'
p121
s((S'1.6'
S'79.0p'
S'220.0f'
tS'3.0p'
g3
g4
I10
S'5.0'
S'10101'
tp122
S'../data/transmission_line_10_dropoffs/MultidropTransient\\tran_Cdrp=3.0p_Rterm=sqrt(Lline_Cline)_Lenline=5.0_Rline=1.6_Lline=79.0p_Cline=220.0f_Vin=1_0_1_0_1_Vout.csv'
p123
s((S'4.0'
S'79.0p'
S'220.0f'
tS'3.0p'
g3
g7
I10
S'5.0'
S'10101'
tp124
S'../data/transmission_line_10_dropoffs/MultidropBode\\ac_Cdrp=3.0p_Rterm=sqrt(Lline_Cline)_Lenline=5.0_Rline=4.0_Lline=79.0p_Cline=220.0f_Vin=1_0_1_0_1_Vout.csv'
p125
s((S'1.8'
S'2.4n'
S'4.6p'
tS'3.0p'
g3
g4
I10
S'5.0'
S'10101'
tp126
S'../data/transmission_line_10_dropoffs/MultidropTransient\\tran_Cdrp=3.0p_Rterm=sqrt(Lline_Cline)_Lenline=5.0_Rline=1.8_Lline=2.4n_Cline=4.6p_Vin=1_0_1_0_1_Vout.csv'
p127
s((S'20.0m'
S'2.4n'
S'4.6p'
tS'3.0p'
g3
g4
I10
S'5.0'
S'10101'
tp128
S'../data/transmission_line_10_dropoffs/MultidropTransient\\tran_Cdrp=3.0p_Rterm=sqrt(Lline_Cline)_Lenline=5.0_Rline=20.0m_Lline=2.4n_Cline=4.6p_Vin=1_0_1_0_1_Vout.csv'
p129
s((S'1.4'
S'2.4n'
S'4.6p'
tS'3.0p'
g3
g7
I10
S'5.0'
S'10101'
tp130
S'../data/transmission_line_10_dropoffs/MultidropBode\\ac_Cdrp=3.0p_Rterm=sqrt(Lline_Cline)_Lenline=5.0_Rline=1.4_Lline=2.4n_Cline=4.6p_Vin=1_0_1_0_1_Vout.csv'
p131
s((S'1.2'
S'2.4n'
S'4.6p'
tS'3.0p'
g3
g4
I10
S'5.0'
S'10101'
tp132
S'../data/transmission_line_10_dropoffs/MultidropTransient\\tran_Cdrp=3.0p_Rterm=sqrt(Lline_Cline)_Lenline=5.0_Rline=1.2_Lline=2.4n_Cline=4.6p_Vin=1_0_1_0_1_Vout.csv'
p133
s((S'8.0'
S'79.0p'
S'220.0f'
tS'1.0p'
g3
g7
I10
S'1.0'
S'10000'
tp134
S'../data/transmission_line_10_dropoffs/MultidropBode\\ac_Cdrp=1.0p_Rterm=sqrt(Lline_Cline)_Lenline=1.0_Rline=8.0_Lline=79.0p_Cline=220.0f_Vin=1_0_0_0_0_Vout.csv'
p135
s((S'1.8'
S'79.0p'
S'220.0f'
tS'3.0p'
g3
g7
I10
S'5.0'
S'10101'
tp136
S'../data/transmission_line_10_dropoffs/MultidropBode\\ac_Cdrp=3.0p_Rterm=sqrt(Lline_Cline)_Lenline=5.0_Rline=1.8_Lline=79.0p_Cline=220.0f_Vin=1_0_1_0_1_Vout.csv'
p137
s((S'11.0'
S'2.4n'
S'4.6p'
tS'3.0p'
g3
g4
I10
S'5.0'
S'10101'
tp138
S'../data/transmission_line_10_dropoffs/MultidropTransient\\tran_Cdrp=3.0p_Rterm=sqrt(Lline_Cline)_Lenline=5.0_Rline=11.0_Lline=2.4n_Cline=4.6p_Vin=1_0_1_0_1_Vout.csv'
p139
s((S'420.0m'
S'79.0p'
S'220.0f'
tS'3.0p'
g3
g7
I10
S'5.0'
S'10101'
tp140
S'../data/transmission_line_10_dropoffs/MultidropBode\\ac_Cdrp=3.0p_Rterm=sqrt(Lline_Cline)_Lenline=5.0_Rline=420.0m_Lline=79.0p_Cline=220.0f_Vin=1_0_1_0_1_Vout.csv'
p141
s((S'1.4'
S'2.4n'
S'4.6p'
tS'3.0p'
g3
g4
I10
S'5.0'
S'10101'
tp142
S'../data/transmission_line_10_dropoffs/MultidropTransient\\tran_Cdrp=3.0p_Rterm=sqrt(Lline_Cline)_Lenline=5.0_Rline=1.4_Lline=2.4n_Cline=4.6p_Vin=1_0_1_0_1_Vout.csv'
p143
s((S'1.6'
S'2.4n'
S'4.6p'
tS'3.0p'
g3
g4
I10
S'5.0'
S'10101'
tp144
S'../data/transmission_line_10_dropoffs/MultidropTransient\\tran_Cdrp=3.0p_Rterm=sqrt(Lline_Cline)_Lenline=5.0_Rline=1.6_Lline=2.4n_Cline=4.6p_Vin=1_0_1_0_1_Vout.csv'
p145
s((S'4.0'
S'2.4n'
S'4.6p'
tS'3.0p'
g3
g7
I10
S'5.0'
S'10101'
tp146
S'../data/transmission_line_10_dropoffs/MultidropBode\\ac_Cdrp=3.0p_Rterm=sqrt(Lline_Cline)_Lenline=5.0_Rline=4.0_Lline=2.4n_Cline=4.6p_Vin=1_0_1_0_1_Vout.csv'
p147
s((S'17.0'
S'79.0p'
S'220.0f'
tS'1.0p'
g3
g4
I10
S'1.0'
S'10000'
tp148
S'../data/transmission_line_10_dropoffs/MultidropTransient\\tran_Cdrp=1.0p_Rterm=sqrt(Lline_Cline)_Lenline=1.0_Rline=17.0_Lline=79.0p_Cline=220.0f_Vin=1_0_0_0_0_Vout.csv'
p149
s((S'20.0m'
S'79.0p'
S'220.0f'
tS'3.0p'
g3
g7
I10
S'5.0'
S'10101'
tp150
S'../data/transmission_line_10_dropoffs/MultidropBode\\ac_Cdrp=3.0p_Rterm=sqrt(Lline_Cline)_Lenline=5.0_Rline=20.0m_Lline=79.0p_Cline=220.0f_Vin=1_0_1_0_1_Vout.csv'
p151
s((S'5.0'
S'2.4n'
S'4.6p'
tS'3.0p'
g3
g4
I10
S'5.0'
S'10101'
tp152
S'../data/transmission_line_10_dropoffs/MultidropTransient\\tran_Cdrp=3.0p_Rterm=sqrt(Lline_Cline)_Lenline=5.0_Rline=5.0_Lline=2.4n_Cline=4.6p_Vin=1_0_1_0_1_Vout.csv'
p153
s((S'9.0'
S'2.4n'
S'4.6p'
tS'3.0p'
g3
g7
I10
S'5.0'
S'10101'
tp154
S'../data/transmission_line_10_dropoffs/MultidropBode\\ac_Cdrp=3.0p_Rterm=sqrt(Lline_Cline)_Lenline=5.0_Rline=9.0_Lline=2.4n_Cline=4.6p_Vin=1_0_1_0_1_Vout.csv'
p155
s((S'12.0'
S'79.0p'
S'220.0f'
tS'1.0p'
g3
g4
I10
S'1.0'
S'10000'
tp156
S'../data/transmission_line_10_dropoffs/MultidropTransient\\tran_Cdrp=1.0p_Rterm=sqrt(Lline_Cline)_Lenline=1.0_Rline=12.0_Lline=79.0p_Cline=220.0f_Vin=1_0_0_0_0_Vout.csv'
p157
s((S'1.2'
S'79.0p'
S'220.0f'
tS'3.0p'
g3
g4
I10
S'5.0'
S'10101'
tp158
S'../data/transmission_line_10_dropoffs/MultidropTransient\\tran_Cdrp=3.0p_Rterm=sqrt(Lline_Cline)_Lenline=5.0_Rline=1.2_Lline=79.0p_Cline=220.0f_Vin=1_0_1_0_1_Vout.csv'
p159
s((S'16.0'
S'79.0p'
S'220.0f'
tS'1.0p'
g3
g4
I10
S'1.0'
S'10000'
tp160
S'../data/transmission_line_10_dropoffs/MultidropTransient\\tran_Cdrp=1.0p_Rterm=sqrt(Lline_Cline)_Lenline=1.0_Rline=16.0_Lline=79.0p_Cline=220.0f_Vin=1_0_0_0_0_Vout.csv'
p161
s((S'14.0'
S'79.0p'
S'220.0f'
tS'1.0p'
g3
g4
I10
S'1.0'
S'10000'
tp162
S'../data/transmission_line_10_dropoffs/MultidropTransient\\tran_Cdrp=1.0p_Rterm=sqrt(Lline_Cline)_Lenline=1.0_Rline=14.0_Lline=79.0p_Cline=220.0f_Vin=1_0_0_0_0_Vout.csv'
p163
s((S'1.2'
S'2.4n'
S'4.6p'
tS'3.0p'
g3
g7
I10
S'5.0'
S'10101'
tp164
S'../data/transmission_line_10_dropoffs/MultidropBode\\ac_Cdrp=3.0p_Rterm=sqrt(Lline_Cline)_Lenline=5.0_Rline=1.2_Lline=2.4n_Cline=4.6p_Vin=1_0_1_0_1_Vout.csv'
p165
s((S'6.0'
S'2.4n'
S'4.6p'
tS'3.0p'
g3
g4
I10
S'5.0'
S'10101'
tp166
S'../data/transmission_line_10_dropoffs/MultidropTransient\\tran_Cdrp=3.0p_Rterm=sqrt(Lline_Cline)_Lenline=5.0_Rline=6.0_Lline=2.4n_Cline=4.6p_Vin=1_0_1_0_1_Vout.csv'
p167
s((S'4.0'
S'2.4n'
S'4.6p'
tS'3.0p'
g3
g4
I10
S'5.0'
S'10101'
tp168
S'../data/transmission_line_10_dropoffs/MultidropTransient\\tran_Cdrp=3.0p_Rterm=sqrt(Lline_Cline)_Lenline=5.0_Rline=4.0_Lline=2.4n_Cline=4.6p_Vin=1_0_1_0_1_Vout.csv'
p169
s((S'9.0'
S'79.0p'
S'220.0f'
tS'3.0p'
g3
g4
I10
S'5.0'
S'10101'
tp170
S'../data/transmission_line_10_dropoffs/MultidropTransient\\tran_Cdrp=3.0p_Rterm=sqrt(Lline_Cline)_Lenline=5.0_Rline=9.0_Lline=79.0p_Cline=220.0f_Vin=1_0_1_0_1_Vout.csv'
p171
s((S'18.0'
S'79.0p'
S'220.0f'
tS'1.0p'
g3
g4
I10
S'1.0'
S'10000'
tp172
S'../data/transmission_line_10_dropoffs/MultidropTransient\\tran_Cdrp=1.0p_Rterm=sqrt(Lline_Cline)_Lenline=1.0_Rline=18.0_Lline=79.0p_Cline=220.0f_Vin=1_0_0_0_0_Vout.csv'
p173
s((S'15.0'
S'79.0p'
S'220.0f'
tS'1.0p'
g3
g7
I10
S'1.0'
S'10000'
tp174
S'../data/transmission_line_10_dropoffs/MultidropBode\\ac_Cdrp=1.0p_Rterm=sqrt(Lline_Cline)_Lenline=1.0_Rline=15.0_Lline=79.0p_Cline=220.0f_Vin=1_0_0_0_0_Vout.csv'
p175
s((S'19.0'
S'2.4n'
S'4.6p'
tS'3.0p'
g3
g7
I10
S'5.0'
S'10101'
tp176
S'../data/transmission_line_10_dropoffs/MultidropBode\\ac_Cdrp=3.0p_Rterm=sqrt(Lline_Cline)_Lenline=5.0_Rline=19.0_Lline=2.4n_Cline=4.6p_Vin=1_0_1_0_1_Vout.csv'
p177
s((S'10.0'
S'2.4n'
S'4.6p'
tS'3.0p'
g3
g4
I10
S'5.0'
S'10101'
tp178
S'../data/transmission_line_10_dropoffs/MultidropTransient\\tran_Cdrp=3.0p_Rterm=sqrt(Lline_Cline)_Lenline=5.0_Rline=10.0_Lline=2.4n_Cline=4.6p_Vin=1_0_1_0_1_Vout.csv'
p179
s((S'10.0'
S'79.0p'
S'220.0f'
tS'1.0p'
g3
g4
I10
S'1.0'
S'10000'
tp180
S'../data/transmission_line_10_dropoffs/MultidropTransient\\tran_Cdrp=1.0p_Rterm=sqrt(Lline_Cline)_Lenline=1.0_Rline=10.0_Lline=79.0p_Cline=220.0f_Vin=1_0_0_0_0_Vout.csv'
p181
s((S'10.0'
S'79.0p'
S'220.0f'
tS'3.0p'
g3
g7
I10
S'5.0'
S'10101'
tp182
S'../data/transmission_line_10_dropoffs/MultidropBode\\ac_Cdrp=3.0p_Rterm=sqrt(Lline_Cline)_Lenline=5.0_Rline=10.0_Lline=79.0p_Cline=220.0f_Vin=1_0_1_0_1_Vout.csv'
p183
s((S'19.0'
S'79.0p'
S'220.0f'
tS'3.0p'
g3
g7
I10
S'5.0'
S'10101'
tp184
S'../data/transmission_line_10_dropoffs/MultidropBode\\ac_Cdrp=3.0p_Rterm=sqrt(Lline_Cline)_Lenline=5.0_Rline=19.0_Lline=79.0p_Cline=220.0f_Vin=1_0_1_0_1_Vout.csv'
p185
s((S'3.0'
S'2.4n'
S'4.6p'
tS'3.0p'
g3
g7
I10
S'5.0'
S'10101'
tp186
S'../data/transmission_line_10_dropoffs/MultidropBode\\ac_Cdrp=3.0p_Rterm=sqrt(Lline_Cline)_Lenline=5.0_Rline=3.0_Lline=2.4n_Cline=4.6p_Vin=1_0_1_0_1_Vout.csv'
p187
s((S'1.6'
S'79.0p'
S'220.0f'
tS'3.0p'
g3
g7
I10
S'5.0'
S'10101'
tp188
S'../data/transmission_line_10_dropoffs/MultidropBode\\ac_Cdrp=3.0p_Rterm=sqrt(Lline_Cline)_Lenline=5.0_Rline=1.6_Lline=79.0p_Cline=220.0f_Vin=1_0_1_0_1_Vout.csv'
p189
s((S'3.0'
S'2.4n'
S'4.6p'
tS'3.0p'
g3
g4
I10
S'5.0'
S'10101'
tp190
S'../data/transmission_line_10_dropoffs/MultidropTransient\\tran_Cdrp=3.0p_Rterm=sqrt(Lline_Cline)_Lenline=5.0_Rline=3.0_Lline=2.4n_Cline=4.6p_Vin=1_0_1_0_1_Vout.csv'
p191
s((S'16.0'
S'79.0p'
S'220.0f'
tS'3.0p'
g3
g7
I10
S'5.0'
S'10101'
tp192
S'../data/transmission_line_10_dropoffs/MultidropBode\\ac_Cdrp=3.0p_Rterm=sqrt(Lline_Cline)_Lenline=5.0_Rline=16.0_Lline=79.0p_Cline=220.0f_Vin=1_0_1_0_1_Vout.csv'
p193
s((S'820.0m'
S'2.4n'
S'4.6p'
tS'3.0p'
g3
g7
I10
S'5.0'
S'10101'
tp194
S'../data/transmission_line_10_dropoffs/MultidropBode\\ac_Cdrp=3.0p_Rterm=sqrt(Lline_Cline)_Lenline=5.0_Rline=820.0m_Lline=2.4n_Cline=4.6p_Vin=1_0_1_0_1_Vout.csv'
p195
s((S'620.0m'
S'2.4n'
S'4.6p'
tS'3.0p'
g3
g4
I10
S'5.0'
S'10101'
tp196
S'../data/transmission_line_10_dropoffs/MultidropTransient\\tran_Cdrp=3.0p_Rterm=sqrt(Lline_Cline)_Lenline=5.0_Rline=620.0m_Lline=2.4n_Cline=4.6p_Vin=1_0_1_0_1_Vout.csv'
p197
s((S'1.0'
S'2.4n'
S'4.6p'
tS'3.0p'
g3
g4
I10
S'5.0'
S'10101'
tp198
S'../data/transmission_line_10_dropoffs/MultidropTransient\\tran_Cdrp=3.0p_Rterm=sqrt(Lline_Cline)_Lenline=5.0_Rline=1.0_Lline=2.4n_Cline=4.6p_Vin=1_0_1_0_1_Vout.csv'
p199
s((S'6.0'
S'79.0p'
S'220.0f'
tS'3.0p'
g3
g7
I10
S'5.0'
S'10101'
tp200
S'../data/transmission_line_10_dropoffs/MultidropBode\\ac_Cdrp=3.0p_Rterm=sqrt(Lline_Cline)_Lenline=5.0_Rline=6.0_Lline=79.0p_Cline=220.0f_Vin=1_0_1_0_1_Vout.csv'
p201
s((S'16.0'
S'79.0p'
S'220.0f'
tS'3.0p'
g3
g4
I10
S'5.0'
S'10101'
tp202
S'../data/transmission_line_10_dropoffs/MultidropTransient\\tran_Cdrp=3.0p_Rterm=sqrt(Lline_Cline)_Lenline=5.0_Rline=16.0_Lline=79.0p_Cline=220.0f_Vin=1_0_1_0_1_Vout.csv'
p203
s((S'220.0m'
S'79.0p'
S'220.0f'
tS'3.0p'
g3
g4
I10
S'5.0'
S'10101'
tp204
S'../data/transmission_line_10_dropoffs/MultidropTransient\\tran_Cdrp=3.0p_Rterm=sqrt(Lline_Cline)_Lenline=5.0_Rline=220.0m_Lline=79.0p_Cline=220.0f_Vin=1_0_1_0_1_Vout.csv'
p205
s((S'620.0m'
S'2.4n'
S'4.6p'
tS'3.0p'
g3
g7
I10
S'5.0'
S'10101'
tp206
S'../data/transmission_line_10_dropoffs/MultidropBode\\ac_Cdrp=3.0p_Rterm=sqrt(Lline_Cline)_Lenline=5.0_Rline=620.0m_Lline=2.4n_Cline=4.6p_Vin=1_0_1_0_1_Vout.csv'
p207
s((S'12.0'
S'79.0p'
S'220.0f'
tS'3.0p'
g3
g4
I10
S'5.0'
S'10101'
tp208
S'../data/transmission_line_10_dropoffs/MultidropTransient\\tran_Cdrp=3.0p_Rterm=sqrt(Lline_Cline)_Lenline=5.0_Rline=12.0_Lline=79.0p_Cline=220.0f_Vin=1_0_1_0_1_Vout.csv'
p209
s((S'13.0'
S'79.0p'
S'220.0f'
tS'3.0p'
g3
g4
I10
S'5.0'
S'10101'
tp210
S'../data/transmission_line_10_dropoffs/MultidropTransient\\tran_Cdrp=3.0p_Rterm=sqrt(Lline_Cline)_Lenline=5.0_Rline=13.0_Lline=79.0p_Cline=220.0f_Vin=1_0_1_0_1_Vout.csv'
p211
s((S'19.0'
S'79.0p'
S'220.0f'
tS'1.0p'
g3
g4
I10
S'1.0'
S'10000'
tp212
S'../data/transmission_line_10_dropoffs/MultidropTransient\\tran_Cdrp=1.0p_Rterm=sqrt(Lline_Cline)_Lenline=1.0_Rline=19.0_Lline=79.0p_Cline=220.0f_Vin=1_0_0_0_0_Vout.csv'
p213
s((S'20.0m'
S'79.0p'
S'220.0f'
tS'3.0p'
g3
g4
I10
S'5.0'
S'10101'
tp214
S'../data/transmission_line_10_dropoffs/MultidropTransient\\tran_Cdrp=3.0p_Rterm=sqrt(Lline_Cline)_Lenline=5.0_Rline=20.0m_Lline=79.0p_Cline=220.0f_Vin=1_0_1_0_1_Vout.csv'
p215
s((S'620.0m'
S'79.0p'
S'220.0f'
tS'3.0p'
g3
g7
I10
S'5.0'
S'10101'
tp216
S'../data/transmission_line_10_dropoffs/MultidropBode\\ac_Cdrp=3.0p_Rterm=sqrt(Lline_Cline)_Lenline=5.0_Rline=620.0m_Lline=79.0p_Cline=220.0f_Vin=1_0_1_0_1_Vout.csv'
p217
s((S'6.0'
S'79.0p'
S'220.0f'
tS'1.0p'
g3
g7
I10
S'1.0'
S'10000'
tp218
S'../data/transmission_line_10_dropoffs/MultidropBode\\ac_Cdrp=1.0p_Rterm=sqrt(Lline_Cline)_Lenline=1.0_Rline=6.0_Lline=79.0p_Cline=220.0f_Vin=1_0_0_0_0_Vout.csv'
p219
s((S'8.0'
S'2.4n'
S'4.6p'
tS'3.0p'
g3
g4
I10
S'5.0'
S'10101'
tp220
S'../data/transmission_line_10_dropoffs/MultidropTransient\\tran_Cdrp=3.0p_Rterm=sqrt(Lline_Cline)_Lenline=5.0_Rline=8.0_Lline=2.4n_Cline=4.6p_Vin=1_0_1_0_1_Vout.csv'
p221
s((S'9.0'
S'2.4n'
S'4.6p'
tS'3.0p'
g3
g4
I10
S'5.0'
S'10101'
tp222
S'../data/transmission_line_10_dropoffs/MultidropTransient\\tran_Cdrp=3.0p_Rterm=sqrt(Lline_Cline)_Lenline=5.0_Rline=9.0_Lline=2.4n_Cline=4.6p_Vin=1_0_1_0_1_Vout.csv'
p223
s((S'1.4'
S'79.0p'
S'220.0f'
tS'3.0p'
g3
g7
I10
S'5.0'
S'10101'
tp224
S'../data/transmission_line_10_dropoffs/MultidropBode\\ac_Cdrp=3.0p_Rterm=sqrt(Lline_Cline)_Lenline=5.0_Rline=1.4_Lline=79.0p_Cline=220.0f_Vin=1_0_1_0_1_Vout.csv'
p225
s((S'7.0'
S'79.0p'
S'220.0f'
tS'1.0p'
g3
g7
I10
S'1.0'
S'10000'
tp226
S'../data/transmission_line_10_dropoffs/MultidropBode\\ac_Cdrp=1.0p_Rterm=sqrt(Lline_Cline)_Lenline=1.0_Rline=7.0_Lline=79.0p_Cline=220.0f_Vin=1_0_0_0_0_Vout.csv'
p227
s((S'13.0'
S'2.4n'
S'4.6p'
tS'3.0p'
g3
g4
I10
S'5.0'
S'10101'
tp228
S'../data/transmission_line_10_dropoffs/MultidropTransient\\tran_Cdrp=3.0p_Rterm=sqrt(Lline_Cline)_Lenline=5.0_Rline=13.0_Lline=2.4n_Cline=4.6p_Vin=1_0_1_0_1_Vout.csv'
p229
s((S'1.8'
S'79.0p'
S'220.0f'
tS'3.0p'
g3
g4
I10
S'5.0'
S'10101'
tp230
S'../data/transmission_line_10_dropoffs/MultidropTransient\\tran_Cdrp=3.0p_Rterm=sqrt(Lline_Cline)_Lenline=5.0_Rline=1.8_Lline=79.0p_Cline=220.0f_Vin=1_0_1_0_1_Vout.csv'
p231
s((S'17.0'
S'2.4n'
S'4.6p'
tS'3.0p'
g3
g4
I10
S'5.0'
S'10101'
tp232
S'../data/transmission_line_10_dropoffs/MultidropTransient\\tran_Cdrp=3.0p_Rterm=sqrt(Lline_Cline)_Lenline=5.0_Rline=17.0_Lline=2.4n_Cline=4.6p_Vin=1_0_1_0_1_Vout.csv'
p233
s((S'8.0'
S'79.0p'
S'220.0f'
tS'3.0p'
g3
g4
I10
S'5.0'
S'10101'
tp234
S'../data/transmission_line_10_dropoffs/MultidropTransient\\tran_Cdrp=3.0p_Rterm=sqrt(Lline_Cline)_Lenline=5.0_Rline=8.0_Lline=79.0p_Cline=220.0f_Vin=1_0_1_0_1_Vout.csv'
p235
s((S'14.0'
S'79.0p'
S'220.0f'
tS'3.0p'
g3
g7
I10
S'5.0'
S'10101'
tp236
S'../data/transmission_line_10_dropoffs/MultidropBode\\ac_Cdrp=3.0p_Rterm=sqrt(Lline_Cline)_Lenline=5.0_Rline=14.0_Lline=79.0p_Cline=220.0f_Vin=1_0_1_0_1_Vout.csv'
p237
s((S'11.0'
S'79.0p'
S'220.0f'
tS'1.0p'
g3
g4
I10
S'1.0'
S'10000'
tp238
S'../data/transmission_line_10_dropoffs/MultidropTransient\\tran_Cdrp=1.0p_Rterm=sqrt(Lline_Cline)_Lenline=1.0_Rline=11.0_Lline=79.0p_Cline=220.0f_Vin=1_0_0_0_0_Vout.csv'
p239
s((S'820.0m'
S'79.0p'
S'220.0f'
tS'3.0p'
g3
g4
I10
S'5.0'
S'10101'
tp240
S'../data/transmission_line_10_dropoffs/MultidropTransient\\tran_Cdrp=3.0p_Rterm=sqrt(Lline_Cline)_Lenline=5.0_Rline=820.0m_Lline=79.0p_Cline=220.0f_Vin=1_0_1_0_1_Vout.csv'
p241
s((S'17.0'
S'79.0p'
S'220.0f'
tS'3.0p'
g3
g4
I10
S'5.0'
S'10101'
tp242
S'../data/transmission_line_10_dropoffs/MultidropTransient\\tran_Cdrp=3.0p_Rterm=sqrt(Lline_Cline)_Lenline=5.0_Rline=17.0_Lline=79.0p_Cline=220.0f_Vin=1_0_1_0_1_Vout.csv'
p243
s((S'1.0'
S'2.4n'
S'4.6p'
tS'3.0p'
g3
g7
I10
S'5.0'
S'10101'
tp244
S'../data/transmission_line_10_dropoffs/MultidropBode\\ac_Cdrp=3.0p_Rterm=sqrt(Lline_Cline)_Lenline=5.0_Rline=1.0_Lline=2.4n_Cline=4.6p_Vin=1_0_1_0_1_Vout.csv'
p245
s((S'420.0m'
S'79.0p'
S'220.0f'
tS'3.0p'
g3
g4
I10
S'5.0'
S'10101'
tp246
S'../data/transmission_line_10_dropoffs/MultidropTransient\\tran_Cdrp=3.0p_Rterm=sqrt(Lline_Cline)_Lenline=5.0_Rline=420.0m_Lline=79.0p_Cline=220.0f_Vin=1_0_1_0_1_Vout.csv'
p247
s((S'1.2'
S'79.0p'
S'220.0f'
tS'3.0p'
g3
g7
I10
S'5.0'
S'10101'
tp248
S'../data/transmission_line_10_dropoffs/MultidropBode\\ac_Cdrp=3.0p_Rterm=sqrt(Lline_Cline)_Lenline=5.0_Rline=1.2_Lline=79.0p_Cline=220.0f_Vin=1_0_1_0_1_Vout.csv'
p249
s((S'19.0'
S'79.0p'
S'220.0f'
tS'3.0p'
g3
g4
I10
S'5.0'
S'10101'
tp250
S'../data/transmission_line_10_dropoffs/MultidropTransient\\tran_Cdrp=3.0p_Rterm=sqrt(Lline_Cline)_Lenline=5.0_Rline=19.0_Lline=79.0p_Cline=220.0f_Vin=1_0_1_0_1_Vout.csv'
p251
s((S'820.0m'
S'79.0p'
S'220.0f'
tS'3.0p'
g3
g7
I10
S'5.0'
S'10101'
tp252
S'../data/transmission_line_10_dropoffs/MultidropBode\\ac_Cdrp=3.0p_Rterm=sqrt(Lline_Cline)_Lenline=5.0_Rline=820.0m_Lline=79.0p_Cline=220.0f_Vin=1_0_1_0_1_Vout.csv'
p253
s((S'5.0'
S'2.4n'
S'4.6p'
tS'3.0p'
g3
g7
I10
S'5.0'
S'10101'
tp254
S'../data/transmission_line_10_dropoffs/MultidropBode\\ac_Cdrp=3.0p_Rterm=sqrt(Lline_Cline)_Lenline=5.0_Rline=5.0_Lline=2.4n_Cline=4.6p_Vin=1_0_1_0_1_Vout.csv'
p255
s((S'6.0'
S'2.4n'
S'4.6p'
tS'3.0p'
g3
g7
I10
S'5.0'
S'10101'
tp256
S'../data/transmission_line_10_dropoffs/MultidropBode\\ac_Cdrp=3.0p_Rterm=sqrt(Lline_Cline)_Lenline=5.0_Rline=6.0_Lline=2.4n_Cline=4.6p_Vin=1_0_1_0_1_Vout.csv'
p257
s((S'13.0'
S'79.0p'
S'220.0f'
tS'1.0p'
g3
g7
I10
S'1.0'
S'10000'
tp258
S'../data/transmission_line_10_dropoffs/MultidropBode\\ac_Cdrp=1.0p_Rterm=sqrt(Lline_Cline)_Lenline=1.0_Rline=13.0_Lline=79.0p_Cline=220.0f_Vin=1_0_0_0_0_Vout.csv'
p259
s((S'3.0'
S'79.0p'
S'220.0f'
tS'3.0p'
g3
g7
I10
S'5.0'
S'10101'
tp260
S'../data/transmission_line_10_dropoffs/MultidropBode\\ac_Cdrp=3.0p_Rterm=sqrt(Lline_Cline)_Lenline=5.0_Rline=3.0_Lline=79.0p_Cline=220.0f_Vin=1_0_1_0_1_Vout.csv'
p261
s((S'8.0'
S'79.0p'
S'220.0f'
tS'3.0p'
g3
g7
I10
S'5.0'
S'10101'
tp262
S'../data/transmission_line_10_dropoffs/MultidropBode\\ac_Cdrp=3.0p_Rterm=sqrt(Lline_Cline)_Lenline=5.0_Rline=8.0_Lline=79.0p_Cline=220.0f_Vin=1_0_1_0_1_Vout.csv'
p263
s((S'12.0'
S'79.0p'
S'220.0f'
tS'1.0p'
g3
g7
I10
S'1.0'
S'10000'
tp264
S'../data/transmission_line_10_dropoffs/MultidropBode\\ac_Cdrp=1.0p_Rterm=sqrt(Lline_Cline)_Lenline=1.0_Rline=12.0_Lline=79.0p_Cline=220.0f_Vin=1_0_0_0_0_Vout.csv'
p265
s((S'16.0'
S'2.4n'
S'4.6p'
tS'3.0p'
g3
g4
I10
S'5.0'
S'10101'
tp266
S'../data/transmission_line_10_dropoffs/MultidropTransient\\tran_Cdrp=3.0p_Rterm=sqrt(Lline_Cline)_Lenline=5.0_Rline=16.0_Lline=2.4n_Cline=4.6p_Vin=1_0_1_0_1_Vout.csv'
p267
s((S'15.0'
S'2.4n'
S'4.6p'
tS'3.0p'
g3
g4
I10
S'5.0'
S'10101'
tp268
S'../data/transmission_line_10_dropoffs/MultidropTransient\\tran_Cdrp=3.0p_Rterm=sqrt(Lline_Cline)_Lenline=5.0_Rline=15.0_Lline=2.4n_Cline=4.6p_Vin=1_0_1_0_1_Vout.csv'
p269
s((S'12.0'
S'79.0p'
S'220.0f'
tS'3.0p'
g3
g7
I10
S'5.0'
S'10101'
tp270
S'../data/transmission_line_10_dropoffs/MultidropBode\\ac_Cdrp=3.0p_Rterm=sqrt(Lline_Cline)_Lenline=5.0_Rline=12.0_Lline=79.0p_Cline=220.0f_Vin=1_0_1_0_1_Vout.csv'
p271
s((S'7.0'
S'79.0p'
S'220.0f'
tS'3.0p'
g3
g7
I10
S'5.0'
S'10101'
tp272
S'../data/transmission_line_10_dropoffs/MultidropBode\\ac_Cdrp=3.0p_Rterm=sqrt(Lline_Cline)_Lenline=5.0_Rline=7.0_Lline=79.0p_Cline=220.0f_Vin=1_0_1_0_1_Vout.csv'
p273
s((S'10.0'
S'79.0p'
S'220.0f'
tS'1.0p'
g3
g7
I10
S'1.0'
S'10000'
tp274
S'../data/transmission_line_10_dropoffs/MultidropBode\\ac_Cdrp=1.0p_Rterm=sqrt(Lline_Cline)_Lenline=1.0_Rline=10.0_Lline=79.0p_Cline=220.0f_Vin=1_0_0_0_0_Vout.csv'
p275
s((S'18.0'
S'79.0p'
S'220.0f'
tS'3.0p'
g3
g4
I10
S'5.0'
S'10101'
tp276
S'../data/transmission_line_10_dropoffs/MultidropTransient\\tran_Cdrp=3.0p_Rterm=sqrt(Lline_Cline)_Lenline=5.0_Rline=18.0_Lline=79.0p_Cline=220.0f_Vin=1_0_1_0_1_Vout.csv'
p277
s((S'4.0'
S'79.0p'
S'220.0f'
tS'1.0p'
g3
g4
I10
S'1.0'
S'10000'
tp278
S'../data/transmission_line_10_dropoffs/MultidropTransient\\tran_Cdrp=1.0p_Rterm=sqrt(Lline_Cline)_Lenline=1.0_Rline=4.0_Lline=79.0p_Cline=220.0f_Vin=1_0_0_0_0_Vout.csv'
p279
s((S'11.0'
S'79.0p'
S'220.0f'
tS'3.0p'
g3
g4
I10
S'5.0'
S'10101'
tp280
S'../data/transmission_line_10_dropoffs/MultidropTransient\\tran_Cdrp=3.0p_Rterm=sqrt(Lline_Cline)_Lenline=5.0_Rline=11.0_Lline=79.0p_Cline=220.0f_Vin=1_0_1_0_1_Vout.csv'
p281
s((S'7.0'
S'2.4n'
S'4.6p'
tS'3.0p'
g3
g4
I10
S'5.0'
S'10101'
tp282
S'../data/transmission_line_10_dropoffs/MultidropTransient\\tran_Cdrp=3.0p_Rterm=sqrt(Lline_Cline)_Lenline=5.0_Rline=7.0_Lline=2.4n_Cline=4.6p_Vin=1_0_1_0_1_Vout.csv'
p283
s((S'3.0'
S'79.0p'
S'220.0f'
tS'3.0p'
g3
g4
I10
S'5.0'
S'10101'
tp284
S'../data/transmission_line_10_dropoffs/MultidropTransient\\tran_Cdrp=3.0p_Rterm=sqrt(Lline_Cline)_Lenline=5.0_Rline=3.0_Lline=79.0p_Cline=220.0f_Vin=1_0_1_0_1_Vout.csv'
p285
s((S'15.0'
S'79.0p'
S'220.0f'
tS'1.0p'
g3
g4
I10
S'1.0'
S'10000'
tp286
S'../data/transmission_line_10_dropoffs/MultidropTransient\\tran_Cdrp=1.0p_Rterm=sqrt(Lline_Cline)_Lenline=1.0_Rline=15.0_Lline=79.0p_Cline=220.0f_Vin=1_0_0_0_0_Vout.csv'
p287
sa(lp288
cnumpy.core.multiarray
scalar
p289
(cnumpy
dtype
p290
(S'f8'
I0
I1
tRp291
(I3
S'<'
NNNI-1
I-1
I0
tbS'{\x14\xaeG\xe1z\x94?'
tRp292
ag289
(g291
S')\\\x8f\xc2\xf5(\xcc?'
tRp293
ag289
(g291
S'\xe2z\x14\xaeG\xe1\xda?'
tRp294
ag289
(g291
S'\xd8\xa3p=\n\xd7\xe3?'
tRp295
ag289
(g291
S'>\n\xd7\xa3p=\xea?'
tRp296
ag289
(g291
S'R\xb8\x1e\x85\xebQ\xf0?'
tRp297
ag289
(g291
S'\x86\xebQ\xb8\x1e\x85\xf3?'
tRp298
ag289
(g291
S'\xb9\x1e\x85\xebQ\xb8\xf6?'
tRp299
ag289
(g291
S'\xecQ\xb8\x1e\x85\xeb\xf9?'
tRp300
ag289
(g291
S'\x1f\x85\xebQ\xb8\x1e\xfd?'
tRp301
ag289
(g291
S'\x00\x00\x00\x00\x00\x00\x08@'
tRp302
ag289
(g291
S'\x00\x00\x00\x00\x00\x00\x10@'
tRp303
ag289
(g291
S'\x00\x00\x00\x00\x00\x00\x14@'
tRp304
ag289
(g291
S'\x00\x00\x00\x00\x00\x00\x18@'
tRp305
ag289
(g291
S'\x00\x00\x00\x00\x00\x00\x1c@'
tRp306
ag289
(g291
S'\x00\x00\x00\x00\x00\x00 @'
tRp307
ag289
(g291
S'\x00\x00\x00\x00\x00\x00"@'
tRp308
ag289
(g291
S'\x00\x00\x00\x00\x00\x00$@'
tRp309
ag289
(g291
S'\x00\x00\x00\x00\x00\x00&@'
tRp310
ag289
(g291
S'\x00\x00\x00\x00\x00\x00(@'
tRp311
ag289
(g291
S'\x00\x00\x00\x00\x00\x00*@'
tRp312
ag289
(g291
S'\x00\x00\x00\x00\x00\x00,@'
tRp313
ag289
(g291
S'\x00\x00\x00\x00\x00\x00.@'
tRp314
ag289
(g291
S'\x00\x00\x00\x00\x00\x000@'
tRp315
ag289
(g291
S'\x00\x00\x00\x00\x00\x001@'
tRp316
ag289
(g291
S'\x00\x00\x00\x00\x00\x002@'
tRp317
ag289
(g291
S'\x00\x00\x00\x00\x00\x003@'
tRp318
aa(lp319
g289
(g291
S'\xee\xact{!\xb7\xd5='
tRp320
ag289
(g291
S'\xc7m\xc0\t\xce\xdb\r>'
tRp321
ag289
(g291
S'\xf8"\t\xf2[\x80\x1c>'
tRp322
ag289
(g291
S'\x86\x07\x99oh\t%>'
tRp323
ag289
(g291
S'\x90}-\xe6\xa2\xd2+>'
tRp324
ag289
(g291
S'\xce\xf9`\xae\xeeM1>'
tRp325
ag289
(g291
S'\xd34\xab\xe9\x8b\xb24>'
tRp326
ag289
(g291
S'\xd8o\xf5$)\x178>'
tRp327
ag289
(g291
S'\xdd\xaa?`\xc6{;>'
tRp328
ag289
(g291
S'\xe2\xe5\x89\x9bc\xe0>>'
tRp329
aa(lp330
g289
(g291
S'\xf5\x9b\x1d\xd9U\xf6N='
tRp331
ag289
(g291
S'9[D\x05[I\x85='
tRp332
ag289
(g291
S'Zn{V\xa8Q\x94='
tRp333
ag289
(g291
S'\x17\xafT*\xa3\xfe\x9d='
tRp334
ag289
(g291
S'\xea\xf7\x16\xff\xce\xd5\xa3='
tRp335
ag289
(g291
S'H\x98\x03iL\xac\xa8='
tRp336
ag289
(g291
S'\xa78\xf0\xd2\xc9\x82\xad='
tRp337
ag289
(g291
S'\x83ln\x9e\xa3,\xb1='
tRp338
ag289
(g291
S'\xb2\xbcdS\xe2\x97\xb3='
tRp339
ag289
(g291
S'\xe1\x0c[\x08!\x03\xb6='
tRp340
aa.