(lp1
(dp2
((cnumpy.core.multiarray
scalar
p3
(cnumpy
dtype
p4
(S'f8'
I0
I1
tRp5
(I3
S'<'
NNNI-1
I-1
I0
tbS'{\x14\xaeG\xe1z\x94?'
tRp6
g3
(g5
S'\xee\xact{!\xb7\xd5='
tRp7
g3
(g5
S'\xf5\x9b\x1d\xd9U\xf6N='
tRp8
tF1
S'Vout'
p9
S'ac'
p10
I10
F5
tp11
S'transmission_line_10_dropoffs/MultidropBode/ac_Rline=20.m_Lline=79.p_Cline=220f_Cdrp=1.0p_Lenline=5.0_Vout.csv'
p12
s((g3
(g5
S'\x00\x00\x00\x00\x00\x00\x14@'
tRp13
g7
g8
tF0
S'Vout'
p14
S'ac'
p15
I10
F5
tp16
S'transmission_line_10_dropoffs/MultidropBode/ac_Rline=5.0_Lline=79.p_Cline=220f_Cdrp=0.0p_Lenline=5.0_Vout.csv'
p17
s((g6
g7
g8
tF1
S'Vmiddle'
S'trans'
I10
F1
tp18
S'transmission_line_10_dropoffs/MultidropTransient/tran_Rline=20.m_Lline=79.p_Cline=220f_Cdrp=1.0p_Lenline=1.0_Vmiddle.csv'
p19
s((g3
(g5
S'\x00\x00\x00\x00\x00\x00\x10@'
tRp20
g7
g8
tF0
S'Vout'
p21
S'ac'
p22
I10
F1
tp23
S'transmission_line_10_dropoffs/MultidropBode/ac_Rline=4.0_Lline=79.p_Cline=220f_Cdrp=0.0p_Lenline=1.0_Vout.csv'
p24
s((g3
(g5
S'\x00\x00\x00\x00\x00\x00\x18@'
tRp25
g7
g8
tF0
g14
g15
I10
F5
tp26
S'transmission_line_10_dropoffs/MultidropBode/ac_Rline=6.0_Lline=79.p_Cline=220f_Cdrp=0.0p_Lenline=5.0_Vout.csv'
p27
s((g6
g7
g8
tF2
S'Vout'
p28
S'ac'
p29
I10
F4
tp30
S'transmission_line_10_dropoffs/MultidropBode/ac_Rline=20.m_Lline=79.p_Cline=220f_Cdrp=2.0p_Lenline=4.0_Vout.csv'
p31
s((g3
(g5
S'\x00\x00\x00\x00\x00\x00\x08@'
tRp32
g7
g8
tF0
g21
g22
I10
F1
tp33
S'transmission_line_10_dropoffs/MultidropBode/ac_Rline=3.0_Lline=79.p_Cline=220f_Cdrp=0.0p_Lenline=1.0_Vout.csv'
p34
s((g3
(g5
S'\x00\x00\x00\x00\x00\x00,@'
tRp35
g7
g8
tF0
g14
S'trans'
p36
I10
F5
tp37
S'transmission_line_10_dropoffs/MultidropTransient/tran_Rline=14._Lline=79.p_Cline=220f_Cdrp=0.0p_Lenline=5.0_Vout.csv'
p38
s((g3
(g5
S'\x00\x00\x00\x00\x00\x00*@'
tRp39
g7
g8
tF0
g14
g15
I10
F5
tp40
S'transmission_line_10_dropoffs/MultidropBode/ac_Rline=13._Lline=79.p_Cline=220f_Cdrp=0.0p_Lenline=5.0_Vout.csv'
p41
s((g3
(g5
S'>\n\xd7\xa3p=\xea?'
tRp42
g7
g8
tF0
g14
g36
I10
F5
tp43
S'transmission_line_10_dropoffs/MultidropTransient/tran_Rline=820m_Lline=79.p_Cline=220f_Cdrp=0.0p_Lenline=5.0_Vout.csv'
p44
s((g3
(g5
S'\x1f\x85\xebQ\xb8\x1e\xfd?'
tRp45
g7
g8
tF0
g14
g15
I10
F5
tp46
S'transmission_line_10_dropoffs/MultidropBode/ac_Rline=1.8_Lline=79.p_Cline=220f_Cdrp=0.0p_Lenline=5.0_Vout.csv'
p47
s((g3
(g5
S'\x86\xebQ\xb8\x1e\x85\xf3?'
tRp48
g7
g8
tF0
g14
g36
I10
F5
tp49
S'transmission_line_10_dropoffs/MultidropTransient/tran_Rline=1.2_Lline=79.p_Cline=220f_Cdrp=0.0p_Lenline=5.0_Vout.csv'
p50
s((g48
g7
g8
tF0
g21
g22
I10
F1
tp51
S'transmission_line_10_dropoffs/MultidropBode/ac_Rline=1.2_Lline=79.p_Cline=220f_Cdrp=0.0p_Lenline=1.0_Vout.csv'
p52
s((g3
(g5
S')\\\x8f\xc2\xf5(\xcc?'
tRp53
g7
g8
tF1
S'Vout'
p54
S'ac'
p55
I10
F5
tp56
S'transmission_line_10_dropoffs/MultidropBode/ac_Rline=220m_Lline=79.p_Cline=220f_Cdrp=1.0p_Lenline=5.0_Vout.csv'
p57
s((g32
g3
(g5
S'\x86\x07\x99oh\t%>'
tRp58
g3
(g5
S'Zn{V\xa8Q\x94='
tRp59
tF2
g28
S'trans'
p60
I10
F4
tp61
S'transmission_line_10_dropoffs/MultidropTransient/tran_Rline=3.0_Lline=2.4n_Cline=4.6p_Cdrp=2.0p_Lenline=4.0_Vout.csv'
p62
s((g3
(g5
S'\x00\x00\x00\x00\x00\x000@'
tRp63
g7
g8
tF1
g54
S'trans'
p64
I10
F5
tp65
S'transmission_line_10_dropoffs/MultidropTransient/tran_Rline=16._Lline=79.p_Cline=220f_Cdrp=1.0p_Lenline=5.0_Vout.csv'
p66
s((g6
g7
g8
tF0
S'Vout'
p67
S'ac'
I10
F5
tp68
S'transmission_line_10_dropoffs/MultidropBode/ac_Rline=20.m_Lline=79.p_Cline=220f_Cdrp=0.0p_Lenline=5.0_Vout.csv'
p69
s((g3
(g5
S'\xe2z\x14\xaeG\xe1\xda?'
tRp70
g7
g8
tF0
g14
g15
I10
F5
tp71
S'transmission_line_10_dropoffs/MultidropBode/ac_Rline=420m_Lline=79.p_Cline=220f_Cdrp=0.0p_Lenline=5.0_Vout.csv'
p72
s((g20
g58
g59
tF2
g28
g60
I10
F4
tp73
S'transmission_line_10_dropoffs/MultidropTransient/tran_Rline=4.0_Lline=2.4n_Cline=4.6p_Cdrp=2.0p_Lenline=4.0_Vout.csv'
p74
s((g3
(g5
S'\xecQ\xb8\x1e\x85\xeb\xf9?'
tRp75
g7
g8
tF0
g21
g22
I10
F1
tp76
S'transmission_line_10_dropoffs/MultidropBode/ac_Rline=1.6_Lline=79.p_Cline=220f_Cdrp=0.0p_Lenline=1.0_Vout.csv'
p77
s((g39
g7
g8
tF1
g54
g64
I10
F5
tp78
S'transmission_line_10_dropoffs/MultidropTransient/tran_Rline=13._Lline=79.p_Cline=220f_Cdrp=1.0p_Lenline=5.0_Vout.csv'
p79
s((g3
(g5
S'\x00\x00\x00\x00\x00\x00 @'
tRp80
g7
g8
tF1
g54
g64
I10
F5
tp81
S'transmission_line_10_dropoffs/MultidropTransient/tran_Rline=8.0_Lline=79.p_Cline=220f_Cdrp=1.0p_Lenline=5.0_Vout.csv'
p82
s((g70
g7
g8
tF0
g21
S'trans'
p83
I10
F1
tp84
S'transmission_line_10_dropoffs/MultidropTransient/tran_Rline=420m_Lline=79.p_Cline=220f_Cdrp=0.0p_Lenline=1.0_Vout.csv'
p85
s((g6
g7
g8
tF1
g9
S'trans'
p86
I10
F4
tp87
S'transmission_line_10_dropoffs/MultidropTransient/tran_Rline=20.m_Lline=79.p_Cline=220f_Cdrp=1.0p_Lenline=4.0_Vout.csv'
p88
s((g3
(g5
S'\x00\x00\x00\x00\x00\x00\x1c@'
tRp89
g7
g8
tF0
g21
g83
I10
F1
tp90
S'transmission_line_10_dropoffs/MultidropTransient/tran_Rline=7.0_Lline=79.p_Cline=220f_Cdrp=0.0p_Lenline=1.0_Vout.csv'
p91
s((g3
(g5
S'\x00\x00\x00\x00\x00\x00"@'
tRp92
g58
g59
tF2
g28
g60
I10
F4
tp93
S'transmission_line_10_dropoffs/MultidropTransient/tran_Rline=9.0_Lline=2.4n_Cline=4.6p_Cdrp=2.0p_Lenline=4.0_Vout.csv'
p94
s((g3
(g5
S'\x00\x00\x00\x00\x00\x00$@'
tRp95
g7
g8
tF0
g14
g15
I10
F5
tp96
S'transmission_line_10_dropoffs/MultidropBode/ac_Rline=10._Lline=79.p_Cline=220f_Cdrp=0.0p_Lenline=5.0_Vout.csv'
p97
s((g95
g7
g8
tF0
g21
g83
I10
F1
tp98
S'transmission_line_10_dropoffs/MultidropTransient/tran_Rline=10._Lline=79.p_Cline=220f_Cdrp=0.0p_Lenline=1.0_Vout.csv'
p99
s((g3
(g5
S'\x00\x00\x00\x00\x00\x00.@'
tRp100
g7
g8
tF1
g54
g64
I10
F5
tp101
S'transmission_line_10_dropoffs/MultidropTransient/tran_Rline=15._Lline=79.p_Cline=220f_Cdrp=1.0p_Lenline=5.0_Vout.csv'
p102
s((g75
g7
g8
tF0
g14
g36
I10
F5
tp103
S'transmission_line_10_dropoffs/MultidropTransient/tran_Rline=1.6_Lline=79.p_Cline=220f_Cdrp=0.0p_Lenline=5.0_Vout.csv'
p104
s((g6
g7
g8
tF1
S'Vout'
S'trans'
I10
F5
tp105
S'transmission_line_10_dropoffs/MultidropTransient/tran_Rline=20.m_Lline=79.p_Cline=220f_Cdrp=1.0p_Lenline=5.0_Vout.csv'
p106
s((g6
g7
g8
tF1
S'Vm'
p107
g86
I10
F5
tp108
S'transmission_line_10_dropoffs/MultidropTransient/tran_Rline=20.m_Lline=79.p_Cline=220f_Cdrp=1.0p_Lenline=5.0_Vm.csv'
p109
s((g3
(g5
S'\xb9\x1e\x85\xebQ\xb8\xf6?'
tRp110
g7
g8
tF0
g21
g83
I10
F1
tp111
S'transmission_line_10_dropoffs/MultidropTransient/tran_Rline=1.4_Lline=79.p_Cline=220f_Cdrp=0.0p_Lenline=1.0_Vout.csv'
p112
s((g42
g7
g8
tF1
g54
g55
I10
F5
tp113
S'transmission_line_10_dropoffs/MultidropBode/ac_Rline=820m_Lline=79.p_Cline=220f_Cdrp=1.0p_Lenline=5.0_Vout.csv'
p114
s((g110
g7
g8
tF0
g14
g36
I10
F5
tp115
S'transmission_line_10_dropoffs/MultidropTransient/tran_Rline=1.4_Lline=79.p_Cline=220f_Cdrp=0.0p_Lenline=5.0_Vout.csv'
p116
s((g3
(g5
S'\xd8\xa3p=\n\xd7\xe3?'
tRp117
g7
g8
tF1
g54
g55
I10
F5
tp118
S'transmission_line_10_dropoffs/MultidropBode/ac_Rline=620m_Lline=79.p_Cline=220f_Cdrp=1.0p_Lenline=5.0_Vout.csv'
p119
s((g25
g58
g59
tF2
g28
g29
I10
F4
tp120
S'transmission_line_10_dropoffs/MultidropBode/ac_Rline=6.0_Lline=2.4n_Cline=4.6p_Cdrp=2.0p_Lenline=4.0_Vout.csv'
p121
s((g75
g58
g59
tF2
g28
g60
I10
F4
tp122
S'transmission_line_10_dropoffs/MultidropTransient/tran_Rline=1.6_Lline=2.4n_Cline=4.6p_Cdrp=2.0p_Lenline=4.0_Vout.csv'
p123
s((g13
g7
g8
tF0
g21
g83
I10
F1
tp124
S'transmission_line_10_dropoffs/MultidropTransient/tran_Rline=5.0_Lline=79.p_Cline=220f_Cdrp=0.0p_Lenline=1.0_Vout.csv'
p125
s((g42
g7
g8
tF0
g21
g22
I10
F1
tp126
S'transmission_line_10_dropoffs/MultidropBode/ac_Rline=820m_Lline=79.p_Cline=220f_Cdrp=0.0p_Lenline=1.0_Vout.csv'
p127
s((g3
(g5
S'R\xb8\x1e\x85\xebQ\xf0?'
tRp128
g7
g8
tF0
g21
g83
I10
F1
tp129
S'transmission_line_10_dropoffs/MultidropTransient/tran_Rline=1.0_Lline=79.p_Cline=220f_Cdrp=0.0p_Lenline=1.0_Vout.csv'
p130
s((g92
g7
g8
tF0
g21
g83
I10
F1
tp131
S'transmission_line_10_dropoffs/MultidropTransient/tran_Rline=9.0_Lline=79.p_Cline=220f_Cdrp=0.0p_Lenline=1.0_Vout.csv'
p132
s((g13
g7
g8
tF0
g21
g22
I10
F1
tp133
S'transmission_line_10_dropoffs/MultidropBode/ac_Rline=5.0_Lline=79.p_Cline=220f_Cdrp=0.0p_Lenline=1.0_Vout.csv'
p134
s((g95
g58
g59
tF2
g28
g60
I10
F4
tp135
S'transmission_line_10_dropoffs/MultidropTransient/tran_Rline=10._Lline=2.4n_Cline=4.6p_Cdrp=2.0p_Lenline=4.0_Vout.csv'
p136
s((g20
g7
g8
tF0
g14
g15
I10
F5
tp137
S'transmission_line_10_dropoffs/MultidropBode/ac_Rline=4.0_Lline=79.p_Cline=220f_Cdrp=0.0p_Lenline=5.0_Vout.csv'
p138
s((g70
g58
g59
tF2
g28
g60
I10
F4
tp139
S'transmission_line_10_dropoffs/MultidropTransient/tran_Rline=420m_Lline=2.4n_Cline=4.6p_Cdrp=2.0p_Lenline=4.0_Vout.csv'
p140
s((g3
(g5
S'\x00\x00\x00\x00\x00\x003@'
tRp141
g7
g8
tF0
g14
g15
I10
F5
tp142
S'transmission_line_10_dropoffs/MultidropBode/ac_Rline=19._Lline=79.p_Cline=220f_Cdrp=0.0p_Lenline=5.0_Vout.csv'
p143
s((g32
g7
g8
tF0
g14
g15
I10
F5
tp144
S'transmission_line_10_dropoffs/MultidropBode/ac_Rline=3.0_Lline=79.p_Cline=220f_Cdrp=0.0p_Lenline=5.0_Vout.csv'
p145
s((g3
(g5
S'\x00\x00\x00\x00\x00\x00&@'
tRp146
g7
g8
tF1
g54
g55
I10
F5
tp147
S'transmission_line_10_dropoffs/MultidropBode/ac_Rline=11._Lline=79.p_Cline=220f_Cdrp=1.0p_Lenline=5.0_Vout.csv'
p148
s((g45
g7
g8
tF1
g54
g64
I10
F5
tp149
S'transmission_line_10_dropoffs/MultidropTransient/tran_Rline=1.8_Lline=79.p_Cline=220f_Cdrp=1.0p_Lenline=5.0_Vout.csv'
p150
s((g39
g7
g8
tF0
g21
g22
I10
F1
tp151
S'transmission_line_10_dropoffs/MultidropBode/ac_Rline=13._Lline=79.p_Cline=220f_Cdrp=0.0p_Lenline=1.0_Vout.csv'
p152
s((g32
g58
g59
tF2
g28
g29
I10
F4
tp153
S'transmission_line_10_dropoffs/MultidropBode/ac_Rline=3.0_Lline=2.4n_Cline=4.6p_Cdrp=2.0p_Lenline=4.0_Vout.csv'
p154
s((g42
g7
g8
tF0
g21
g83
I10
F1
tp155
S'transmission_line_10_dropoffs/MultidropTransient/tran_Rline=820m_Lline=79.p_Cline=220f_Cdrp=0.0p_Lenline=1.0_Vout.csv'
p156
s((g48
g58
g59
tF2
g28
g60
I10
F4
tp157
S'transmission_line_10_dropoffs/MultidropTransient/tran_Rline=1.2_Lline=2.4n_Cline=4.6p_Cdrp=2.0p_Lenline=4.0_Vout.csv'
p158
s((g141
g7
g8
tF0
g21
g83
I10
F1
tp159
S'transmission_line_10_dropoffs/MultidropTransient/tran_Rline=19._Lline=79.p_Cline=220f_Cdrp=0.0p_Lenline=1.0_Vout.csv'
p160
s((g48
g7
g8
tF0
g14
g15
I10
F5
tp161
S'transmission_line_10_dropoffs/MultidropBode/ac_Rline=1.2_Lline=79.p_Cline=220f_Cdrp=0.0p_Lenline=5.0_Vout.csv'
p162
s((g117
g7
g8
tF0
g14
g36
I10
F5
tp163
S'transmission_line_10_dropoffs/MultidropTransient/tran_Rline=620m_Lline=79.p_Cline=220f_Cdrp=0.0p_Lenline=5.0_Vout.csv'
p164
s((g100
g58
g59
tF2
g28
g29
I10
F4
tp165
S'transmission_line_10_dropoffs/MultidropBode/ac_Rline=15._Lline=2.4n_Cline=4.6p_Cdrp=2.0p_Lenline=4.0_Vout.csv'
p166
s((g70
g7
g8
tF0
g21
g22
I10
F1
tp167
S'transmission_line_10_dropoffs/MultidropBode/ac_Rline=420m_Lline=79.p_Cline=220f_Cdrp=0.0p_Lenline=1.0_Vout.csv'
p168
s((g53
g7
g8
tF0
g14
g36
I10
F5
tp169
S'transmission_line_10_dropoffs/MultidropTransient/tran_Rline=220m_Lline=79.p_Cline=220f_Cdrp=0.0p_Lenline=5.0_Vout.csv'
p170
s((g53
g58
g59
tF2
g28
g29
I10
F4
tp171
S'transmission_line_10_dropoffs/MultidropBode/ac_Rline=220m_Lline=2.4n_Cline=4.6p_Cdrp=2.0p_Lenline=4.0_Vout.csv'
p172
s((g3
(g5
S'\x00\x00\x00\x00\x00\x00(@'
tRp173
g58
g59
tF2
g28
g29
I10
F4
tp174
S'transmission_line_10_dropoffs/MultidropBode/ac_Rline=12._Lline=2.4n_Cline=4.6p_Cdrp=2.0p_Lenline=4.0_Vout.csv'
p175
s((g3
(g5
S'\x00\x00\x00\x00\x00\x002@'
tRp176
g7
g8
tF0
g14
g15
I10
F5
tp177
S'transmission_line_10_dropoffs/MultidropBode/ac_Rline=18._Lline=79.p_Cline=220f_Cdrp=0.0p_Lenline=5.0_Vout.csv'
p178
s((g6
g7
g8
tF2
g28
g60
I10
F4
tp179
S'transmission_line_10_dropoffs/MultidropTransient/tran_Rline=20.m_Lline=79.p_Cline=220f_Cdrp=2.0p_Lenline=4.0_Vout.csv'
p180
s((g128
g58
g59
tF2
g28
g29
I10
F4
tp181
S'transmission_line_10_dropoffs/MultidropBode/ac_Rline=1.0_Lline=2.4n_Cline=4.6p_Cdrp=2.0p_Lenline=4.0_Vout.csv'
p182
s((g25
g7
g8
tF0
g21
g22
I10
F1
tp183
S'transmission_line_10_dropoffs/MultidropBode/ac_Rline=6.0_Lline=79.p_Cline=220f_Cdrp=0.0p_Lenline=1.0_Vout.csv'
p184
s((g42
g7
g8
tF1
g54
g64
I10
F5
tp185
S'transmission_line_10_dropoffs/MultidropTransient/tran_Rline=820m_Lline=79.p_Cline=220f_Cdrp=1.0p_Lenline=5.0_Vout.csv'
p186
s((g95
g7
g8
tF0
g21
g22
I10
F1
tp187
S'transmission_line_10_dropoffs/MultidropBode/ac_Rline=10._Lline=79.p_Cline=220f_Cdrp=0.0p_Lenline=1.0_Vout.csv'
p188
s((g20
g7
g8
tF1
g54
g64
I10
F5
tp189
S'transmission_line_10_dropoffs/MultidropTransient/tran_Rline=4.0_Lline=79.p_Cline=220f_Cdrp=1.0p_Lenline=5.0_Vout.csv'
p190
s((g89
g7
g8
tF0
g21
g22
I10
F1
tp191
S'transmission_line_10_dropoffs/MultidropBode/ac_Rline=7.0_Lline=79.p_Cline=220f_Cdrp=0.0p_Lenline=1.0_Vout.csv'
p192
s((g80
g7
g8
tF1
g54
g55
I10
F5
tp193
S'transmission_line_10_dropoffs/MultidropBode/ac_Rline=8.0_Lline=79.p_Cline=220f_Cdrp=1.0p_Lenline=5.0_Vout.csv'
p194
s((g173
g7
g8
tF1
g54
g64
I10
F5
tp195
S'transmission_line_10_dropoffs/MultidropTransient/tran_Rline=12._Lline=79.p_Cline=220f_Cdrp=1.0p_Lenline=5.0_Vout.csv'
p196
s((g75
g7
g8
tF0
g21
g83
I10
F1
tp197
S'transmission_line_10_dropoffs/MultidropTransient/tran_Rline=1.6_Lline=79.p_Cline=220f_Cdrp=0.0p_Lenline=1.0_Vout.csv'
p198
s((g3
(g5
S'\x00\x00\x00\x00\x00\x001@'
tRp199
g58
g59
tF2
g28
g60
I10
F4
tp200
S'transmission_line_10_dropoffs/MultidropTransient/tran_Rline=17._Lline=2.4n_Cline=4.6p_Cdrp=2.0p_Lenline=4.0_Vout.csv'
p201
s((g128
g7
g8
tF1
g54
g64
I10
F5
tp202
S'transmission_line_10_dropoffs/MultidropTransient/tran_Rline=1.0_Lline=79.p_Cline=220f_Cdrp=1.0p_Lenline=5.0_Vout.csv'
p203
s((g63
g58
g59
tF2
g28
g29
I10
F4
tp204
S'transmission_line_10_dropoffs/MultidropBode/ac_Rline=16._Lline=2.4n_Cline=4.6p_Cdrp=2.0p_Lenline=4.0_Vout.csv'
p205
s((g13
g58
g59
tF2
g28
g29
I10
F4
tp206
S'transmission_line_10_dropoffs/MultidropBode/ac_Rline=5.0_Lline=2.4n_Cline=4.6p_Cdrp=2.0p_Lenline=4.0_Vout.csv'
p207
s((g173
g7
g8
tF0
g14
g36
I10
F5
tp208
S'transmission_line_10_dropoffs/MultidropTransient/tran_Rline=12._Lline=79.p_Cline=220f_Cdrp=0.0p_Lenline=5.0_Vout.csv'
p209
s((g141
g7
g8
tF1
g54
g64
I10
F5
tp210
S'transmission_line_10_dropoffs/MultidropTransient/tran_Rline=19._Lline=79.p_Cline=220f_Cdrp=1.0p_Lenline=5.0_Vout.csv'
p211
s((g39
g7
g8
tF0
g14
g36
I10
F5
tp212
S'transmission_line_10_dropoffs/MultidropTransient/tran_Rline=13._Lline=79.p_Cline=220f_Cdrp=0.0p_Lenline=5.0_Vout.csv'
p213
s((g117
g7
g8
tF0
g14
g15
I10
F5
tp214
S'transmission_line_10_dropoffs/MultidropBode/ac_Rline=620m_Lline=79.p_Cline=220f_Cdrp=0.0p_Lenline=5.0_Vout.csv'
p215
s((g128
g7
g8
tF0
g14
g36
I10
F5
tp216
S'transmission_line_10_dropoffs/MultidropTransient/tran_Rline=1.0_Lline=79.p_Cline=220f_Cdrp=0.0p_Lenline=5.0_Vout.csv'
p217
s((g92
g7
g8
tF0
g14
g36
I10
F5
tp218
S'transmission_line_10_dropoffs/MultidropTransient/tran_Rline=9.0_Lline=79.p_Cline=220f_Cdrp=0.0p_Lenline=5.0_Vout.csv'
p219
s((g32
g7
g8
tF1
g54
g55
I10
F5
tp220
S'transmission_line_10_dropoffs/MultidropBode/ac_Rline=3.0_Lline=79.p_Cline=220f_Cdrp=1.0p_Lenline=5.0_Vout.csv'
p221
s((g35
g58
g59
tF2
g28
g60
I10
F4
tp222
S'transmission_line_10_dropoffs/MultidropTransient/tran_Rline=14._Lline=2.4n_Cline=4.6p_Cdrp=2.0p_Lenline=4.0_Vout.csv'
p223
s((g35
g7
g8
tF1
g54
g55
I10
F5
tp224
S'transmission_line_10_dropoffs/MultidropBode/ac_Rline=14._Lline=79.p_Cline=220f_Cdrp=1.0p_Lenline=5.0_Vout.csv'
p225
s((g25
g7
g8
tF1
g54
g64
I10
F5
tp226
S'transmission_line_10_dropoffs/MultidropTransient/tran_Rline=6.0_Lline=79.p_Cline=220f_Cdrp=1.0p_Lenline=5.0_Vout.csv'
p227
s((g176
g7
g8
tF1
g54
g64
I10
F5
tp228
S'transmission_line_10_dropoffs/MultidropTransient/tran_Rline=18._Lline=79.p_Cline=220f_Cdrp=1.0p_Lenline=5.0_Vout.csv'
p229
s((g199
g7
g8
tF1
g54
g64
I10
F5
tp230
S'transmission_line_10_dropoffs/MultidropTransient/tran_Rline=17._Lline=79.p_Cline=220f_Cdrp=1.0p_Lenline=5.0_Vout.csv'
p231
s((g6
g58
g59
tF2
g28
g60
I10
F4
tp232
S'transmission_line_10_dropoffs/MultidropTransient/tran_Rline=20.m_Lline=2.4n_Cline=4.6p_Cdrp=2.0p_Lenline=4.0_Vout.csv'
p233
s((g92
g7
g8
tF1
g54
g55
I10
F5
tp234
S'transmission_line_10_dropoffs/MultidropBode/ac_Rline=9.0_Lline=79.p_Cline=220f_Cdrp=1.0p_Lenline=5.0_Vout.csv'
p235
s((g70
g7
g8
tF1
g54
g55
I10
F5
tp236
S'transmission_line_10_dropoffs/MultidropBode/ac_Rline=420m_Lline=79.p_Cline=220f_Cdrp=1.0p_Lenline=5.0_Vout.csv'
p237
s((g75
g7
g8
tF1
g54
g64
I10
F5
tp238
S'transmission_line_10_dropoffs/MultidropTransient/tran_Rline=1.6_Lline=79.p_Cline=220f_Cdrp=1.0p_Lenline=5.0_Vout.csv'
p239
s((g141
g7
g8
tF0
g14
g36
I10
F5
tp240
S'transmission_line_10_dropoffs/MultidropTransient/tran_Rline=19._Lline=79.p_Cline=220f_Cdrp=0.0p_Lenline=5.0_Vout.csv'
p241
s((g199
g7
g8
tF0
g21
g83
I10
F1
tp242
S'transmission_line_10_dropoffs/MultidropTransient/tran_Rline=17._Lline=79.p_Cline=220f_Cdrp=0.0p_Lenline=1.0_Vout.csv'
p243
s((g25
g7
g8
tF0
g21
g83
I10
F1
tp244
S'transmission_line_10_dropoffs/MultidropTransient/tran_Rline=6.0_Lline=79.p_Cline=220f_Cdrp=0.0p_Lenline=1.0_Vout.csv'
p245
s((g141
g58
g59
tF2
g28
g29
I10
F4
tp246
S'transmission_line_10_dropoffs/MultidropBode/ac_Rline=19._Lline=2.4n_Cline=4.6p_Cdrp=2.0p_Lenline=4.0_Vout.csv'
p247
s((g110
g7
g8
tF1
g54
g55
I10
F5
tp248
S'transmission_line_10_dropoffs/MultidropBode/ac_Rline=1.4_Lline=79.p_Cline=220f_Cdrp=1.0p_Lenline=5.0_Vout.csv'
p249
s((g42
g58
g59
tF2
g28
g60
I10
F4
tp250
S'transmission_line_10_dropoffs/MultidropTransient/tran_Rline=820m_Lline=2.4n_Cline=4.6p_Cdrp=2.0p_Lenline=4.0_Vout.csv'
p251
s((g95
g7
g8
tF1
g54
g64
I10
F5
tp252
S'transmission_line_10_dropoffs/MultidropTransient/tran_Rline=10._Lline=79.p_Cline=220f_Cdrp=1.0p_Lenline=5.0_Vout.csv'
p253
s((g117
g7
g8
tF0
g21
g22
I10
F1
tp254
S'transmission_line_10_dropoffs/MultidropBode/ac_Rline=620m_Lline=79.p_Cline=220f_Cdrp=0.0p_Lenline=1.0_Vout.csv'
p255
s((g176
g7
g8
tF0
g21
g22
I10
F1
tp256
S'transmission_line_10_dropoffs/MultidropBode/ac_Rline=18._Lline=79.p_Cline=220f_Cdrp=0.0p_Lenline=1.0_Vout.csv'
p257
s((g100
g7
g8
tF0
g21
g83
I10
F1
tp258
S'transmission_line_10_dropoffs/MultidropTransient/tran_Rline=15._Lline=79.p_Cline=220f_Cdrp=0.0p_Lenline=1.0_Vout.csv'
p259
s((g141
g7
g8
tF0
g21
g22
I10
F1
tp260
S'transmission_line_10_dropoffs/MultidropBode/ac_Rline=19._Lline=79.p_Cline=220f_Cdrp=0.0p_Lenline=1.0_Vout.csv'
p261
s((g89
g7
g8
tF0
g14
g36
I10
F5
tp262
S'transmission_line_10_dropoffs/MultidropTransient/tran_Rline=7.0_Lline=79.p_Cline=220f_Cdrp=0.0p_Lenline=5.0_Vout.csv'
p263
s((g117
g58
g59
tF2
g28
g29
I10
F4
tp264
S'transmission_line_10_dropoffs/MultidropBode/ac_Rline=620m_Lline=2.4n_Cline=4.6p_Cdrp=2.0p_Lenline=4.0_Vout.csv'
p265
s((g92
g7
g8
tF0
g21
g22
I10
F1
tp266
S'transmission_line_10_dropoffs/MultidropBode/ac_Rline=9.0_Lline=79.p_Cline=220f_Cdrp=0.0p_Lenline=1.0_Vout.csv'
p267
s((g42
g58
g59
tF2
g28
g29
I10
F4
tp268
S'transmission_line_10_dropoffs/MultidropBode/ac_Rline=820m_Lline=2.4n_Cline=4.6p_Cdrp=2.0p_Lenline=4.0_Vout.csv'
p269
s((g80
g58
g59
tF2
g28
g60
I10
F4
tp270
S'transmission_line_10_dropoffs/MultidropTransient/tran_Rline=8.0_Lline=2.4n_Cline=4.6p_Cdrp=2.0p_Lenline=4.0_Vout.csv'
p271
s((g45
g58
g59
tF2
g28
g29
I10
F4
tp272
S'transmission_line_10_dropoffs/MultidropBode/ac_Rline=1.8_Lline=2.4n_Cline=4.6p_Cdrp=2.0p_Lenline=4.0_Vout.csv'
p273
s((g45
g7
g8
tF0
g14
g36
I10
F5
tp274
S'transmission_line_10_dropoffs/MultidropTransient/tran_Rline=1.8_Lline=79.p_Cline=220f_Cdrp=0.0p_Lenline=5.0_Vout.csv'
p275
s((g146
g7
g8
tF1
g54
g64
I10
F5
tp276
S'transmission_line_10_dropoffs/MultidropTransient/tran_Rline=11._Lline=79.p_Cline=220f_Cdrp=1.0p_Lenline=5.0_Vout.csv'
p277
s((g173
g7
g8
tF0
g21
g22
I10
F1
tp278
S'transmission_line_10_dropoffs/MultidropBode/ac_Rline=12._Lline=79.p_Cline=220f_Cdrp=0.0p_Lenline=1.0_Vout.csv'
p279
s((g80
g7
g8
tF0
g14
g15
I10
F5
tp280
S'transmission_line_10_dropoffs/MultidropBode/ac_Rline=8.0_Lline=79.p_Cline=220f_Cdrp=0.0p_Lenline=5.0_Vout.csv'
p281
s((g146
g58
g59
tF2
g28
g60
I10
F4
tp282
S'transmission_line_10_dropoffs/MultidropTransient/tran_Rline=11._Lline=2.4n_Cline=4.6p_Cdrp=2.0p_Lenline=4.0_Vout.csv'
p283
s((g39
g58
g59
tF2
g28
g29
I10
F4
tp284
S'transmission_line_10_dropoffs/MultidropBode/ac_Rline=13._Lline=2.4n_Cline=4.6p_Cdrp=2.0p_Lenline=4.0_Vout.csv'
p285
s((g89
g58
g59
tF2
g28
g29
I10
F4
tp286
S'transmission_line_10_dropoffs/MultidropBode/ac_Rline=7.0_Lline=2.4n_Cline=4.6p_Cdrp=2.0p_Lenline=4.0_Vout.csv'
p287
s((g95
g7
g8
tF1
g54
g55
I10
F5
tp288
S'transmission_line_10_dropoffs/MultidropBode/ac_Rline=10._Lline=79.p_Cline=220f_Cdrp=1.0p_Lenline=5.0_Vout.csv'
p289
s((g32
g7
g8
tF1
g54
g64
I10
F5
tp290
S'transmission_line_10_dropoffs/MultidropTransient/tran_Rline=3.0_Lline=79.p_Cline=220f_Cdrp=1.0p_Lenline=5.0_Vout.csv'
p291
s((g39
g7
g8
tF0
g21
g83
I10
F1
tp292
S'transmission_line_10_dropoffs/MultidropTransient/tran_Rline=13._Lline=79.p_Cline=220f_Cdrp=0.0p_Lenline=1.0_Vout.csv'
p293
s((g70
g7
g8
tF0
g14
g36
I10
F5
tp294
S'transmission_line_10_dropoffs/MultidropTransient/tran_Rline=420m_Lline=79.p_Cline=220f_Cdrp=0.0p_Lenline=5.0_Vout.csv'
p295
s((g48
g7
g8
tF1
g54
g64
I10
F5
tp296
S'transmission_line_10_dropoffs/MultidropTransient/tran_Rline=1.2_Lline=79.p_Cline=220f_Cdrp=1.0p_Lenline=5.0_Vout.csv'
p297
s((g39
g58
g59
tF2
g28
g60
I10
F4
tp298
S'transmission_line_10_dropoffs/MultidropTransient/tran_Rline=13._Lline=2.4n_Cline=4.6p_Cdrp=2.0p_Lenline=4.0_Vout.csv'
p299
s((g75
g7
g8
tF1
g54
g55
I10
F5
tp300
S'transmission_line_10_dropoffs/MultidropBode/ac_Rline=1.6_Lline=79.p_Cline=220f_Cdrp=1.0p_Lenline=5.0_Vout.csv'
p301
s((g110
g7
g8
tF0
g21
g22
I10
F1
tp302
S'transmission_line_10_dropoffs/MultidropBode/ac_Rline=1.4_Lline=79.p_Cline=220f_Cdrp=0.0p_Lenline=1.0_Vout.csv'
p303
s((g110
g58
g59
tF2
g28
g29
I10
F4
tp304
S'transmission_line_10_dropoffs/MultidropBode/ac_Rline=1.4_Lline=2.4n_Cline=4.6p_Cdrp=2.0p_Lenline=4.0_Vout.csv'
p305
s((g176
g7
g8
tF1
g54
g55
I10
F5
tp306
S'transmission_line_10_dropoffs/MultidropBode/ac_Rline=18._Lline=79.p_Cline=220f_Cdrp=1.0p_Lenline=5.0_Vout.csv'
p307
s((g53
g7
g8
tF0
g14
g15
I10
F5
tp308
S'transmission_line_10_dropoffs/MultidropBode/ac_Rline=220m_Lline=79.p_Cline=220f_Cdrp=0.0p_Lenline=5.0_Vout.csv'
p309
s((g53
g7
g8
tF0
g21
g83
I10
F1
tp310
S'transmission_line_10_dropoffs/MultidropTransient/tran_Rline=220m_Lline=79.p_Cline=220f_Cdrp=0.0p_Lenline=1.0_Vout.csv'
p311
s((g80
g7
g8
tF0
g21
g83
I10
F1
tp312
S'transmission_line_10_dropoffs/MultidropTransient/tran_Rline=8.0_Lline=79.p_Cline=220f_Cdrp=0.0p_Lenline=1.0_Vout.csv'
p313
s((g117
g58
g59
tF2
g28
g60
I10
F4
tp314
S'transmission_line_10_dropoffs/MultidropTransient/tran_Rline=620m_Lline=2.4n_Cline=4.6p_Cdrp=2.0p_Lenline=4.0_Vout.csv'
p315
s((g20
g7
g8
tF0
g14
g36
I10
F5
tp316
S'transmission_line_10_dropoffs/MultidropTransient/tran_Rline=4.0_Lline=79.p_Cline=220f_Cdrp=0.0p_Lenline=5.0_Vout.csv'
p317
s((g199
g7
g8
tF0
g14
g36
I10
F5
tp318
S'transmission_line_10_dropoffs/MultidropTransient/tran_Rline=17._Lline=79.p_Cline=220f_Cdrp=0.0p_Lenline=5.0_Vout.csv'
p319
s((g25
g7
g8
tF0
g14
g36
I10
F5
tp320
S'transmission_line_10_dropoffs/MultidropTransient/tran_Rline=6.0_Lline=79.p_Cline=220f_Cdrp=0.0p_Lenline=5.0_Vout.csv'
p321
s((g80
g7
g8
tF0
g14
g36
I10
F5
tp322
S'transmission_line_10_dropoffs/MultidropTransient/tran_Rline=8.0_Lline=79.p_Cline=220f_Cdrp=0.0p_Lenline=5.0_Vout.csv'
p323
s((g13
g7
g8
tF1
g54
g55
I10
F5
tp324
S'transmission_line_10_dropoffs/MultidropBode/ac_Rline=5.0_Lline=79.p_Cline=220f_Cdrp=1.0p_Lenline=5.0_Vout.csv'
p325
s((g199
g7
g8
tF0
g14
g15
I10
F5
tp326
S'transmission_line_10_dropoffs/MultidropBode/ac_Rline=17._Lline=79.p_Cline=220f_Cdrp=0.0p_Lenline=5.0_Vout.csv'
p327
s((g176
g58
g59
tF2
g28
g29
I10
F4
tp328
S'transmission_line_10_dropoffs/MultidropBode/ac_Rline=18._Lline=2.4n_Cline=4.6p_Cdrp=2.0p_Lenline=4.0_Vout.csv'
p329
s((g110
g7
g8
tF1
g54
g64
I10
F5
tp330
S'transmission_line_10_dropoffs/MultidropTransient/tran_Rline=1.4_Lline=79.p_Cline=220f_Cdrp=1.0p_Lenline=5.0_Vout.csv'
p331
s((g92
g7
g8
tF1
g54
g64
I10
F5
tp332
S'transmission_line_10_dropoffs/MultidropTransient/tran_Rline=9.0_Lline=79.p_Cline=220f_Cdrp=1.0p_Lenline=5.0_Vout.csv'
p333
s((g70
g7
g8
tF1
g54
g64
I10
F5
tp334
S'transmission_line_10_dropoffs/MultidropTransient/tran_Rline=420m_Lline=79.p_Cline=220f_Cdrp=1.0p_Lenline=5.0_Vout.csv'
p335
s((g199
g58
g59
tF2
g28
g29
I10
F4
tp336
S'transmission_line_10_dropoffs/MultidropBode/ac_Rline=17._Lline=2.4n_Cline=4.6p_Cdrp=2.0p_Lenline=4.0_Vout.csv'
p337
s((g45
g7
g8
tF0
g21
g22
I10
F1
tp338
S'transmission_line_10_dropoffs/MultidropBode/ac_Rline=1.8_Lline=79.p_Cline=220f_Cdrp=0.0p_Lenline=1.0_Vout.csv'
p339
s((g63
g7
g8
tF0
g14
g36
I10
F5
tp340
S'transmission_line_10_dropoffs/MultidropTransient/tran_Rline=16._Lline=79.p_Cline=220f_Cdrp=0.0p_Lenline=5.0_Vout.csv'
p341
s((g53
g58
g59
tF2
g28
g60
I10
F4
tp342
S'transmission_line_10_dropoffs/MultidropTransient/tran_Rline=220m_Lline=2.4n_Cline=4.6p_Cdrp=2.0p_Lenline=4.0_Vout.csv'
p343
s((g89
g7
g8
tF1
g54
g55
I10
F5
tp344
S'transmission_line_10_dropoffs/MultidropBode/ac_Rline=7.0_Lline=79.p_Cline=220f_Cdrp=1.0p_Lenline=5.0_Vout.csv'
p345
s((g89
g7
g8
tF1
g54
g64
I10
F5
tp346
S'transmission_line_10_dropoffs/MultidropTransient/tran_Rline=7.0_Lline=79.p_Cline=220f_Cdrp=1.0p_Lenline=5.0_Vout.csv'
p347
s((g110
g58
g59
tF2
g28
g60
I10
F4
tp348
S'transmission_line_10_dropoffs/MultidropTransient/tran_Rline=1.4_Lline=2.4n_Cline=4.6p_Cdrp=2.0p_Lenline=4.0_Vout.csv'
p349
s((g100
g58
g59
tF2
g28
g60
I10
F4
tp350
S'transmission_line_10_dropoffs/MultidropTransient/tran_Rline=15._Lline=2.4n_Cline=4.6p_Cdrp=2.0p_Lenline=4.0_Vout.csv'
p351
s((g63
g7
g8
tF0
g14
g15
I10
F5
tp352
S'transmission_line_10_dropoffs/MultidropBode/ac_Rline=16._Lline=79.p_Cline=220f_Cdrp=0.0p_Lenline=5.0_Vout.csv'
p353
s((g32
g7
g8
tF0
g21
g83
I10
F1
tp354
S'transmission_line_10_dropoffs/MultidropTransient/tran_Rline=3.0_Lline=79.p_Cline=220f_Cdrp=0.0p_Lenline=1.0_Vout.csv'
p355
s((g48
g7
g8
tF1
g54
g55
I10
F5
tp356
S'transmission_line_10_dropoffs/MultidropBode/ac_Rline=1.2_Lline=79.p_Cline=220f_Cdrp=1.0p_Lenline=5.0_Vout.csv'
p357
s((g45
g7
g8
tF0
g21
g83
I10
F1
tp358
S'transmission_line_10_dropoffs/MultidropTransient/tran_Rline=1.8_Lline=79.p_Cline=220f_Cdrp=0.0p_Lenline=1.0_Vout.csv'
p359
s((g45
g58
g59
tF2
g28
g60
I10
F4
tp360
S'transmission_line_10_dropoffs/MultidropTransient/tran_Rline=1.8_Lline=2.4n_Cline=4.6p_Cdrp=2.0p_Lenline=4.0_Vout.csv'
p361
s((g128
g7
g8
tF0
g21
g22
I10
F1
tp362
S'transmission_line_10_dropoffs/MultidropBode/ac_Rline=1.0_Lline=79.p_Cline=220f_Cdrp=0.0p_Lenline=1.0_Vout.csv'
p363
s((g100
g7
g8
tF0
g14
g15
I10
F5
tp364
S'transmission_line_10_dropoffs/MultidropBode/ac_Rline=15._Lline=79.p_Cline=220f_Cdrp=0.0p_Lenline=5.0_Vout.csv'
p365
s((g128
g58
g59
tF2
g28
g60
I10
F4
tp366
S'transmission_line_10_dropoffs/MultidropTransient/tran_Rline=1.0_Lline=2.4n_Cline=4.6p_Cdrp=2.0p_Lenline=4.0_Vout.csv'
p367
s((g80
g7
g8
tF0
g21
g22
I10
F1
tp368
S'transmission_line_10_dropoffs/MultidropBode/ac_Rline=8.0_Lline=79.p_Cline=220f_Cdrp=0.0p_Lenline=1.0_Vout.csv'
p369
s((g35
g7
g8
tF1
g54
g64
I10
F5
tp370
S'transmission_line_10_dropoffs/MultidropTransient/tran_Rline=14._Lline=79.p_Cline=220f_Cdrp=1.0p_Lenline=5.0_Vout.csv'
p371
s((g176
g58
g59
tF2
g28
g60
I10
F4
tp372
S'transmission_line_10_dropoffs/MultidropTransient/tran_Rline=18._Lline=2.4n_Cline=4.6p_Cdrp=2.0p_Lenline=4.0_Vout.csv'
p373
s((g35
g7
g8
tF0
g21
g22
I10
F1
tp374
S'transmission_line_10_dropoffs/MultidropBode/ac_Rline=14._Lline=79.p_Cline=220f_Cdrp=0.0p_Lenline=1.0_Vout.csv'
p375
s((g173
g58
g59
tF2
g28
g60
I10
F4
tp376
S'transmission_line_10_dropoffs/MultidropTransient/tran_Rline=12._Lline=2.4n_Cline=4.6p_Cdrp=2.0p_Lenline=4.0_Vout.csv'
p377
s((g146
g58
g59
tF2
g28
g29
I10
F4
tp378
S'transmission_line_10_dropoffs/MultidropBode/ac_Rline=11._Lline=2.4n_Cline=4.6p_Cdrp=2.0p_Lenline=4.0_Vout.csv'
p379
s((g13
g7
g8
tF1
g54
g64
I10
F5
tp380
S'transmission_line_10_dropoffs/MultidropTransient/tran_Rline=5.0_Lline=79.p_Cline=220f_Cdrp=1.0p_Lenline=5.0_Vout.csv'
p381
s((g146
g7
g8
tF0
g21
g22
I10
F1
tp382
S'transmission_line_10_dropoffs/MultidropBode/ac_Rline=11._Lline=79.p_Cline=220f_Cdrp=0.0p_Lenline=1.0_Vout.csv'
p383
s((g25
g58
g59
tF2
g28
g60
I10
F4
tp384
S'transmission_line_10_dropoffs/MultidropTransient/tran_Rline=6.0_Lline=2.4n_Cline=4.6p_Cdrp=2.0p_Lenline=4.0_Vout.csv'
p385
s((g141
g7
g8
tF1
g54
g55
I10
F5
tp386
S'transmission_line_10_dropoffs/MultidropBode/ac_Rline=19._Lline=79.p_Cline=220f_Cdrp=1.0p_Lenline=5.0_Vout.csv'
p387
s((g95
g58
g59
tF2
g28
g29
I10
F4
tp388
S'transmission_line_10_dropoffs/MultidropBode/ac_Rline=10._Lline=2.4n_Cline=4.6p_Cdrp=2.0p_Lenline=4.0_Vout.csv'
p389
s((g48
g58
g59
tF2
g28
g29
I10
F4
tp390
S'transmission_line_10_dropoffs/MultidropBode/ac_Rline=1.2_Lline=2.4n_Cline=4.6p_Cdrp=2.0p_Lenline=4.0_Vout.csv'
p391
s((g176
g7
g8
tF0
g14
g36
I10
F5
tp392
S'transmission_line_10_dropoffs/MultidropTransient/tran_Rline=18._Lline=79.p_Cline=220f_Cdrp=0.0p_Lenline=5.0_Vout.csv'
p393
s((g13
g58
g59
tF2
g28
g60
I10
F4
tp394
S'transmission_line_10_dropoffs/MultidropTransient/tran_Rline=5.0_Lline=2.4n_Cline=4.6p_Cdrp=2.0p_Lenline=4.0_Vout.csv'
p395
s((g63
g58
g59
tF2
g28
g60
I10
F4
tp396
S'transmission_line_10_dropoffs/MultidropTransient/tran_Rline=16._Lline=2.4n_Cline=4.6p_Cdrp=2.0p_Lenline=4.0_Vout.csv'
p397
s((g6
g7
g8
tF1
g107
g10
I10
F5
tp398
S'transmission_line_10_dropoffs/MultidropBode/ac_Rline=20.m_Lline=79.p_Cline=220f_Cdrp=1.0p_Lenline=5.0_Vm.csv'
p399
s((g110
g7
g8
tF0
g14
g15
I10
F5
tp400
S'transmission_line_10_dropoffs/MultidropBode/ac_Rline=1.4_Lline=79.p_Cline=220f_Cdrp=0.0p_Lenline=5.0_Vout.csv'
p401
s((g45
g7
g8
tF1
g54
g55
I10
F5
tp402
S'transmission_line_10_dropoffs/MultidropBode/ac_Rline=1.8_Lline=79.p_Cline=220f_Cdrp=1.0p_Lenline=5.0_Vout.csv'
p403
s((g89
g7
g8
tF0
g14
g15
I10
F5
tp404
S'transmission_line_10_dropoffs/MultidropBode/ac_Rline=7.0_Lline=79.p_Cline=220f_Cdrp=0.0p_Lenline=5.0_Vout.csv'
p405
s((g53
g7
g8
tF0
g21
g22
I10
F1
tp406
S'transmission_line_10_dropoffs/MultidropBode/ac_Rline=220m_Lline=79.p_Cline=220f_Cdrp=0.0p_Lenline=1.0_Vout.csv'
p407
s((g75
g58
g59
tF2
g28
g29
I10
F4
tp408
S'transmission_line_10_dropoffs/MultidropBode/ac_Rline=1.6_Lline=2.4n_Cline=4.6p_Cdrp=2.0p_Lenline=4.0_Vout.csv'
p409
s((g117
g7
g8
tF1
g54
g64
I10
F5
tp410
S'transmission_line_10_dropoffs/MultidropTransient/tran_Rline=620m_Lline=79.p_Cline=220f_Cdrp=1.0p_Lenline=5.0_Vout.csv'
p411
s((g63
g7
g8
tF1
g54
g55
I10
F5
tp412
S'transmission_line_10_dropoffs/MultidropBode/ac_Rline=16._Lline=79.p_Cline=220f_Cdrp=1.0p_Lenline=5.0_Vout.csv'
p413
s((g100
g7
g8
tF0
g14
g36
I10
F5
tp414
S'transmission_line_10_dropoffs/MultidropTransient/tran_Rline=15._Lline=79.p_Cline=220f_Cdrp=0.0p_Lenline=5.0_Vout.csv'
p415
s((g173
g7
g8
tF0
g21
g83
I10
F1
tp416
S'transmission_line_10_dropoffs/MultidropTransient/tran_Rline=12._Lline=79.p_Cline=220f_Cdrp=0.0p_Lenline=1.0_Vout.csv'
p417
s((g199
g7
g8
tF0
g21
g22
I10
F1
tp418
S'transmission_line_10_dropoffs/MultidropBode/ac_Rline=17._Lline=79.p_Cline=220f_Cdrp=0.0p_Lenline=1.0_Vout.csv'
p419
s((g146
g7
g8
tF0
g21
g83
I10
F1
tp420
S'transmission_line_10_dropoffs/MultidropTransient/tran_Rline=11._Lline=79.p_Cline=220f_Cdrp=0.0p_Lenline=1.0_Vout.csv'
p421
s((g141
g58
g59
tF2
g28
g60
I10
F4
tp422
S'transmission_line_10_dropoffs/MultidropTransient/tran_Rline=19._Lline=2.4n_Cline=4.6p_Cdrp=2.0p_Lenline=4.0_Vout.csv'
p423
s((g146
g7
g8
tF0
g14
g36
I10
F5
tp424
S'transmission_line_10_dropoffs/MultidropTransient/tran_Rline=11._Lline=79.p_Cline=220f_Cdrp=0.0p_Lenline=5.0_Vout.csv'
p425
s((g89
g58
g59
tF2
g28
g60
I10
F4
tp426
S'transmission_line_10_dropoffs/MultidropTransient/tran_Rline=7.0_Lline=2.4n_Cline=4.6p_Cdrp=2.0p_Lenline=4.0_Vout.csv'
p427
s((g48
g7
g8
tF0
g21
g83
I10
F1
tp428
S'transmission_line_10_dropoffs/MultidropTransient/tran_Rline=1.2_Lline=79.p_Cline=220f_Cdrp=0.0p_Lenline=1.0_Vout.csv'
p429
s((g6
g7
g8
tF0
g21
g83
I10
F1
tp430
S'transmission_line_10_dropoffs/MultidropTransient/tran_Rline=20.m_Lline=79.p_Cline=220f_Cdrp=0.0p_Lenline=1.0_Vout.csv'
p431
s((g6
g7
g8
tF0
g21
g22
I10
F1
tp432
S'transmission_line_10_dropoffs/MultidropBode/ac_Rline=20.m_Lline=79.p_Cline=220f_Cdrp=0.0p_Lenline=1.0_Vout.csv'
p433
s((g6
g58
g59
tF2
g28
g29
I10
F4
tp434
S'transmission_line_10_dropoffs/MultidropBode/ac_Rline=20.m_Lline=2.4n_Cline=4.6p_Cdrp=2.0p_Lenline=4.0_Vout.csv'
p435
s((g199
g7
g8
tF1
g54
g55
I10
F5
tp436
S'transmission_line_10_dropoffs/MultidropBode/ac_Rline=17._Lline=79.p_Cline=220f_Cdrp=1.0p_Lenline=5.0_Vout.csv'
p437
s((g39
g7
g8
tF1
g54
g55
I10
F5
tp438
S'transmission_line_10_dropoffs/MultidropBode/ac_Rline=13._Lline=79.p_Cline=220f_Cdrp=1.0p_Lenline=5.0_Vout.csv'
p439
s((g75
g7
g8
tF0
g14
g15
I10
F5
tp440
S'transmission_line_10_dropoffs/MultidropBode/ac_Rline=1.6_Lline=79.p_Cline=220f_Cdrp=0.0p_Lenline=5.0_Vout.csv'
p441
s((g63
g7
g8
tF0
g21
g83
I10
F1
tp442
S'transmission_line_10_dropoffs/MultidropTransient/tran_Rline=16._Lline=79.p_Cline=220f_Cdrp=0.0p_Lenline=1.0_Vout.csv'
p443
s((g117
g7
g8
tF0
g21
g83
I10
F1
tp444
S'transmission_line_10_dropoffs/MultidropTransient/tran_Rline=620m_Lline=79.p_Cline=220f_Cdrp=0.0p_Lenline=1.0_Vout.csv'
p445
s((g80
g58
g59
tF2
g28
g29
I10
F4
tp446
S'transmission_line_10_dropoffs/MultidropBode/ac_Rline=8.0_Lline=2.4n_Cline=4.6p_Cdrp=2.0p_Lenline=4.0_Vout.csv'
p447
s((g20
g7
g8
tF0
g21
g83
I10
F1
tp448
S'transmission_line_10_dropoffs/MultidropTransient/tran_Rline=4.0_Lline=79.p_Cline=220f_Cdrp=0.0p_Lenline=1.0_Vout.csv'
p449
s((g100
g7
g8
tF1
g54
g55
I10
F5
tp450
S'transmission_line_10_dropoffs/MultidropBode/ac_Rline=15._Lline=79.p_Cline=220f_Cdrp=1.0p_Lenline=5.0_Vout.csv'
p451
s((g35
g58
g59
tF2
g28
g29
I10
F4
tp452
S'transmission_line_10_dropoffs/MultidropBode/ac_Rline=14._Lline=2.4n_Cline=4.6p_Cdrp=2.0p_Lenline=4.0_Vout.csv'
p453
s((g63
g7
g8
tF0
g21
g22
I10
F1
tp454
S'transmission_line_10_dropoffs/MultidropBode/ac_Rline=16._Lline=79.p_Cline=220f_Cdrp=0.0p_Lenline=1.0_Vout.csv'
p455
s((g25
g7
g8
tF1
g54
g55
I10
F5
tp456
S'transmission_line_10_dropoffs/MultidropBode/ac_Rline=6.0_Lline=79.p_Cline=220f_Cdrp=1.0p_Lenline=5.0_Vout.csv'
p457
s((g32
g7
g8
tF0
g14
g36
I10
F5
tp458
S'transmission_line_10_dropoffs/MultidropTransient/tran_Rline=3.0_Lline=79.p_Cline=220f_Cdrp=0.0p_Lenline=5.0_Vout.csv'
p459
s((g95
g7
g8
tF0
g14
g36
I10
F5
tp460
S'transmission_line_10_dropoffs/MultidropTransient/tran_Rline=10._Lline=79.p_Cline=220f_Cdrp=0.0p_Lenline=5.0_Vout.csv'
p461
s((g92
g58
g59
tF2
g28
g29
I10
F4
tp462
S'transmission_line_10_dropoffs/MultidropBode/ac_Rline=9.0_Lline=2.4n_Cline=4.6p_Cdrp=2.0p_Lenline=4.0_Vout.csv'
p463
s((g92
g7
g8
tF0
g14
g15
I10
F5
tp464
S'transmission_line_10_dropoffs/MultidropBode/ac_Rline=9.0_Lline=79.p_Cline=220f_Cdrp=0.0p_Lenline=5.0_Vout.csv'
p465
s((g128
g7
g8
tF0
g14
g15
I10
F5
tp466
S'transmission_line_10_dropoffs/MultidropBode/ac_Rline=1.0_Lline=79.p_Cline=220f_Cdrp=0.0p_Lenline=5.0_Vout.csv'
p467
s((g100
g7
g8
tF0
g21
g22
I10
F1
tp468
S'transmission_line_10_dropoffs/MultidropBode/ac_Rline=15._Lline=79.p_Cline=220f_Cdrp=0.0p_Lenline=1.0_Vout.csv'
p469
s((g6
g7
g8
tF0
g67
S'trans'
I10
F5
tp470
S'transmission_line_10_dropoffs/MultidropTransient/tran_Rline=20.m_Lline=79.p_Cline=220f_Cdrp=0.0p_Lenline=5.0_Vout.csv'
p471
s((g146
g7
g8
tF0
g14
g15
I10
F5
tp472
S'transmission_line_10_dropoffs/MultidropBode/ac_Rline=11._Lline=79.p_Cline=220f_Cdrp=0.0p_Lenline=5.0_Vout.csv'
p473
s((g173
g7
g8
tF0
g14
g15
I10
F5
tp474
S'transmission_line_10_dropoffs/MultidropBode/ac_Rline=12._Lline=79.p_Cline=220f_Cdrp=0.0p_Lenline=5.0_Vout.csv'
p475
s((g176
g7
g8
tF0
g21
g83
I10
F1
tp476
S'transmission_line_10_dropoffs/MultidropTransient/tran_Rline=18._Lline=79.p_Cline=220f_Cdrp=0.0p_Lenline=1.0_Vout.csv'
p477
s((g20
g58
g59
tF2
g28
g29
I10
F4
tp478
S'transmission_line_10_dropoffs/MultidropBode/ac_Rline=4.0_Lline=2.4n_Cline=4.6p_Cdrp=2.0p_Lenline=4.0_Vout.csv'
p479
s((g6
g7
g8
tF1
g9
g86
I10
F1
tp480
S'transmission_line_10_dropoffs/MultidropTransient/tran_Rline=20.m_Lline=79.p_Cline=220f_Cdrp=1.0p_Lenline=1.0_Vout.csv'
p481
s((g128
g7
g8
tF1
g54
g55
I10
F5
tp482
S'transmission_line_10_dropoffs/MultidropBode/ac_Rline=1.0_Lline=79.p_Cline=220f_Cdrp=1.0p_Lenline=5.0_Vout.csv'
p483
s((g70
g58
g59
tF2
g28
g29
I10
F4
tp484
S'transmission_line_10_dropoffs/MultidropBode/ac_Rline=420m_Lline=2.4n_Cline=4.6p_Cdrp=2.0p_Lenline=4.0_Vout.csv'
p485
s((g35
g7
g8
tF0
g21
g83
I10
F1
tp486
S'transmission_line_10_dropoffs/MultidropTransient/tran_Rline=14._Lline=79.p_Cline=220f_Cdrp=0.0p_Lenline=1.0_Vout.csv'
p487
s((g53
g7
g8
tF1
g54
g64
I10
F5
tp488
S'transmission_line_10_dropoffs/MultidropTransient/tran_Rline=220m_Lline=79.p_Cline=220f_Cdrp=1.0p_Lenline=5.0_Vout.csv'
p489
s((g173
g7
g8
tF1
g54
g55
I10
F5
tp490
S'transmission_line_10_dropoffs/MultidropBode/ac_Rline=12._Lline=79.p_Cline=220f_Cdrp=1.0p_Lenline=5.0_Vout.csv'
p491
s((g35
g7
g8
tF0
g14
g15
I10
F5
tp492
S'transmission_line_10_dropoffs/MultidropBode/ac_Rline=14._Lline=79.p_Cline=220f_Cdrp=0.0p_Lenline=5.0_Vout.csv'
p493
s((g13
g7
g8
tF0
g14
g36
I10
F5
tp494
S'transmission_line_10_dropoffs/MultidropTransient/tran_Rline=5.0_Lline=79.p_Cline=220f_Cdrp=0.0p_Lenline=5.0_Vout.csv'
p495
s((g42
g7
g8
tF0
g14
g15
I10
F5
tp496
S'transmission_line_10_dropoffs/MultidropBode/ac_Rline=820m_Lline=79.p_Cline=220f_Cdrp=0.0p_Lenline=5.0_Vout.csv'
p497
s((g20
g7
g8
tF1
g54
g55
I10
F5
tp498
S'transmission_line_10_dropoffs/MultidropBode/ac_Rline=4.0_Lline=79.p_Cline=220f_Cdrp=1.0p_Lenline=5.0_Vout.csv'
p499
sa(lp500
g6
ag53
ag70
ag117
ag42
ag128
ag48
ag110
ag75
ag45
ag32
ag20
ag13
ag25
ag89
ag80
ag92
ag95
ag146
ag173
ag39
ag35
ag100
ag63
ag199
ag176
ag141
ag32
ag20
ag13
ag25
ag89
ag80
ag92
ag95
ag146
ag173
ag39
ag35
ag100
ag63
ag199
ag176
ag141
ag32
ag20
ag13
ag25
ag89
ag80
ag92
ag95
ag146
ag173
ag39
ag35
ag100
ag63
ag199
ag176
ag141
ag32
ag20
ag13
ag25
ag89
ag80
ag92
ag95
ag146
ag173
ag39
ag35
ag100
ag63
ag199
ag176
ag141
ag32
ag20
ag13
ag25
ag89
ag80
ag92
ag95
ag146
ag173
ag39
ag35
ag100
ag63
ag199
ag176
ag141
aa(lp501
g7
ag3
(g5
S'\xc7m\xc0\t\xce\xdb\r>'
tRp502
ag3
(g5
S'\xf8"\t\xf2[\x80\x1c>'
tRp503
ag58
ag3
(g5
S'\x90}-\xe6\xa2\xd2+>'
tRp504
ag3
(g5
S'\xce\xf9`\xae\xeeM1>'
tRp505
ag3
(g5
S'\xd34\xab\xe9\x8b\xb24>'
tRp506
ag3
(g5
S'\xd8o\xf5$)\x178>'
tRp507
ag3
(g5
S'\xdd\xaa?`\xc6{;>'
tRp508
ag3
(g5
S'\xe2\xe5\x89\x9bc\xe0>>'
tRp509
aa(lp510
g8
ag3
(g5
S'9[D\x05[I\x85='
tRp511
ag59
ag3
(g5
S'\x17\xafT*\xa3\xfe\x9d='
tRp512
ag3
(g5
S'\xea\xf7\x16\xff\xce\xd5\xa3='
tRp513
ag3
(g5
S'H\x98\x03iL\xac\xa8='
tRp514
ag3
(g5
S'\xa78\xf0\xd2\xc9\x82\xad='
tRp515
ag3
(g5
S'\x83ln\x9e\xa3,\xb1='
tRp516
ag3
(g5
S'\xb2\xbcdS\xe2\x97\xb3='
tRp517
ag3
(g5
S'\xe1\x0c[\x08!\x03\xb6='
tRp518
aa(lp519
g32
ag20
ag13
ag25
ag89
ag80
ag92
ag95
ag146
ag173
ag39
ag35
ag100
ag63
ag199
ag176
ag141
aa.